
irq.elf:     file format elf32-littleriscv


Disassembly of section .text:

00000000 <_start>:
   0:	00000297          	auipc	t0,0x0
   4:	28028293          	addi	t0,t0,640 # 280 <trap_handler>
   8:	30529073          	csrw	mtvec,t0
   c:	3050e073          	csrsi	mtvec,1
  10:	00020297          	auipc	t0,0x20
  14:	00028293          	mv	t0,t0
  18:	00020317          	auipc	t1,0x20
  1c:	00830313          	addi	t1,t1,8 # 20020 <_bss_end>

00000020 <_bss_clear>:
  20:	0002a023          	sw	zero,0(t0) # 20010 <heap_ptr>
  24:	00428293          	addi	t0,t0,4
  28:	fe62ece3          	bltu	t0,t1,20 <_bss_clear>
  2c:	00040117          	auipc	sp,0x40
  30:	fd410113          	addi	sp,sp,-44 # 40000 <_stack>
  34:	0e4000ef          	jal	ra,118 <main>
  38:	54c0006f          	j	584 <exit>

0000003c <user_trap_handler>:
  3c:	342027f3          	csrr	a5,mcause
  40:	0007ca63          	bltz	a5,54 <user_trap_handler+0x18>
  44:	341027f3          	csrr	a5,mepc
  48:	00478793          	addi	a5,a5,4
  4c:	34179073          	csrw	mepc,a5
  50:	00008067          	ret
  54:	00179793          	slli	a5,a5,0x1
  58:	0017d793          	srli	a5,a5,0x1
  5c:	00300713          	li	a4,3
  60:	04e78a63          	beq	a5,a4,b4 <user_trap_handler+0x78>
  64:	00700713          	li	a4,7
  68:	06e78c63          	beq	a5,a4,e0 <user_trap_handler+0xa4>
  6c:	00b00713          	li	a4,11
  70:	fee790e3          	bne	a5,a4,50 <user_trap_handler+0x14>
  74:	304027f3          	csrr	a5,mie
  78:	fffff737          	lui	a4,0xfffff
  7c:	7ff70713          	addi	a4,a4,2047 # fffff7ff <_stack+0xfffbf7ff>
  80:	00e7f7b3          	and	a5,a5,a4
  84:	30479073          	csrw	mie,a5
  88:	900006b7          	lui	a3,0x90000
  8c:	0106a783          	lw	a5,16(a3) # 90000010 <_stack+0x8ffc0010>
  90:	ffff0737          	lui	a4,0xffff0
  94:	ff070713          	addi	a4,a4,-16 # fffefff0 <_stack+0xfffafff0>
  98:	00e7f7b3          	and	a5,a5,a4
  9c:	00f6a823          	sw	a5,16(a3)
  a0:	000207b7          	lui	a5,0x20
  a4:	01478793          	addi	a5,a5,20 # 20014 <result>
  a8:	00100713          	li	a4,1
  ac:	00e7a423          	sw	a4,8(a5)
  b0:	00008067          	ret
  b4:	304027f3          	csrr	a5,mie
  b8:	ff77f793          	andi	a5,a5,-9
  bc:	30479073          	csrw	mie,a5
  c0:	90000737          	lui	a4,0x90000
  c4:	01072783          	lw	a5,16(a4) # 90000010 <_stack+0x8ffc0010>
  c8:	000206b7          	lui	a3,0x20
  cc:	ffe7f793          	andi	a5,a5,-2
  d0:	00f72823          	sw	a5,16(a4)
  d4:	00100793          	li	a5,1
  d8:	00f6aa23          	sw	a5,20(a3) # 20014 <result>
  dc:	00008067          	ret
  e0:	304027f3          	csrr	a5,mie
  e4:	f7f7f793          	andi	a5,a5,-129
  e8:	30479073          	csrw	mie,a5
  ec:	900007b7          	lui	a5,0x90000
  f0:	0087a703          	lw	a4,8(a5) # 90000008 <_stack+0x8ffc0008>
  f4:	3e870713          	addi	a4,a4,1000
  f8:	00e7a023          	sw	a4,0(a5)
  fc:	00c7a703          	lw	a4,12(a5)
 100:	00e7a223          	sw	a4,4(a5)
 104:	000207b7          	lui	a5,0x20
 108:	01478793          	addi	a5,a5,20 # 20014 <result>
 10c:	00100713          	li	a4,1
 110:	00e7a223          	sw	a4,4(a5)
 114:	00008067          	ret

00000118 <main>:
 118:	00008737          	lui	a4,0x8
 11c:	900007b7          	lui	a5,0x90000
 120:	12c70693          	addi	a3,a4,300 # 812c <_text_end+0x7b2c>
 124:	00d7a423          	sw	a3,8(a5) # 90000008 <_stack+0x8ffc0008>
 128:	0007a623          	sw	zero,12(a5)
 12c:	00e7a023          	sw	a4,0(a5)
 130:	0007a223          	sw	zero,4(a5)
 134:	000017b7          	lui	a5,0x1
 138:	88878793          	addi	a5,a5,-1912 # 888 <_text_end+0x288>
 13c:	30479073          	csrw	mie,a5
 140:	300027f3          	csrr	a5,mstatus
 144:	0087e793          	ori	a5,a5,8
 148:	30079073          	csrw	mstatus,a5
 14c:	01400793          	li	a5,20
 150:	00000013          	nop
 154:	fff78793          	addi	a5,a5,-1
 158:	fe079ce3          	bnez	a5,150 <main+0x38>
 15c:	900006b7          	lui	a3,0x90000
 160:	0106a703          	lw	a4,16(a3) # 90000010 <_stack+0x8ffc0010>
 164:	00010637          	lui	a2,0x10
 168:	01400793          	li	a5,20
 16c:	00c76733          	or	a4,a4,a2
 170:	00e6a823          	sw	a4,16(a3)
 174:	00000013          	nop
 178:	fff78793          	addi	a5,a5,-1
 17c:	fe079ce3          	bnez	a5,174 <main+0x5c>
 180:	900006b7          	lui	a3,0x90000
 184:	0106a783          	lw	a5,16(a3) # 90000010 <_stack+0x8ffc0010>
 188:	00020737          	lui	a4,0x20
 18c:	01470713          	addi	a4,a4,20 # 20014 <result>
 190:	0017e793          	ori	a5,a5,1
 194:	00f6a823          	sw	a5,16(a3)
 198:	00300593          	li	a1,3
 19c:	00072783          	lw	a5,0(a4)
 1a0:	00472603          	lw	a2,4(a4)
 1a4:	00872683          	lw	a3,8(a4)
 1a8:	00c787b3          	add	a5,a5,a2
 1ac:	00d787b3          	add	a5,a5,a3
 1b0:	feb796e3          	bne	a5,a1,19c <main+0x84>
 1b4:	c00027f3          	rdcycle	a5
 1b8:	00178793          	addi	a5,a5,1
 1bc:	c0079073          	csrw	cycle,a5
 1c0:	c80027f3          	rdcycleh	a5
 1c4:	00178793          	addi	a5,a5,1
 1c8:	c8079073          	csrw	cycleh,a5
 1cc:	c02027f3          	rdinstret	a5
 1d0:	00178793          	addi	a5,a5,1
 1d4:	c0279073          	csrw	instret,a5
 1d8:	c82027f3          	rdinstreth	a5
 1dc:	00178793          	addi	a5,a5,1
 1e0:	c8279073          	csrw	instreth,a5
 1e4:	f11027f3          	csrr	a5,mvendorid
 1e8:	00178793          	addi	a5,a5,1
 1ec:	f1179073          	csrw	mvendorid,a5
 1f0:	f12027f3          	csrr	a5,marchid
 1f4:	00178793          	addi	a5,a5,1
 1f8:	f1279073          	csrw	marchid,a5
 1fc:	f13027f3          	csrr	a5,mimpid
 200:	00178793          	addi	a5,a5,1
 204:	f1379073          	csrw	mimpid,a5
 208:	f14027f3          	csrr	a5,mhartid
 20c:	00178793          	addi	a5,a5,1
 210:	f1479073          	csrw	mhartid,a5
 214:	301027f3          	csrr	a5,misa
 218:	00178793          	addi	a5,a5,1
 21c:	30179073          	csrw	misa,a5
 220:	342027f3          	csrr	a5,mcause
 224:	00178793          	addi	a5,a5,1
 228:	34279073          	csrw	mcause,a5
 22c:	343027f3          	csrr	a5,mtval
 230:	00178793          	addi	a5,a5,1
 234:	34379073          	csrw	mtval,a5
 238:	344027f3          	csrr	a5,mip
 23c:	80000737          	lui	a4,0x80000
 240:	00e7e7b3          	or	a5,a5,a4
 244:	34479073          	csrw	mip,a5
 248:	7b1027f3          	csrr	a5,dpc
 24c:	00178793          	addi	a5,a5,1
 250:	7b179073          	csrw	dpc,a5
 254:	0000                	unimp
 256:	0000                	unimp
 258:	5a5a3003          	0x5a5a3003
 25c:	5a5a7003          	0x5a5a7003
 260:	5a5a3023          	0x5a5a3023
 264:	5a5a2063          	0x5a5a2063
 268:	5a300073          	0x5a300073
 26c:	0ff0000f          	fence
 270:	00000513          	li	a0,0
 274:	00008067          	ret
	...

00000280 <trap_handler>:
 280:	0400006f          	j	2c0 <_trap_handler>
 284:	03c0006f          	j	2c0 <_trap_handler>
 288:	0380006f          	j	2c0 <_trap_handler>
 28c:	19c0006f          	j	428 <_trap_ebreak>
 290:	0300006f          	j	2c0 <_trap_handler>
 294:	02c0006f          	j	2c0 <_trap_handler>
 298:	0280006f          	j	2c0 <_trap_handler>
 29c:	0240006f          	j	2c0 <_trap_handler>
 2a0:	0000006f          	j	2a0 <trap_handler+0x20>
 2a4:	0000006f          	j	2a4 <trap_handler+0x24>
 2a8:	0000006f          	j	2a8 <trap_handler+0x28>
 2ac:	0c80006f          	j	374 <_trap_ecall>
 2b0:	0000006f          	j	2b0 <trap_handler+0x30>
 2b4:	0000006f          	j	2b4 <trap_handler+0x34>
 2b8:	0000006f          	j	2b8 <trap_handler+0x38>
 2bc:	0000006f          	j	2bc <trap_handler+0x3c>

000002c0 <_trap_handler>:
 2c0:	fb010113          	addi	sp,sp,-80
 2c4:	04112623          	sw	ra,76(sp)
 2c8:	04512423          	sw	t0,72(sp)
 2cc:	04612223          	sw	t1,68(sp)
 2d0:	04712023          	sw	t2,64(sp)
 2d4:	02812e23          	sw	s0,60(sp)
 2d8:	02a12c23          	sw	a0,56(sp)
 2dc:	02b12a23          	sw	a1,52(sp)
 2e0:	02c12823          	sw	a2,48(sp)
 2e4:	02d12623          	sw	a3,44(sp)
 2e8:	02e12423          	sw	a4,40(sp)
 2ec:	02f12223          	sw	a5,36(sp)
 2f0:	03012023          	sw	a6,32(sp)
 2f4:	01112e23          	sw	a7,28(sp)
 2f8:	01c12c23          	sw	t3,24(sp)
 2fc:	01d12a23          	sw	t4,20(sp)
 300:	01e12823          	sw	t5,16(sp)
 304:	01f12623          	sw	t6,12(sp)
 308:	05010413          	addi	s0,sp,80
 30c:	03c00793          	li	a5,60
 310:	00078663          	beqz	a5,31c <_trap_handler+0x5c>
 314:	d29ff0ef          	jal	ra,3c <user_trap_handler>
 318:	0100006f          	j	328 <_trap_handler+0x68>
 31c:	34102f73          	csrr	t5,mepc
 320:	004f0f13          	addi	t5,t5,4
 324:	341f1073          	csrw	mepc,t5
 328:	04c12083          	lw	ra,76(sp)
 32c:	04812283          	lw	t0,72(sp)
 330:	04412303          	lw	t1,68(sp)
 334:	04012383          	lw	t2,64(sp)
 338:	03c12403          	lw	s0,60(sp)
 33c:	03812503          	lw	a0,56(sp)
 340:	03412583          	lw	a1,52(sp)
 344:	03012603          	lw	a2,48(sp)
 348:	02c12683          	lw	a3,44(sp)
 34c:	02812703          	lw	a4,40(sp)
 350:	02412783          	lw	a5,36(sp)
 354:	02012803          	lw	a6,32(sp)
 358:	01c12883          	lw	a7,28(sp)
 35c:	01812e03          	lw	t3,24(sp)
 360:	01412e83          	lw	t4,20(sp)
 364:	01012f03          	lw	t5,16(sp)
 368:	00c12f83          	lw	t6,12(sp)
 36c:	05010113          	addi	sp,sp,80
 370:	30200073          	mret

00000374 <_trap_ecall>:
 374:	fb010113          	addi	sp,sp,-80
 378:	04112623          	sw	ra,76(sp)
 37c:	04512423          	sw	t0,72(sp)
 380:	04612223          	sw	t1,68(sp)
 384:	04712023          	sw	t2,64(sp)
 388:	02812e23          	sw	s0,60(sp)
 38c:	02a12c23          	sw	a0,56(sp)
 390:	02b12a23          	sw	a1,52(sp)
 394:	02c12823          	sw	a2,48(sp)
 398:	02d12623          	sw	a3,44(sp)
 39c:	02e12423          	sw	a4,40(sp)
 3a0:	02f12223          	sw	a5,36(sp)
 3a4:	03012023          	sw	a6,32(sp)
 3a8:	01112e23          	sw	a7,28(sp)
 3ac:	01c12c23          	sw	t3,24(sp)
 3b0:	01d12a23          	sw	t4,20(sp)
 3b4:	01e12823          	sw	t5,16(sp)
 3b8:	01f12623          	sw	t6,12(sp)
 3bc:	05010413          	addi	s0,sp,80
 3c0:	03c00793          	li	a5,60
 3c4:	00078663          	beqz	a5,3d0 <_trap_ecall+0x5c>
 3c8:	c75ff0ef          	jal	ra,3c <user_trap_handler>
 3cc:	0100006f          	j	3dc <_trap_ecall+0x68>
 3d0:	34102f73          	csrr	t5,mepc
 3d4:	004f0f13          	addi	t5,t5,4
 3d8:	341f1073          	csrw	mepc,t5
 3dc:	04c12083          	lw	ra,76(sp)
 3e0:	04812283          	lw	t0,72(sp)
 3e4:	04412303          	lw	t1,68(sp)
 3e8:	04012383          	lw	t2,64(sp)
 3ec:	03c12403          	lw	s0,60(sp)
 3f0:	03812503          	lw	a0,56(sp)
 3f4:	03412583          	lw	a1,52(sp)
 3f8:	03012603          	lw	a2,48(sp)
 3fc:	02c12683          	lw	a3,44(sp)
 400:	02812703          	lw	a4,40(sp)
 404:	02412783          	lw	a5,36(sp)
 408:	02012803          	lw	a6,32(sp)
 40c:	01c12883          	lw	a7,28(sp)
 410:	01812e03          	lw	t3,24(sp)
 414:	01412e83          	lw	t4,20(sp)
 418:	01012f03          	lw	t5,16(sp)
 41c:	00c12f83          	lw	t6,12(sp)
 420:	05010113          	addi	sp,sp,80
 424:	30200073          	mret

00000428 <_trap_ebreak>:
 428:	fb010113          	addi	sp,sp,-80
 42c:	04112623          	sw	ra,76(sp)
 430:	04512423          	sw	t0,72(sp)
 434:	04612223          	sw	t1,68(sp)
 438:	04712023          	sw	t2,64(sp)
 43c:	02812e23          	sw	s0,60(sp)
 440:	02a12c23          	sw	a0,56(sp)
 444:	02b12a23          	sw	a1,52(sp)
 448:	02c12823          	sw	a2,48(sp)
 44c:	02d12623          	sw	a3,44(sp)
 450:	02e12423          	sw	a4,40(sp)
 454:	02f12223          	sw	a5,36(sp)
 458:	03012023          	sw	a6,32(sp)
 45c:	01112e23          	sw	a7,28(sp)
 460:	01c12c23          	sw	t3,24(sp)
 464:	01d12a23          	sw	t4,20(sp)
 468:	01e12823          	sw	t5,16(sp)
 46c:	01f12623          	sw	t6,12(sp)
 470:	05010413          	addi	s0,sp,80
 474:	03c00793          	li	a5,60
 478:	00078663          	beqz	a5,484 <_trap_ebreak+0x5c>
 47c:	bc1ff0ef          	jal	ra,3c <user_trap_handler>
 480:	0100006f          	j	490 <_trap_ebreak+0x68>
 484:	34102f73          	csrr	t5,mepc
 488:	004f0f13          	addi	t5,t5,4
 48c:	341f1073          	csrw	mepc,t5
 490:	04c12083          	lw	ra,76(sp)
 494:	04812283          	lw	t0,72(sp)
 498:	04412303          	lw	t1,68(sp)
 49c:	04012383          	lw	t2,64(sp)
 4a0:	03c12403          	lw	s0,60(sp)
 4a4:	03812503          	lw	a0,56(sp)
 4a8:	03412583          	lw	a1,52(sp)
 4ac:	03012603          	lw	a2,48(sp)
 4b0:	02c12683          	lw	a3,44(sp)
 4b4:	02812703          	lw	a4,40(sp)
 4b8:	02412783          	lw	a5,36(sp)
 4bc:	02012803          	lw	a6,32(sp)
 4c0:	01c12883          	lw	a7,28(sp)
 4c4:	01812e03          	lw	t3,24(sp)
 4c8:	01412e83          	lw	t4,20(sp)
 4cc:	01012f03          	lw	t5,16(sp)
 4d0:	00c12f83          	lw	t6,12(sp)
 4d4:	05010113          	addi	sp,sp,80
 4d8:	30200073          	mret

000004dc <_putchar>:
 4dc:	900007b7          	lui	a5,0x90000
 4e0:	00a78e23          	sb	a0,28(a5) # 9000001c <_stack+0x8ffc001c>
 4e4:	00000513          	li	a0,0
 4e8:	00008067          	ret

000004ec <_getchar>:
 4ec:	900007b7          	lui	a5,0x90000
 4f0:	0207c503          	lbu	a0,32(a5) # 90000020 <_stack+0x8ffc0020>
 4f4:	0ff57513          	zext.b	a0,a0
 4f8:	00008067          	ret

000004fc <_open>:
 4fc:	fff00513          	li	a0,-1
 500:	00008067          	ret

00000504 <_write>:
 504:	00060513          	mv	a0,a2
 508:	00060e63          	beqz	a2,524 <_write+0x20>
 50c:	00c586b3          	add	a3,a1,a2
 510:	90000737          	lui	a4,0x90000
 514:	0005c783          	lbu	a5,0(a1)
 518:	00158593          	addi	a1,a1,1
 51c:	00f70e23          	sb	a5,28(a4) # 9000001c <_stack+0x8ffc001c>
 520:	feb69ae3          	bne	a3,a1,514 <_write+0x10>
 524:	00008067          	ret

00000528 <_fstat>:
 528:	fff00513          	li	a0,-1
 52c:	00008067          	ret

00000530 <_close>:
 530:	fff00513          	li	a0,-1
 534:	00008067          	ret

00000538 <_lseek>:
 538:	fff00513          	li	a0,-1
 53c:	00008067          	ret

00000540 <_read>:
 540:	00060513          	mv	a0,a2
 544:	00000713          	li	a4,0
 548:	90000637          	lui	a2,0x90000
 54c:	00a00813          	li	a6,10
 550:	0080006f          	j	558 <_read+0x18>
 554:	01078e63          	beq	a5,a6,570 <_read+0x30>
 558:	02064783          	lbu	a5,32(a2) # 90000020 <_stack+0x8ffc0020>
 55c:	00e586b3          	add	a3,a1,a4
 560:	00170713          	addi	a4,a4,1
 564:	0ff7f793          	zext.b	a5,a5
 568:	00f68023          	sb	a5,0(a3)
 56c:	fea744e3          	blt	a4,a0,554 <_read+0x14>
 570:	00008067          	ret

00000574 <_exit>:
 574:	0ff57793          	zext.b	a5,a0
 578:	90000737          	lui	a4,0x90000
 57c:	02f70623          	sb	a5,44(a4) # 9000002c <_stack+0x8ffc002c>
 580:	0000006f          	j	580 <_exit+0xc>

00000584 <exit>:
 584:	0ff57793          	zext.b	a5,a0
 588:	90000737          	lui	a4,0x90000
 58c:	02f70623          	sb	a5,44(a4) # 9000002c <_stack+0x8ffc002c>
 590:	0000006f          	j	590 <exit+0xc>

00000594 <_isatty>:
 594:	00353513          	sltiu	a0,a0,3
 598:	00008067          	ret

0000059c <_sbrk>:
 59c:	000206b7          	lui	a3,0x20
 5a0:	0106a783          	lw	a5,16(a3) # 20010 <heap_ptr>
 5a4:	02078063          	beqz	a5,5c4 <_sbrk+0x28>
 5a8:	00040737          	lui	a4,0x40
 5ac:	00a78533          	add	a0,a5,a0
 5b0:	00070713          	mv	a4,a4
 5b4:	02e55863          	bge	a0,a4,5e4 <_sbrk+0x48>
 5b8:	00a6a823          	sw	a0,16(a3)
 5bc:	00078513          	mv	a0,a5
 5c0:	00008067          	ret
 5c4:	000207b7          	lui	a5,0x20
 5c8:	02078713          	addi	a4,a5,32 # 20020 <_bss_end>
 5cc:	00e6a823          	sw	a4,16(a3)
 5d0:	02078793          	addi	a5,a5,32
 5d4:	00040737          	lui	a4,0x40
 5d8:	00a78533          	add	a0,a5,a0
 5dc:	00070713          	mv	a4,a4
 5e0:	fce54ce3          	blt	a0,a4,5b8 <_sbrk+0x1c>
 5e4:	00000793          	li	a5,0
 5e8:	00078513          	mv	a0,a5
 5ec:	00008067          	ret

000005f0 <_kill>:
 5f0:	fff00513          	li	a0,-1
 5f4:	00008067          	ret

000005f8 <_getpid>:
 5f8:	00000513          	li	a0,0
 5fc:	00008067          	ret
