
./coremark.elf:     file format elf32-littleriscv


Disassembly of section .text:

00000000 <_start>:
       0:	0001d297          	auipc	t0,0x1d
       4:	57028293          	addi	t0,t0,1392 # 1d570 <trap_handler>
       8:	30529073          	csrw	mtvec,t0
       c:	3050e073          	csrsi	mtvec,1
      10:	00022297          	auipc	t0,0x22
      14:	f2c28293          	addi	t0,t0,-212 # 21f3c <stop_time_val>
      18:	00022317          	auipc	t1,0x22
      1c:	f7830313          	addi	t1,t1,-136 # 21f90 <_bss_end>

00000020 <_bss_clear>:
      20:	0002a023          	sw	zero,0(t0)
      24:	00428293          	addi	t0,t0,4
      28:	fe62ece3          	bltu	t0,t1,20 <_bss_clear>
      2c:	00040117          	auipc	sp,0x40
      30:	fd410113          	addi	sp,sp,-44 # 40000 <_stack>
      34:	4ec010ef          	jal	ra,1520 <main>
      38:	0491d06f          	j	1d880 <exit>
      3c:	0000                	unimp
	...

00000040 <calc_func>:
      40:	fe010113          	addi	sp,sp,-32
      44:	00812c23          	sw	s0,24(sp)
      48:	00051403          	lh	s0,0(a0)
      4c:	00112e23          	sw	ra,28(sp)
      50:	00912a23          	sw	s1,20(sp)
      54:	40745793          	srai	a5,s0,0x7
      58:	01212823          	sw	s2,16(sp)
      5c:	01312623          	sw	s3,12(sp)
      60:	0017f793          	andi	a5,a5,1
      64:	02078263          	beqz	a5,88 <calc_func+0x48>
      68:	01c12083          	lw	ra,28(sp)
      6c:	07f47513          	andi	a0,s0,127
      70:	01812403          	lw	s0,24(sp)
      74:	01412483          	lw	s1,20(sp)
      78:	01012903          	lw	s2,16(sp)
      7c:	00c12983          	lw	s3,12(sp)
      80:	02010113          	addi	sp,sp,32
      84:	00008067          	ret
      88:	00058493          	mv	s1,a1
      8c:	40345593          	srai	a1,s0,0x3
      90:	00f5f593          	andi	a1,a1,15
      94:	00459713          	slli	a4,a1,0x4
      98:	00747693          	andi	a3,s0,7
      9c:	0384d783          	lhu	a5,56(s1)
      a0:	00050993          	mv	s3,a0
      a4:	00b765b3          	or	a1,a4,a1
      a8:	04068c63          	beqz	a3,100 <calc_func+0xc0>
      ac:	00100713          	li	a4,1
      b0:	08e68863          	beq	a3,a4,140 <calc_func+0x100>
      b4:	01041513          	slli	a0,s0,0x10
      b8:	00040913          	mv	s2,s0
      bc:	01055513          	srli	a0,a0,0x10
      c0:	00078593          	mv	a1,a5
      c4:	70d070ef          	jal	ra,7fd0 <crcu16>
      c8:	00050793          	mv	a5,a0
      cc:	f0047413          	andi	s0,s0,-256
      d0:	07f97513          	andi	a0,s2,127
      d4:	00856433          	or	s0,a0,s0
      d8:	02f49c23          	sh	a5,56(s1)
      dc:	08046413          	ori	s0,s0,128
      e0:	00899023          	sh	s0,0(s3)
      e4:	01c12083          	lw	ra,28(sp)
      e8:	01812403          	lw	s0,24(sp)
      ec:	01412483          	lw	s1,20(sp)
      f0:	01012903          	lw	s2,16(sp)
      f4:	00c12983          	lw	s3,12(sp)
      f8:	02010113          	addi	sp,sp,32
      fc:	00008067          	ret
     100:	02200693          	li	a3,34
     104:	00058713          	mv	a4,a1
     108:	00d5d463          	bge	a1,a3,110 <calc_func+0xd0>
     10c:	02200713          	li	a4,34
     110:	00249683          	lh	a3,2(s1)
     114:	00049603          	lh	a2,0(s1)
     118:	0144a583          	lw	a1,20(s1)
     11c:	0184a503          	lw	a0,24(s1)
     120:	0ff77713          	zext.b	a4,a4
     124:	6ac060ef          	jal	ra,67d0 <core_bench_state>
     128:	03e4d783          	lhu	a5,62(s1)
     12c:	01051913          	slli	s2,a0,0x10
     130:	41095913          	srai	s2,s2,0x10
     134:	02078863          	beqz	a5,164 <calc_func+0x124>
     138:	0384d783          	lhu	a5,56(s1)
     13c:	f85ff06f          	j	c0 <calc_func+0x80>
     140:	00078613          	mv	a2,a5
     144:	02848513          	addi	a0,s1,40
     148:	769010ef          	jal	ra,20b0 <core_bench_matrix>
     14c:	03c4d783          	lhu	a5,60(s1)
     150:	01051913          	slli	s2,a0,0x10
     154:	41095913          	srai	s2,s2,0x10
     158:	00078c63          	beqz	a5,170 <calc_func+0x130>
     15c:	0384d783          	lhu	a5,56(s1)
     160:	f61ff06f          	j	c0 <calc_func+0x80>
     164:	0384d783          	lhu	a5,56(s1)
     168:	02a49f23          	sh	a0,62(s1)
     16c:	f55ff06f          	j	c0 <calc_func+0x80>
     170:	0384d783          	lhu	a5,56(s1)
     174:	02a49e23          	sh	a0,60(s1)
     178:	f49ff06f          	j	c0 <calc_func+0x80>
     17c:	00000013          	nop

00000180 <cmp_complex>:
     180:	fe010113          	addi	sp,sp,-32
     184:	00912a23          	sw	s1,20(sp)
     188:	00051483          	lh	s1,0(a0)
     18c:	00812c23          	sw	s0,24(sp)
     190:	01212823          	sw	s2,16(sp)
     194:	4074d793          	srai	a5,s1,0x7
     198:	00112e23          	sw	ra,28(sp)
     19c:	01312623          	sw	s3,12(sp)
     1a0:	01412423          	sw	s4,8(sp)
     1a4:	0017f793          	andi	a5,a5,1
     1a8:	00058913          	mv	s2,a1
     1ac:	00060413          	mv	s0,a2
     1b0:	0a078463          	beqz	a5,258 <cmp_complex+0xd8>
     1b4:	07f4fa13          	andi	s4,s1,127
     1b8:	00091483          	lh	s1,0(s2)
     1bc:	4074d793          	srai	a5,s1,0x7
     1c0:	0017f793          	andi	a5,a5,1
     1c4:	02078663          	beqz	a5,1f0 <cmp_complex+0x70>
     1c8:	07f4f993          	andi	s3,s1,127
     1cc:	01c12083          	lw	ra,28(sp)
     1d0:	01812403          	lw	s0,24(sp)
     1d4:	413a0533          	sub	a0,s4,s3
     1d8:	01412483          	lw	s1,20(sp)
     1dc:	01012903          	lw	s2,16(sp)
     1e0:	00c12983          	lw	s3,12(sp)
     1e4:	00812a03          	lw	s4,8(sp)
     1e8:	02010113          	addi	sp,sp,32
     1ec:	00008067          	ret
     1f0:	4034d593          	srai	a1,s1,0x3
     1f4:	00f5f593          	andi	a1,a1,15
     1f8:	00459693          	slli	a3,a1,0x4
     1fc:	0074f713          	andi	a4,s1,7
     200:	03845783          	lhu	a5,56(s0)
     204:	00d5e5b3          	or	a1,a1,a3
     208:	0a070c63          	beqz	a4,2c0 <cmp_complex+0x140>
     20c:	00100693          	li	a3,1
     210:	0ad71063          	bne	a4,a3,2b0 <cmp_complex+0x130>
     214:	00078613          	mv	a2,a5
     218:	02840513          	addi	a0,s0,40
     21c:	695010ef          	jal	ra,20b0 <core_bench_matrix>
     220:	03c45783          	lhu	a5,60(s0)
     224:	01051993          	slli	s3,a0,0x10
     228:	4109d993          	srai	s3,s3,0x10
     22c:	12078c63          	beqz	a5,364 <cmp_complex+0x1e4>
     230:	03845783          	lhu	a5,56(s0)
     234:	00078593          	mv	a1,a5
     238:	07f9f993          	andi	s3,s3,127
     23c:	f004f493          	andi	s1,s1,-256
     240:	591070ef          	jal	ra,7fd0 <crcu16>
     244:	0099e4b3          	or	s1,s3,s1
     248:	02a41c23          	sh	a0,56(s0)
     24c:	0804e493          	ori	s1,s1,128
     250:	00991023          	sh	s1,0(s2)
     254:	f79ff06f          	j	1cc <cmp_complex+0x4c>
     258:	4034d593          	srai	a1,s1,0x3
     25c:	00f5f593          	andi	a1,a1,15
     260:	00459693          	slli	a3,a1,0x4
     264:	0074f713          	andi	a4,s1,7
     268:	03865783          	lhu	a5,56(a2)
     26c:	00050993          	mv	s3,a0
     270:	00d5e5b3          	or	a1,a1,a3
     274:	0a070863          	beqz	a4,324 <cmp_complex+0x1a4>
     278:	00100693          	li	a3,1
     27c:	08d70263          	beq	a4,a3,300 <cmp_complex+0x180>
     280:	01049513          	slli	a0,s1,0x10
     284:	00048a13          	mv	s4,s1
     288:	01055513          	srli	a0,a0,0x10
     28c:	00078593          	mv	a1,a5
     290:	07fa7a13          	andi	s4,s4,127
     294:	f004f493          	andi	s1,s1,-256
     298:	539070ef          	jal	ra,7fd0 <crcu16>
     29c:	009a64b3          	or	s1,s4,s1
     2a0:	02a41c23          	sh	a0,56(s0)
     2a4:	0804e493          	ori	s1,s1,128
     2a8:	00999023          	sh	s1,0(s3)
     2ac:	f0dff06f          	j	1b8 <cmp_complex+0x38>
     2b0:	01049513          	slli	a0,s1,0x10
     2b4:	00048993          	mv	s3,s1
     2b8:	01055513          	srli	a0,a0,0x10
     2bc:	f79ff06f          	j	234 <cmp_complex+0xb4>
     2c0:	02200693          	li	a3,34
     2c4:	00058713          	mv	a4,a1
     2c8:	00d5d463          	bge	a1,a3,2d0 <cmp_complex+0x150>
     2cc:	02200713          	li	a4,34
     2d0:	00241683          	lh	a3,2(s0)
     2d4:	00041603          	lh	a2,0(s0)
     2d8:	01442583          	lw	a1,20(s0)
     2dc:	01842503          	lw	a0,24(s0)
     2e0:	0ff77713          	zext.b	a4,a4
     2e4:	4ec060ef          	jal	ra,67d0 <core_bench_state>
     2e8:	03e45783          	lhu	a5,62(s0)
     2ec:	01051993          	slli	s3,a0,0x10
     2f0:	4109d993          	srai	s3,s3,0x10
     2f4:	08078463          	beqz	a5,37c <cmp_complex+0x1fc>
     2f8:	03845783          	lhu	a5,56(s0)
     2fc:	f39ff06f          	j	234 <cmp_complex+0xb4>
     300:	00078613          	mv	a2,a5
     304:	02840513          	addi	a0,s0,40
     308:	5a9010ef          	jal	ra,20b0 <core_bench_matrix>
     30c:	03c45783          	lhu	a5,60(s0)
     310:	01051a13          	slli	s4,a0,0x10
     314:	410a5a13          	srai	s4,s4,0x10
     318:	06078863          	beqz	a5,388 <cmp_complex+0x208>
     31c:	03845783          	lhu	a5,56(s0)
     320:	f6dff06f          	j	28c <cmp_complex+0x10c>
     324:	02200693          	li	a3,34
     328:	00058713          	mv	a4,a1
     32c:	00d5d463          	bge	a1,a3,334 <cmp_complex+0x1b4>
     330:	02200713          	li	a4,34
     334:	00241683          	lh	a3,2(s0)
     338:	00041603          	lh	a2,0(s0)
     33c:	01442583          	lw	a1,20(s0)
     340:	01842503          	lw	a0,24(s0)
     344:	0ff77713          	zext.b	a4,a4
     348:	488060ef          	jal	ra,67d0 <core_bench_state>
     34c:	03e45783          	lhu	a5,62(s0)
     350:	01051a13          	slli	s4,a0,0x10
     354:	410a5a13          	srai	s4,s4,0x10
     358:	00078c63          	beqz	a5,370 <cmp_complex+0x1f0>
     35c:	03845783          	lhu	a5,56(s0)
     360:	f2dff06f          	j	28c <cmp_complex+0x10c>
     364:	03845783          	lhu	a5,56(s0)
     368:	02a41e23          	sh	a0,60(s0)
     36c:	ec9ff06f          	j	234 <cmp_complex+0xb4>
     370:	03845783          	lhu	a5,56(s0)
     374:	02a41f23          	sh	a0,62(s0)
     378:	f15ff06f          	j	28c <cmp_complex+0x10c>
     37c:	03845783          	lhu	a5,56(s0)
     380:	02a41f23          	sh	a0,62(s0)
     384:	eb1ff06f          	j	234 <cmp_complex+0xb4>
     388:	03845783          	lhu	a5,56(s0)
     38c:	02a41e23          	sh	a0,60(s0)
     390:	efdff06f          	j	28c <cmp_complex+0x10c>
     394:	00000013          	nop
     398:	00000013          	nop
     39c:	00000013          	nop

000003a0 <cmp_idx>:
     3a0:	00060a63          	beqz	a2,3b4 <cmp_idx+0x14>
     3a4:	00251503          	lh	a0,2(a0)
     3a8:	00259783          	lh	a5,2(a1)
     3ac:	40f50533          	sub	a0,a0,a5
     3b0:	00008067          	ret
     3b4:	00051783          	lh	a5,0(a0)
     3b8:	01079713          	slli	a4,a5,0x10
     3bc:	01075713          	srli	a4,a4,0x10
     3c0:	00875713          	srli	a4,a4,0x8
     3c4:	f007f793          	andi	a5,a5,-256
     3c8:	00e7e7b3          	or	a5,a5,a4
     3cc:	00f51023          	sh	a5,0(a0)
     3d0:	00059783          	lh	a5,0(a1)
     3d4:	00251503          	lh	a0,2(a0)
     3d8:	01079713          	slli	a4,a5,0x10
     3dc:	01075713          	srli	a4,a4,0x10
     3e0:	00875713          	srli	a4,a4,0x8
     3e4:	f007f793          	andi	a5,a5,-256
     3e8:	00e7e7b3          	or	a5,a5,a4
     3ec:	00f59023          	sh	a5,0(a1)
     3f0:	00259783          	lh	a5,2(a1)
     3f4:	40f50533          	sub	a0,a0,a5
     3f8:	00008067          	ret
     3fc:	00000013          	nop

00000400 <copy_info>:
     400:	00059703          	lh	a4,0(a1)
     404:	00259783          	lh	a5,2(a1)
     408:	00e51023          	sh	a4,0(a0)
     40c:	00f51123          	sh	a5,2(a0)
     410:	00008067          	ret
     414:	00000013          	nop
     418:	00000013          	nop
     41c:	00000013          	nop

00000420 <core_bench_list>:
     420:	00451303          	lh	t1,4(a0)
     424:	fa010113          	addi	sp,sp,-96
     428:	04812c23          	sw	s0,88(sp)
     42c:	03a12823          	sw	s10,48(sp)
     430:	04112e23          	sw	ra,92(sp)
     434:	04912a23          	sw	s1,84(sp)
     438:	05212823          	sw	s2,80(sp)
     43c:	05312623          	sw	s3,76(sp)
     440:	05412423          	sw	s4,72(sp)
     444:	05512223          	sw	s5,68(sp)
     448:	05612023          	sw	s6,64(sp)
     44c:	03712e23          	sw	s7,60(sp)
     450:	03812c23          	sw	s8,56(sp)
     454:	03912a23          	sw	s9,52(sp)
     458:	03b12623          	sw	s11,44(sp)
     45c:	00012a23          	sw	zero,20(sp)
     460:	02452403          	lw	s0,36(a0)
     464:	00050d13          	mv	s10,a0
     468:	00058513          	mv	a0,a1
     46c:	7a605663          	blez	t1,c18 <core_bench_list+0x7f8>
     470:	00b12623          	sw	a1,12(sp)
     474:	00000613          	li	a2,0
     478:	00000893          	li	a7,0
     47c:	00000593          	li	a1,0
     480:	00000813          	li	a6,0
     484:	0ff67793          	zext.b	a5,a2
     488:	00f12a23          	sw	a5,20(sp)
     48c:	00c12783          	lw	a5,12(sp)
     490:	3807c663          	bltz	a5,81c <core_bench_list+0x3fc>
     494:	76040c63          	beqz	s0,c0c <core_bench_list+0x7ec>
     498:	00040793          	mv	a5,s0
     49c:	00c0006f          	j	4a8 <core_bench_list+0x88>
     4a0:	0007a783          	lw	a5,0(a5)
     4a4:	00078a63          	beqz	a5,4b8 <core_bench_list+0x98>
     4a8:	0047a703          	lw	a4,4(a5)
     4ac:	00c12683          	lw	a3,12(sp)
     4b0:	00271703          	lh	a4,2(a4)
     4b4:	fed716e3          	bne	a4,a3,4a0 <core_bench_list+0x80>
     4b8:	00000693          	li	a3,0
     4bc:	0080006f          	j	4c4 <core_bench_list+0xa4>
     4c0:	00070413          	mv	s0,a4
     4c4:	00042703          	lw	a4,0(s0)
     4c8:	00d42023          	sw	a3,0(s0)
     4cc:	00040693          	mv	a3,s0
     4d0:	fe0718e3          	bnez	a4,4c0 <core_bench_list+0xa0>
     4d4:	36078a63          	beqz	a5,848 <core_bench_list+0x428>
     4d8:	0047a703          	lw	a4,4(a5)
     4dc:	00158593          	addi	a1,a1,1
     4e0:	01059593          	slli	a1,a1,0x10
     4e4:	00071703          	lh	a4,0(a4)
     4e8:	0105d593          	srli	a1,a1,0x10
     4ec:	00177693          	andi	a3,a4,1
     4f0:	00068c63          	beqz	a3,508 <core_bench_list+0xe8>
     4f4:	40975993          	srai	s3,a4,0x9
     4f8:	0019f993          	andi	s3,s3,1
     4fc:	010989b3          	add	s3,s3,a6
     500:	01099813          	slli	a6,s3,0x10
     504:	01085813          	srli	a6,a6,0x10
     508:	0007a703          	lw	a4,0(a5)
     50c:	00070c63          	beqz	a4,524 <core_bench_list+0x104>
     510:	00072683          	lw	a3,0(a4)
     514:	00d7a023          	sw	a3,0(a5)
     518:	00042783          	lw	a5,0(s0)
     51c:	00f72023          	sw	a5,0(a4)
     520:	00e42023          	sw	a4,0(s0)
     524:	00c12783          	lw	a5,12(sp)
     528:	0007ca63          	bltz	a5,53c <core_bench_list+0x11c>
     52c:	00178b13          	addi	s6,a5,1
     530:	010b1793          	slli	a5,s6,0x10
     534:	4107d793          	srai	a5,a5,0x10
     538:	00f12623          	sw	a5,12(sp)
     53c:	00160613          	addi	a2,a2,1
     540:	01061613          	slli	a2,a2,0x10
     544:	41065613          	srai	a2,a2,0x10
     548:	f2c31ee3          	bne	t1,a2,484 <core_bench_list+0x64>
     54c:	00259993          	slli	s3,a1,0x2
     550:	411989b3          	sub	s3,s3,a7
     554:	010989b3          	add	s3,s3,a6
     558:	01099793          	slli	a5,s3,0x10
     55c:	0107d793          	srli	a5,a5,0x10
     560:	00f12e23          	sw	a5,28(sp)
     564:	30a04863          	bgtz	a0,874 <core_bench_list+0x454>
     568:	00042783          	lw	a5,0(s0)
     56c:	00040493          	mv	s1,s0
     570:	0007a903          	lw	s2,0(a5)
     574:	0047a703          	lw	a4,4(a5)
     578:	00492603          	lw	a2,4(s2)
     57c:	00092683          	lw	a3,0(s2)
     580:	00c7a223          	sw	a2,4(a5)
     584:	00e92223          	sw	a4,4(s2)
     588:	00d7a023          	sw	a3,0(a5)
     58c:	00c12783          	lw	a5,12(sp)
     590:	00092023          	sw	zero,0(s2)
     594:	2207c463          	bltz	a5,7bc <core_bench_list+0x39c>
     598:	0044a783          	lw	a5,4(s1)
     59c:	00c12683          	lw	a3,12(sp)
     5a0:	00279783          	lh	a5,2(a5)
     5a4:	00d78c63          	beq	a5,a3,5bc <core_bench_list+0x19c>
     5a8:	0004a483          	lw	s1,0(s1)
     5ac:	fe0496e3          	bnez	s1,598 <core_bench_list+0x178>
     5b0:	00042783          	lw	a5,0(s0)
     5b4:	00078493          	mv	s1,a5
     5b8:	02078463          	beqz	a5,5e0 <core_bench_list+0x1c0>
     5bc:	00442783          	lw	a5,4(s0)
     5c0:	01c12583          	lw	a1,28(sp)
     5c4:	00079503          	lh	a0,0(a5)
     5c8:	1b8080ef          	jal	ra,8780 <crc16>
     5cc:	0004a483          	lw	s1,0(s1)
     5d0:	00a12e23          	sw	a0,28(sp)
     5d4:	fe0494e3          	bnez	s1,5bc <core_bench_list+0x19c>
     5d8:	00492703          	lw	a4,4(s2)
     5dc:	00042783          	lw	a5,0(s0)
     5e0:	0047a603          	lw	a2,4(a5)
     5e4:	0007a683          	lw	a3,0(a5)
     5e8:	00100f13          	li	t5,1
     5ec:	00c92223          	sw	a2,4(s2)
     5f0:	00e7a223          	sw	a4,4(a5)
     5f4:	00d92023          	sw	a3,0(s2)
     5f8:	0127a023          	sw	s2,0(a5)
     5fc:	00100293          	li	t0,1
     600:	00040693          	mv	a3,s0
     604:	00000f93          	li	t6,0
     608:	00000613          	li	a2,0
     60c:	00000413          	li	s0,0
     610:	007f7593          	andi	a1,t5,7
     614:	00068793          	mv	a5,a3
     618:	00000713          	li	a4,0
     61c:	001f8f93          	addi	t6,t6,1
     620:	08058463          	beqz	a1,6a8 <core_bench_list+0x288>
     624:	0fe05663          	blez	t5,710 <core_bench_list+0x2f0>
     628:	0006a783          	lw	a5,0(a3)
     62c:	00200513          	li	a0,2
     630:	00300813          	li	a6,3
     634:	00400893          	li	a7,4
     638:	00100713          	li	a4,1
     63c:	0c078a63          	beqz	a5,710 <core_bench_list+0x2f0>
     640:	06e58463          	beq	a1,a4,6a8 <core_bench_list+0x288>
     644:	04a58c63          	beq	a1,a0,69c <core_bench_list+0x27c>
     648:	05058463          	beq	a1,a6,690 <core_bench_list+0x270>
     64c:	03158c63          	beq	a1,a7,684 <core_bench_list+0x264>
     650:	00500513          	li	a0,5
     654:	02a58263          	beq	a1,a0,678 <core_bench_list+0x258>
     658:	00600513          	li	a0,6
     65c:	00a58863          	beq	a1,a0,66c <core_bench_list+0x24c>
     660:	0007a783          	lw	a5,0(a5)
     664:	00200713          	li	a4,2
     668:	0a078463          	beqz	a5,710 <core_bench_list+0x2f0>
     66c:	0007a783          	lw	a5,0(a5)
     670:	00170713          	addi	a4,a4,1
     674:	08078e63          	beqz	a5,710 <core_bench_list+0x2f0>
     678:	0007a783          	lw	a5,0(a5)
     67c:	00170713          	addi	a4,a4,1
     680:	08078863          	beqz	a5,710 <core_bench_list+0x2f0>
     684:	0007a783          	lw	a5,0(a5)
     688:	00170713          	addi	a4,a4,1
     68c:	08078263          	beqz	a5,710 <core_bench_list+0x2f0>
     690:	0007a783          	lw	a5,0(a5)
     694:	00170713          	addi	a4,a4,1
     698:	06078c63          	beqz	a5,710 <core_bench_list+0x2f0>
     69c:	0007a783          	lw	a5,0(a5)
     6a0:	00170713          	addi	a4,a4,1
     6a4:	06078663          	beqz	a5,710 <core_bench_list+0x2f0>
     6a8:	07e75463          	bge	a4,t5,710 <core_bench_list+0x2f0>
     6ac:	0007a783          	lw	a5,0(a5)
     6b0:	00170713          	addi	a4,a4,1
     6b4:	00070593          	mv	a1,a4
     6b8:	04078c63          	beqz	a5,710 <core_bench_list+0x2f0>
     6bc:	0007a783          	lw	a5,0(a5)
     6c0:	00170713          	addi	a4,a4,1
     6c4:	04078663          	beqz	a5,710 <core_bench_list+0x2f0>
     6c8:	0007a783          	lw	a5,0(a5)
     6cc:	00258713          	addi	a4,a1,2
     6d0:	04078063          	beqz	a5,710 <core_bench_list+0x2f0>
     6d4:	0007a783          	lw	a5,0(a5)
     6d8:	00358713          	addi	a4,a1,3
     6dc:	02078a63          	beqz	a5,710 <core_bench_list+0x2f0>
     6e0:	0007a783          	lw	a5,0(a5)
     6e4:	00458713          	addi	a4,a1,4
     6e8:	02078463          	beqz	a5,710 <core_bench_list+0x2f0>
     6ec:	0007a783          	lw	a5,0(a5)
     6f0:	00558713          	addi	a4,a1,5
     6f4:	00078e63          	beqz	a5,710 <core_bench_list+0x2f0>
     6f8:	0007a783          	lw	a5,0(a5)
     6fc:	00658713          	addi	a4,a1,6
     700:	00078863          	beqz	a5,710 <core_bench_list+0x2f0>
     704:	0007a783          	lw	a5,0(a5)
     708:	00758713          	addi	a4,a1,7
     70c:	f8079ee3          	bnez	a5,6a8 <core_bench_list+0x288>
     710:	00068813          	mv	a6,a3
     714:	000f0593          	mv	a1,t5
     718:	00078693          	mv	a3,a5
     71c:	06e05c63          	blez	a4,794 <core_bench_list+0x374>
     720:	0c058263          	beqz	a1,7e4 <core_bench_list+0x3c4>
     724:	0c068063          	beqz	a3,7e4 <core_bench_list+0x3c4>
     728:	00482303          	lw	t1,4(a6)
     72c:	0046a883          	lw	a7,4(a3)
     730:	00031783          	lh	a5,0(t1)
     734:	00289e83          	lh	t4,2(a7)
     738:	00231503          	lh	a0,2(t1)
     73c:	01079e13          	slli	t3,a5,0x10
     740:	010e5e13          	srli	t3,t3,0x10
     744:	f007f793          	andi	a5,a5,-256
     748:	008e5e13          	srli	t3,t3,0x8
     74c:	01c7e7b3          	or	a5,a5,t3
     750:	00f31023          	sh	a5,0(t1)
     754:	00089783          	lh	a5,0(a7)
     758:	41d50533          	sub	a0,a0,t4
     75c:	01079313          	slli	t1,a5,0x10
     760:	01035313          	srli	t1,t1,0x10
     764:	f007f793          	andi	a5,a5,-256
     768:	00835313          	srli	t1,t1,0x8
     76c:	0067e7b3          	or	a5,a5,t1
     770:	00f89023          	sh	a5,0(a7)
     774:	08a05063          	blez	a0,7f4 <core_bench_list+0x3d4>
     778:	00068793          	mv	a5,a3
     77c:	0006a683          	lw	a3,0(a3)
     780:	fff58593          	addi	a1,a1,-1
     784:	02060663          	beqz	a2,7b0 <core_bench_list+0x390>
     788:	00f62023          	sw	a5,0(a2)
     78c:	00078613          	mv	a2,a5
     790:	f8e048e3          	bgtz	a4,720 <core_bench_list+0x300>
     794:	06b05863          	blez	a1,804 <core_bench_list+0x3e4>
     798:	06068863          	beqz	a3,808 <core_bench_list+0x3e8>
     79c:	f80716e3          	bnez	a4,728 <core_bench_list+0x308>
     7a0:	00068793          	mv	a5,a3
     7a4:	fff58593          	addi	a1,a1,-1
     7a8:	0006a683          	lw	a3,0(a3)
     7ac:	fc061ee3          	bnez	a2,788 <core_bench_list+0x368>
     7b0:	00078413          	mv	s0,a5
     7b4:	00078613          	mv	a2,a5
     7b8:	fd9ff06f          	j	790 <core_bench_list+0x370>
     7bc:	0044a783          	lw	a5,4(s1)
     7c0:	01412683          	lw	a3,20(sp)
     7c4:	0007c783          	lbu	a5,0(a5)
     7c8:	ded78ae3          	beq	a5,a3,5bc <core_bench_list+0x19c>
     7cc:	0004a483          	lw	s1,0(s1)
     7d0:	fe0496e3          	bnez	s1,7bc <core_bench_list+0x39c>
     7d4:	00042783          	lw	a5,0(s0)
     7d8:	00078493          	mv	s1,a5
     7dc:	de0790e3          	bnez	a5,5bc <core_bench_list+0x19c>
     7e0:	e01ff06f          	j	5e0 <core_bench_list+0x1c0>
     7e4:	00080793          	mv	a5,a6
     7e8:	fff70713          	addi	a4,a4,-1
     7ec:	00082803          	lw	a6,0(a6)
     7f0:	f95ff06f          	j	784 <core_bench_list+0x364>
     7f4:	00080793          	mv	a5,a6
     7f8:	fff70713          	addi	a4,a4,-1
     7fc:	00082803          	lw	a6,0(a6)
     800:	f85ff06f          	j	784 <core_bench_list+0x364>
     804:	e00696e3          	bnez	a3,610 <core_bench_list+0x1f0>
     808:	00062023          	sw	zero,0(a2)
     80c:	41f2dc63          	bge	t0,t6,c24 <core_bench_list+0x804>
     810:	001f1f13          	slli	t5,t5,0x1
     814:	de0416e3          	bnez	s0,600 <core_bench_list+0x1e0>
     818:	4510006f          	j	1468 <core_bench_list.cold+0x10>
     81c:	02040463          	beqz	s0,844 <core_bench_list+0x424>
     820:	00040793          	mv	a5,s0
     824:	00c0006f          	j	830 <core_bench_list+0x410>
     828:	0007a783          	lw	a5,0(a5)
     82c:	c80786e3          	beqz	a5,4b8 <core_bench_list+0x98>
     830:	0047a703          	lw	a4,4(a5)
     834:	01412683          	lw	a3,20(sp)
     838:	00074703          	lbu	a4,0(a4)
     83c:	fed716e3          	bne	a4,a3,828 <core_bench_list+0x408>
     840:	c79ff06f          	j	4b8 <core_bench_list+0x98>
     844:	4150006f          	j	1458 <core_bench_list.cold>
     848:	00042783          	lw	a5,0(s0)
     84c:	00188993          	addi	s3,a7,1
     850:	01099893          	slli	a7,s3,0x10
     854:	0047a783          	lw	a5,4(a5)
     858:	0108d893          	srli	a7,a7,0x10
     85c:	00178983          	lb	s3,1(a5)
     860:	0019f993          	andi	s3,s3,1
     864:	010989b3          	add	s3,s3,a6
     868:	01099813          	slli	a6,s3,0x10
     86c:	01085813          	srli	a6,a6,0x10
     870:	cb5ff06f          	j	524 <core_bench_list+0x104>
     874:	028d0793          	addi	a5,s10,40
     878:	00100a13          	li	s4,1
     87c:	00f12c23          	sw	a5,24(sp)
     880:	1a040263          	beqz	s0,a24 <core_bench_list+0x604>
     884:	00000c13          	li	s8,0
     888:	00000913          	li	s2,0
     88c:	00012823          	sw	zero,16(sp)
     890:	01012683          	lw	a3,16(sp)
     894:	007a7713          	andi	a4,s4,7
     898:	00040793          	mv	a5,s0
     89c:	00168693          	addi	a3,a3,1
     8a0:	00d12823          	sw	a3,16(sp)
     8a4:	00000993          	li	s3,0
     8a8:	08070463          	beqz	a4,930 <core_bench_list+0x510>
     8ac:	0f49d663          	bge	s3,s4,998 <core_bench_list+0x578>
     8b0:	00042783          	lw	a5,0(s0)
     8b4:	00200693          	li	a3,2
     8b8:	00300613          	li	a2,3
     8bc:	00400593          	li	a1,4
     8c0:	00100993          	li	s3,1
     8c4:	0c078a63          	beqz	a5,998 <core_bench_list+0x578>
     8c8:	07370463          	beq	a4,s3,930 <core_bench_list+0x510>
     8cc:	04d70c63          	beq	a4,a3,924 <core_bench_list+0x504>
     8d0:	04c70463          	beq	a4,a2,918 <core_bench_list+0x4f8>
     8d4:	02b70c63          	beq	a4,a1,90c <core_bench_list+0x4ec>
     8d8:	00500693          	li	a3,5
     8dc:	02d70263          	beq	a4,a3,900 <core_bench_list+0x4e0>
     8e0:	00600693          	li	a3,6
     8e4:	00d70863          	beq	a4,a3,8f4 <core_bench_list+0x4d4>
     8e8:	0007a783          	lw	a5,0(a5)
     8ec:	00200993          	li	s3,2
     8f0:	0a078463          	beqz	a5,998 <core_bench_list+0x578>
     8f4:	0007a783          	lw	a5,0(a5)
     8f8:	00198993          	addi	s3,s3,1
     8fc:	08078e63          	beqz	a5,998 <core_bench_list+0x578>
     900:	0007a783          	lw	a5,0(a5)
     904:	00198993          	addi	s3,s3,1
     908:	08078863          	beqz	a5,998 <core_bench_list+0x578>
     90c:	0007a783          	lw	a5,0(a5)
     910:	00198993          	addi	s3,s3,1
     914:	08078263          	beqz	a5,998 <core_bench_list+0x578>
     918:	0007a783          	lw	a5,0(a5)
     91c:	00198993          	addi	s3,s3,1
     920:	06078c63          	beqz	a5,998 <core_bench_list+0x578>
     924:	0007a783          	lw	a5,0(a5)
     928:	00198993          	addi	s3,s3,1
     92c:	06078663          	beqz	a5,998 <core_bench_list+0x578>
     930:	0749d463          	bge	s3,s4,998 <core_bench_list+0x578>
     934:	0007a783          	lw	a5,0(a5)
     938:	00198993          	addi	s3,s3,1
     93c:	00098713          	mv	a4,s3
     940:	04078c63          	beqz	a5,998 <core_bench_list+0x578>
     944:	0007a783          	lw	a5,0(a5)
     948:	00198993          	addi	s3,s3,1
     94c:	04078663          	beqz	a5,998 <core_bench_list+0x578>
     950:	0007a783          	lw	a5,0(a5)
     954:	00270993          	addi	s3,a4,2
     958:	04078063          	beqz	a5,998 <core_bench_list+0x578>
     95c:	0007a783          	lw	a5,0(a5)
     960:	00370993          	addi	s3,a4,3
     964:	02078a63          	beqz	a5,998 <core_bench_list+0x578>
     968:	0007a783          	lw	a5,0(a5)
     96c:	00470993          	addi	s3,a4,4
     970:	02078463          	beqz	a5,998 <core_bench_list+0x578>
     974:	0007a783          	lw	a5,0(a5)
     978:	00570993          	addi	s3,a4,5
     97c:	00078e63          	beqz	a5,998 <core_bench_list+0x578>
     980:	0007a783          	lw	a5,0(a5)
     984:	00670993          	addi	s3,a4,6
     988:	00078863          	beqz	a5,998 <core_bench_list+0x578>
     98c:	0007a783          	lw	a5,0(a5)
     990:	00770993          	addi	s3,a4,7
     994:	f8079ee3          	bnez	a5,930 <core_bench_list+0x510>
     998:	00040c93          	mv	s9,s0
     99c:	000a0b93          	mv	s7,s4
     9a0:	00078413          	mv	s0,a5
     9a4:	05305c63          	blez	s3,9fc <core_bench_list+0x5dc>
     9a8:	080b8063          	beqz	s7,a28 <core_bench_list+0x608>
     9ac:	06040e63          	beqz	s0,a28 <core_bench_list+0x608>
     9b0:	004caa83          	lw	s5,4(s9)
     9b4:	00442d83          	lw	s11,4(s0)
     9b8:	000a9483          	lh	s1,0(s5)
     9bc:	0804f793          	andi	a5,s1,128
     9c0:	0e078063          	beqz	a5,aa0 <core_bench_list+0x680>
     9c4:	07f4fb13          	andi	s6,s1,127
     9c8:	000d9a83          	lh	s5,0(s11)
     9cc:	080af793          	andi	a5,s5,128
     9d0:	06078463          	beqz	a5,a38 <core_bench_list+0x618>
     9d4:	07faf493          	andi	s1,s5,127
     9d8:	409b04b3          	sub	s1,s6,s1
     9dc:	0a905a63          	blez	s1,a90 <core_bench_list+0x670>
     9e0:	00040793          	mv	a5,s0
     9e4:	00042403          	lw	s0,0(s0)
     9e8:	fffb8b93          	addi	s7,s7,-1
     9ec:	020c0663          	beqz	s8,a18 <core_bench_list+0x5f8>
     9f0:	00fc2023          	sw	a5,0(s8)
     9f4:	00078c13          	mv	s8,a5
     9f8:	fb3048e3          	bgtz	s3,9a8 <core_bench_list+0x588>
     9fc:	0f705c63          	blez	s7,af4 <core_bench_list+0x6d4>
     a00:	0e040c63          	beqz	s0,af8 <core_bench_list+0x6d8>
     a04:	fa0996e3          	bnez	s3,9b0 <core_bench_list+0x590>
     a08:	00040793          	mv	a5,s0
     a0c:	fffb8b93          	addi	s7,s7,-1
     a10:	00042403          	lw	s0,0(s0)
     a14:	fc0c1ee3          	bnez	s8,9f0 <core_bench_list+0x5d0>
     a18:	00078913          	mv	s2,a5
     a1c:	00078c13          	mv	s8,a5
     a20:	fd9ff06f          	j	9f8 <core_bench_list+0x5d8>
     a24:	23d0006f          	j	1460 <core_bench_list.cold+0x8>
     a28:	000c8793          	mv	a5,s9
     a2c:	fff98993          	addi	s3,s3,-1
     a30:	000cac83          	lw	s9,0(s9)
     a34:	fb9ff06f          	j	9ec <core_bench_list+0x5cc>
     a38:	403ad593          	srai	a1,s5,0x3
     a3c:	00f5f593          	andi	a1,a1,15
     a40:	00459693          	slli	a3,a1,0x4
     a44:	007af713          	andi	a4,s5,7
     a48:	038d5783          	lhu	a5,56(s10)
     a4c:	00d5e5b3          	or	a1,a1,a3
     a50:	0e070463          	beqz	a4,b38 <core_bench_list+0x718>
     a54:	00100693          	li	a3,1
     a58:	0ad70e63          	beq	a4,a3,b14 <core_bench_list+0x6f4>
     a5c:	010a9513          	slli	a0,s5,0x10
     a60:	000a8493          	mv	s1,s5
     a64:	01055513          	srli	a0,a0,0x10
     a68:	00078593          	mv	a1,a5
     a6c:	564070ef          	jal	ra,7fd0 <crcu16>
     a70:	07f4f493          	andi	s1,s1,127
     a74:	f00afe93          	andi	t4,s5,-256
     a78:	01d4eeb3          	or	t4,s1,t4
     a7c:	02ad1c23          	sh	a0,56(s10)
     a80:	080eee93          	ori	t4,t4,128
     a84:	01dd9023          	sh	t4,0(s11)
     a88:	409b04b3          	sub	s1,s6,s1
     a8c:	f4904ae3          	bgtz	s1,9e0 <core_bench_list+0x5c0>
     a90:	000c8793          	mv	a5,s9
     a94:	fff98993          	addi	s3,s3,-1
     a98:	000cac83          	lw	s9,0(s9)
     a9c:	f51ff06f          	j	9ec <core_bench_list+0x5cc>
     aa0:	4034d593          	srai	a1,s1,0x3
     aa4:	00f5f593          	andi	a1,a1,15
     aa8:	00459693          	slli	a3,a1,0x4
     aac:	0074f713          	andi	a4,s1,7
     ab0:	038d5783          	lhu	a5,56(s10)
     ab4:	00d5e5b3          	or	a1,a1,a3
     ab8:	0e070263          	beqz	a4,b9c <core_bench_list+0x77c>
     abc:	00100693          	li	a3,1
     ac0:	0ad70c63          	beq	a4,a3,b78 <core_bench_list+0x758>
     ac4:	01049513          	slli	a0,s1,0x10
     ac8:	00048b13          	mv	s6,s1
     acc:	01055513          	srli	a0,a0,0x10
     ad0:	00078593          	mv	a1,a5
     ad4:	4fc070ef          	jal	ra,7fd0 <crcu16>
     ad8:	07fb7b13          	andi	s6,s6,127
     adc:	f004fe93          	andi	t4,s1,-256
     ae0:	01db6eb3          	or	t4,s6,t4
     ae4:	02ad1c23          	sh	a0,56(s10)
     ae8:	080eee93          	ori	t4,t4,128
     aec:	01da9023          	sh	t4,0(s5)
     af0:	ed9ff06f          	j	9c8 <core_bench_list+0x5a8>
     af4:	d8041ee3          	bnez	s0,890 <core_bench_list+0x470>
     af8:	01012703          	lw	a4,16(sp)
     afc:	000c2023          	sw	zero,0(s8)
     b00:	00100793          	li	a5,1
     b04:	10e7d663          	bge	a5,a4,c10 <core_bench_list+0x7f0>
     b08:	00090413          	mv	s0,s2
     b0c:	001a1a13          	slli	s4,s4,0x1
     b10:	d71ff06f          	j	880 <core_bench_list+0x460>
     b14:	01812503          	lw	a0,24(sp)
     b18:	00078613          	mv	a2,a5
     b1c:	594010ef          	jal	ra,20b0 <core_bench_matrix>
     b20:	03cd5783          	lhu	a5,60(s10)
     b24:	01051493          	slli	s1,a0,0x10
     b28:	4104d493          	srai	s1,s1,0x10
     b2c:	0a078863          	beqz	a5,bdc <core_bench_list+0x7bc>
     b30:	038d5783          	lhu	a5,56(s10)
     b34:	f35ff06f          	j	a68 <core_bench_list+0x648>
     b38:	02200693          	li	a3,34
     b3c:	00058713          	mv	a4,a1
     b40:	00d5d463          	bge	a1,a3,b48 <core_bench_list+0x728>
     b44:	02200713          	li	a4,34
     b48:	002d1683          	lh	a3,2(s10)
     b4c:	000d1603          	lh	a2,0(s10)
     b50:	014d2583          	lw	a1,20(s10)
     b54:	018d2503          	lw	a0,24(s10)
     b58:	0ff77713          	zext.b	a4,a4
     b5c:	475050ef          	jal	ra,67d0 <core_bench_state>
     b60:	03ed5783          	lhu	a5,62(s10)
     b64:	01051493          	slli	s1,a0,0x10
     b68:	4104d493          	srai	s1,s1,0x10
     b6c:	08078463          	beqz	a5,bf4 <core_bench_list+0x7d4>
     b70:	038d5783          	lhu	a5,56(s10)
     b74:	ef5ff06f          	j	a68 <core_bench_list+0x648>
     b78:	01812503          	lw	a0,24(sp)
     b7c:	00078613          	mv	a2,a5
     b80:	530010ef          	jal	ra,20b0 <core_bench_matrix>
     b84:	03cd5783          	lhu	a5,60(s10)
     b88:	01051b13          	slli	s6,a0,0x10
     b8c:	410b5b13          	srai	s6,s6,0x10
     b90:	06078863          	beqz	a5,c00 <core_bench_list+0x7e0>
     b94:	038d5783          	lhu	a5,56(s10)
     b98:	f39ff06f          	j	ad0 <core_bench_list+0x6b0>
     b9c:	02200693          	li	a3,34
     ba0:	00058713          	mv	a4,a1
     ba4:	00d5d463          	bge	a1,a3,bac <core_bench_list+0x78c>
     ba8:	02200713          	li	a4,34
     bac:	002d1683          	lh	a3,2(s10)
     bb0:	000d1603          	lh	a2,0(s10)
     bb4:	014d2583          	lw	a1,20(s10)
     bb8:	018d2503          	lw	a0,24(s10)
     bbc:	0ff77713          	zext.b	a4,a4
     bc0:	411050ef          	jal	ra,67d0 <core_bench_state>
     bc4:	03ed5783          	lhu	a5,62(s10)
     bc8:	01051b13          	slli	s6,a0,0x10
     bcc:	410b5b13          	srai	s6,s6,0x10
     bd0:	00078c63          	beqz	a5,be8 <core_bench_list+0x7c8>
     bd4:	038d5783          	lhu	a5,56(s10)
     bd8:	ef9ff06f          	j	ad0 <core_bench_list+0x6b0>
     bdc:	038d5783          	lhu	a5,56(s10)
     be0:	02ad1e23          	sh	a0,60(s10)
     be4:	e85ff06f          	j	a68 <core_bench_list+0x648>
     be8:	038d5783          	lhu	a5,56(s10)
     bec:	02ad1f23          	sh	a0,62(s10)
     bf0:	ee1ff06f          	j	ad0 <core_bench_list+0x6b0>
     bf4:	038d5783          	lhu	a5,56(s10)
     bf8:	02ad1f23          	sh	a0,62(s10)
     bfc:	e6dff06f          	j	a68 <core_bench_list+0x648>
     c00:	038d5783          	lhu	a5,56(s10)
     c04:	02ad1e23          	sh	a0,60(s10)
     c08:	ec9ff06f          	j	ad0 <core_bench_list+0x6b0>
     c0c:	04d0006f          	j	1458 <core_bench_list.cold>
     c10:	00090413          	mv	s0,s2
     c14:	955ff06f          	j	568 <core_bench_list+0x148>
     c18:	00b12623          	sw	a1,12(sp)
     c1c:	00012e23          	sw	zero,28(sp)
     c20:	945ff06f          	j	564 <core_bench_list+0x144>
     c24:	00042483          	lw	s1,0(s0)
     c28:	04048e63          	beqz	s1,c84 <core_bench_list+0x864>
     c2c:	00442783          	lw	a5,4(s0)
     c30:	01c12583          	lw	a1,28(sp)
     c34:	00079503          	lh	a0,0(a5)
     c38:	349070ef          	jal	ra,8780 <crc16>
     c3c:	0004a483          	lw	s1,0(s1)
     c40:	00a12e23          	sw	a0,28(sp)
     c44:	fe0494e3          	bnez	s1,c2c <core_bench_list+0x80c>
     c48:	05c12083          	lw	ra,92(sp)
     c4c:	05812403          	lw	s0,88(sp)
     c50:	05412483          	lw	s1,84(sp)
     c54:	05012903          	lw	s2,80(sp)
     c58:	04c12983          	lw	s3,76(sp)
     c5c:	04812a03          	lw	s4,72(sp)
     c60:	04412a83          	lw	s5,68(sp)
     c64:	04012b03          	lw	s6,64(sp)
     c68:	03c12b83          	lw	s7,60(sp)
     c6c:	03812c03          	lw	s8,56(sp)
     c70:	03412c83          	lw	s9,52(sp)
     c74:	03012d03          	lw	s10,48(sp)
     c78:	02c12d83          	lw	s11,44(sp)
     c7c:	06010113          	addi	sp,sp,96
     c80:	00008067          	ret
     c84:	01c12503          	lw	a0,28(sp)
     c88:	fc1ff06f          	j	c48 <core_bench_list+0x828>
     c8c:	00000013          	nop

00000c90 <core_list_init>:
     c90:	01400693          	li	a3,20
     c94:	02d556b3          	divu	a3,a0,a3
     c98:	0005a023          	sw	zero,0(a1)
     c9c:	00058513          	mv	a0,a1
     ca0:	01058793          	addi	a5,a1,16
     ca4:	00858713          	addi	a4,a1,8
     ca8:	00060313          	mv	t1,a2
     cac:	ffff8837          	lui	a6,0xffff8
     cb0:	08080893          	addi	a7,a6,128 # ffff8080 <_stack+0xfffb8080>
     cb4:	ffe68593          	addi	a1,a3,-2
     cb8:	00359613          	slli	a2,a1,0x3
     cbc:	00c50633          	add	a2,a0,a2
     cc0:	00c52223          	sw	a2,4(a0)
     cc4:	00259e13          	slli	t3,a1,0x2
     cc8:	01161023          	sh	a7,0(a2)
     ccc:	00061123          	sh	zero,2(a2)
     cd0:	01c60e33          	add	t3,a2,t3
     cd4:	00460893          	addi	a7,a2,4
     cd8:	3cc7fc63          	bgeu	a5,a2,10b0 <core_list_init+0x420>
     cdc:	00860693          	addi	a3,a2,8
     ce0:	3dc6f063          	bgeu	a3,t3,10a0 <core_list_init+0x410>
     ce4:	01152623          	sw	a7,12(a0)
     ce8:	00052423          	sw	zero,8(a0)
     cec:	00e52023          	sw	a4,0(a0)
     cf0:	fff84813          	not	a6,a6
     cf4:	fff00893          	li	a7,-1
     cf8:	01161223          	sh	a7,4(a2)
     cfc:	01061323          	sh	a6,6(a2)
     d00:	0c058a63          	beqz	a1,dd4 <core_list_init+0x144>
     d04:	01031f93          	slli	t6,t1,0x10
     d08:	ffff8eb7          	lui	t4,0xffff8
     d0c:	0015f893          	andi	a7,a1,1
     d10:	00000813          	li	a6,0
     d14:	010fdf93          	srli	t6,t6,0x10
     d18:	fffece93          	not	t4,t4
     d1c:	32089c63          	bnez	a7,1054 <core_list_init+0x3c4>
     d20:	01081f13          	slli	t5,a6,0x10
     d24:	010f5f13          	srli	t5,t5,0x10
     d28:	01efc8b3          	xor	a7,t6,t5
     d2c:	00389893          	slli	a7,a7,0x3
     d30:	007f7f13          	andi	t5,t5,7
     d34:	0788f893          	andi	a7,a7,120
     d38:	01e8e8b3          	or	a7,a7,t5
     d3c:	00889f13          	slli	t5,a7,0x8
     d40:	00878293          	addi	t0,a5,8
     d44:	011f68b3          	or	a7,t5,a7
     d48:	08c2f663          	bgeu	t0,a2,dd4 <core_list_init+0x144>
     d4c:	00468f13          	addi	t5,a3,4
     d50:	03cf7263          	bgeu	t5,t3,d74 <core_list_init+0xe4>
     d54:	00e7a023          	sw	a4,0(a5)
     d58:	00f52023          	sw	a5,0(a0)
     d5c:	00d7a223          	sw	a3,4(a5)
     d60:	00078713          	mv	a4,a5
     d64:	01169023          	sh	a7,0(a3)
     d68:	01d69123          	sh	t4,2(a3)
     d6c:	00028793          	mv	a5,t0
     d70:	000f0693          	mv	a3,t5
     d74:	00180813          	addi	a6,a6,1
     d78:	01081f13          	slli	t5,a6,0x10
     d7c:	010f5f13          	srli	t5,t5,0x10
     d80:	01efc8b3          	xor	a7,t6,t5
     d84:	00389893          	slli	a7,a7,0x3
     d88:	007f7f13          	andi	t5,t5,7
     d8c:	0788f893          	andi	a7,a7,120
     d90:	01e8e8b3          	or	a7,a7,t5
     d94:	00889f13          	slli	t5,a7,0x8
     d98:	00878293          	addi	t0,a5,8
     d9c:	011f68b3          	or	a7,t5,a7
     da0:	02c2fa63          	bgeu	t0,a2,dd4 <core_list_init+0x144>
     da4:	00468f13          	addi	t5,a3,4
     da8:	03cf7263          	bgeu	t5,t3,dcc <core_list_init+0x13c>
     dac:	00e7a023          	sw	a4,0(a5)
     db0:	00f52023          	sw	a5,0(a0)
     db4:	00d7a223          	sw	a3,4(a5)
     db8:	01169023          	sh	a7,0(a3)
     dbc:	01d69123          	sh	t4,2(a3)
     dc0:	00078713          	mv	a4,a5
     dc4:	000f0693          	mv	a3,t5
     dc8:	00028793          	mv	a5,t0
     dcc:	00180813          	addi	a6,a6,1
     dd0:	f50598e3          	bne	a1,a6,d20 <core_list_init+0x90>
     dd4:	00072603          	lw	a2,0(a4)
     dd8:	06060c63          	beqz	a2,e50 <core_list_init+0x1c0>
     ddc:	00500893          	li	a7,5
     de0:	00004e37          	lui	t3,0x4
     de4:	0315d8b3          	divu	a7,a1,a7
     de8:	20000793          	li	a5,512
     dec:	00100693          	li	a3,1
     df0:	fffe0e13          	addi	t3,t3,-1 # 3fff <matrix_test+0x4ff>
     df4:	0280006f          	j	e1c <core_list_init+0x18c>
     df8:	00062583          	lw	a1,0(a2)
     dfc:	10078793          	addi	a5,a5,256
     e00:	00d81123          	sh	a3,2(a6)
     e04:	01079793          	slli	a5,a5,0x10
     e08:	00168693          	addi	a3,a3,1
     e0c:	0107d793          	srli	a5,a5,0x10
     e10:	04058063          	beqz	a1,e50 <core_list_init+0x1c0>
     e14:	00060713          	mv	a4,a2
     e18:	00058613          	mv	a2,a1
     e1c:	00472803          	lw	a6,4(a4)
     e20:	fd16ece3          	bltu	a3,a7,df8 <core_list_init+0x168>
     e24:	00d345b3          	xor	a1,t1,a3
     e28:	7007f713          	andi	a4,a5,1792
     e2c:	00b76733          	or	a4,a4,a1
     e30:	00062583          	lw	a1,0(a2)
     e34:	01c77733          	and	a4,a4,t3
     e38:	10078793          	addi	a5,a5,256
     e3c:	01079793          	slli	a5,a5,0x10
     e40:	00e81123          	sh	a4,2(a6)
     e44:	00168693          	addi	a3,a3,1
     e48:	0107d793          	srli	a5,a5,0x10
     e4c:	fc0594e3          	bnez	a1,e14 <core_list_init+0x184>
     e50:	00100f93          	li	t6,1
     e54:	00100393          	li	t2,1
     e58:	00050793          	mv	a5,a0
     e5c:	00000293          	li	t0,0
     e60:	00000813          	li	a6,0
     e64:	00000513          	li	a0,0
     e68:	007ff613          	andi	a2,t6,7
     e6c:	00078693          	mv	a3,a5
     e70:	00000713          	li	a4,0
     e74:	00128293          	addi	t0,t0,1
     e78:	08060463          	beqz	a2,f00 <core_list_init+0x270>
     e7c:	0ff75663          	bge	a4,t6,f68 <core_list_init+0x2d8>
     e80:	0007a683          	lw	a3,0(a5)
     e84:	00100713          	li	a4,1
     e88:	0e068063          	beqz	a3,f68 <core_list_init+0x2d8>
     e8c:	06e60a63          	beq	a2,a4,f00 <core_list_init+0x270>
     e90:	00200593          	li	a1,2
     e94:	06b60063          	beq	a2,a1,ef4 <core_list_init+0x264>
     e98:	00300593          	li	a1,3
     e9c:	04b60663          	beq	a2,a1,ee8 <core_list_init+0x258>
     ea0:	00400593          	li	a1,4
     ea4:	02b60c63          	beq	a2,a1,edc <core_list_init+0x24c>
     ea8:	00500593          	li	a1,5
     eac:	02b60263          	beq	a2,a1,ed0 <core_list_init+0x240>
     eb0:	00600593          	li	a1,6
     eb4:	00b60863          	beq	a2,a1,ec4 <core_list_init+0x234>
     eb8:	0006a683          	lw	a3,0(a3)
     ebc:	00200713          	li	a4,2
     ec0:	0a068463          	beqz	a3,f68 <core_list_init+0x2d8>
     ec4:	0006a683          	lw	a3,0(a3)
     ec8:	00170713          	addi	a4,a4,1
     ecc:	08068e63          	beqz	a3,f68 <core_list_init+0x2d8>
     ed0:	0006a683          	lw	a3,0(a3)
     ed4:	00170713          	addi	a4,a4,1
     ed8:	08068863          	beqz	a3,f68 <core_list_init+0x2d8>
     edc:	0006a683          	lw	a3,0(a3)
     ee0:	00170713          	addi	a4,a4,1
     ee4:	08068263          	beqz	a3,f68 <core_list_init+0x2d8>
     ee8:	0006a683          	lw	a3,0(a3)
     eec:	00170713          	addi	a4,a4,1
     ef0:	06068c63          	beqz	a3,f68 <core_list_init+0x2d8>
     ef4:	0006a683          	lw	a3,0(a3)
     ef8:	00170713          	addi	a4,a4,1
     efc:	06068663          	beqz	a3,f68 <core_list_init+0x2d8>
     f00:	07f75463          	bge	a4,t6,f68 <core_list_init+0x2d8>
     f04:	0006a683          	lw	a3,0(a3)
     f08:	00170713          	addi	a4,a4,1
     f0c:	00070613          	mv	a2,a4
     f10:	04068c63          	beqz	a3,f68 <core_list_init+0x2d8>
     f14:	0006a683          	lw	a3,0(a3)
     f18:	00170713          	addi	a4,a4,1
     f1c:	04068663          	beqz	a3,f68 <core_list_init+0x2d8>
     f20:	0006a683          	lw	a3,0(a3)
     f24:	00260713          	addi	a4,a2,2
     f28:	04068063          	beqz	a3,f68 <core_list_init+0x2d8>
     f2c:	0006a683          	lw	a3,0(a3)
     f30:	00360713          	addi	a4,a2,3
     f34:	02068a63          	beqz	a3,f68 <core_list_init+0x2d8>
     f38:	0006a683          	lw	a3,0(a3)
     f3c:	00460713          	addi	a4,a2,4
     f40:	02068463          	beqz	a3,f68 <core_list_init+0x2d8>
     f44:	0006a683          	lw	a3,0(a3)
     f48:	00560713          	addi	a4,a2,5
     f4c:	00068e63          	beqz	a3,f68 <core_list_init+0x2d8>
     f50:	0006a683          	lw	a3,0(a3)
     f54:	00660713          	addi	a4,a2,6
     f58:	00068863          	beqz	a3,f68 <core_list_init+0x2d8>
     f5c:	0006a683          	lw	a3,0(a3)
     f60:	00760713          	addi	a4,a2,7
     f64:	f8069ee3          	bnez	a3,f00 <core_list_init+0x270>
     f68:	00078593          	mv	a1,a5
     f6c:	000f8613          	mv	a2,t6
     f70:	00068793          	mv	a5,a3
     f74:	06e05c63          	blez	a4,fec <core_list_init+0x35c>
     f78:	08060e63          	beqz	a2,1014 <core_list_init+0x384>
     f7c:	08078c63          	beqz	a5,1014 <core_list_init+0x384>
     f80:	0045ae03          	lw	t3,4(a1)
     f84:	0047a303          	lw	t1,4(a5)
     f88:	000e1683          	lh	a3,0(t3)
     f8c:	00231f03          	lh	t5,2(t1)
     f90:	002e1883          	lh	a7,2(t3)
     f94:	01069e93          	slli	t4,a3,0x10
     f98:	010ede93          	srli	t4,t4,0x10
     f9c:	f006f693          	andi	a3,a3,-256
     fa0:	008ede93          	srli	t4,t4,0x8
     fa4:	01d6e6b3          	or	a3,a3,t4
     fa8:	00de1023          	sh	a3,0(t3)
     fac:	00031683          	lh	a3,0(t1)
     fb0:	41e888b3          	sub	a7,a7,t5
     fb4:	01069e13          	slli	t3,a3,0x10
     fb8:	010e5e13          	srli	t3,t3,0x10
     fbc:	f006f693          	andi	a3,a3,-256
     fc0:	008e5e13          	srli	t3,t3,0x8
     fc4:	01c6e6b3          	or	a3,a3,t3
     fc8:	00d31023          	sh	a3,0(t1)
     fcc:	05105c63          	blez	a7,1024 <core_list_init+0x394>
     fd0:	00078693          	mv	a3,a5
     fd4:	0007a783          	lw	a5,0(a5)
     fd8:	fff60613          	addi	a2,a2,-1
     fdc:	02080663          	beqz	a6,1008 <core_list_init+0x378>
     fe0:	00d82023          	sw	a3,0(a6)
     fe4:	00068813          	mv	a6,a3
     fe8:	f8e048e3          	bgtz	a4,f78 <core_list_init+0x2e8>
     fec:	04c05463          	blez	a2,1034 <core_list_init+0x3a4>
     ff0:	04078463          	beqz	a5,1038 <core_list_init+0x3a8>
     ff4:	f80716e3          	bnez	a4,f80 <core_list_init+0x2f0>
     ff8:	00078693          	mv	a3,a5
     ffc:	fff60613          	addi	a2,a2,-1
    1000:	0007a783          	lw	a5,0(a5)
    1004:	fc081ee3          	bnez	a6,fe0 <core_list_init+0x350>
    1008:	00068513          	mv	a0,a3
    100c:	00068813          	mv	a6,a3
    1010:	fd9ff06f          	j	fe8 <core_list_init+0x358>
    1014:	00058693          	mv	a3,a1
    1018:	fff70713          	addi	a4,a4,-1
    101c:	0005a583          	lw	a1,0(a1)
    1020:	fbdff06f          	j	fdc <core_list_init+0x34c>
    1024:	00058693          	mv	a3,a1
    1028:	fff70713          	addi	a4,a4,-1
    102c:	0005a583          	lw	a1,0(a1)
    1030:	fadff06f          	j	fdc <core_list_init+0x34c>
    1034:	e2079ae3          	bnez	a5,e68 <core_list_init+0x1d8>
    1038:	00082023          	sw	zero,0(a6)
    103c:	0053da63          	bge	t2,t0,1050 <core_list_init+0x3c0>
    1040:	001f9f93          	slli	t6,t6,0x1
    1044:	e0051ae3          	bnez	a0,e58 <core_list_init+0x1c8>
    1048:	00002023          	sw	zero,0(zero) # 0 <_start>
    104c:	00100073          	ebreak
    1050:	00008067          	ret
    1054:	003f9813          	slli	a6,t6,0x3
    1058:	07887813          	andi	a6,a6,120
    105c:	00881893          	slli	a7,a6,0x8
    1060:	00878f13          	addi	t5,a5,8
    1064:	0108e833          	or	a6,a7,a6
    1068:	d6cf76e3          	bgeu	t5,a2,dd4 <core_list_init+0x144>
    106c:	00468893          	addi	a7,a3,4
    1070:	03c8f263          	bgeu	a7,t3,1094 <core_list_init+0x404>
    1074:	00e7a023          	sw	a4,0(a5)
    1078:	00f52023          	sw	a5,0(a0)
    107c:	00d7a223          	sw	a3,4(a5)
    1080:	01069023          	sh	a6,0(a3)
    1084:	01d69123          	sh	t4,2(a3)
    1088:	00078713          	mv	a4,a5
    108c:	00088693          	mv	a3,a7
    1090:	000f0793          	mv	a5,t5
    1094:	00100813          	li	a6,1
    1098:	c90594e3          	bne	a1,a6,d20 <core_list_init+0x90>
    109c:	d39ff06f          	j	dd4 <core_list_init+0x144>
    10a0:	00070793          	mv	a5,a4
    10a4:	00088693          	mv	a3,a7
    10a8:	00000713          	li	a4,0
    10ac:	c55ff06f          	j	d00 <core_list_init+0x70>
    10b0:	00070793          	mv	a5,a4
    10b4:	00088693          	mv	a3,a7
    10b8:	00000713          	li	a4,0
    10bc:	c45ff06f          	j	d00 <core_list_init+0x70>

000010c0 <core_list_insert_new>:
    10c0:	00062803          	lw	a6,0(a2)
    10c4:	00880893          	addi	a7,a6,8
    10c8:	04e8f663          	bgeu	a7,a4,1114 <core_list_insert_new+0x54>
    10cc:	0006a703          	lw	a4,0(a3)
    10d0:	00470313          	addi	t1,a4,4
    10d4:	04f37663          	bgeu	t1,a5,1120 <core_list_insert_new+0x60>
    10d8:	01162023          	sw	a7,0(a2)
    10dc:	00052783          	lw	a5,0(a0)
    10e0:	00059883          	lh	a7,0(a1)
    10e4:	00259603          	lh	a2,2(a1)
    10e8:	00f82023          	sw	a5,0(a6)
    10ec:	01052023          	sw	a6,0(a0)
    10f0:	00e82223          	sw	a4,4(a6)
    10f4:	0006a783          	lw	a5,0(a3)
    10f8:	00080513          	mv	a0,a6
    10fc:	00478793          	addi	a5,a5,4
    1100:	00f6a023          	sw	a5,0(a3)
    1104:	00482783          	lw	a5,4(a6)
    1108:	01179023          	sh	a7,0(a5)
    110c:	00c79123          	sh	a2,2(a5)
    1110:	00008067          	ret
    1114:	00000813          	li	a6,0
    1118:	00080513          	mv	a0,a6
    111c:	00008067          	ret
    1120:	00000813          	li	a6,0
    1124:	00080513          	mv	a0,a6
    1128:	00008067          	ret
    112c:	00000013          	nop

00001130 <core_list_remove>:
    1130:	00050793          	mv	a5,a0
    1134:	00052503          	lw	a0,0(a0)
    1138:	0047a683          	lw	a3,4(a5)
    113c:	00452603          	lw	a2,4(a0)
    1140:	00052703          	lw	a4,0(a0)
    1144:	00c7a223          	sw	a2,4(a5)
    1148:	00d52223          	sw	a3,4(a0)
    114c:	00e7a023          	sw	a4,0(a5)
    1150:	00052023          	sw	zero,0(a0)
    1154:	00008067          	ret
    1158:	00000013          	nop
    115c:	00000013          	nop

00001160 <core_list_undo_remove>:
    1160:	0045a603          	lw	a2,4(a1)
    1164:	00452683          	lw	a3,4(a0)
    1168:	0005a703          	lw	a4,0(a1)
    116c:	00c52223          	sw	a2,4(a0)
    1170:	00d5a223          	sw	a3,4(a1)
    1174:	00e52023          	sw	a4,0(a0)
    1178:	00a5a023          	sw	a0,0(a1)
    117c:	00008067          	ret

00001180 <core_list_find>:
    1180:	00259703          	lh	a4,2(a1)
    1184:	02074263          	bltz	a4,11a8 <core_list_find+0x28>
    1188:	00051863          	bnez	a0,1198 <core_list_find+0x18>
    118c:	0480006f          	j	11d4 <core_list_find+0x54>
    1190:	00052503          	lw	a0,0(a0)
    1194:	02050c63          	beqz	a0,11cc <core_list_find+0x4c>
    1198:	00452783          	lw	a5,4(a0)
    119c:	00279783          	lh	a5,2(a5)
    11a0:	fee798e3          	bne	a5,a4,1190 <core_list_find+0x10>
    11a4:	00008067          	ret
    11a8:	02050863          	beqz	a0,11d8 <core_list_find+0x58>
    11ac:	00059703          	lh	a4,0(a1)
    11b0:	00c0006f          	j	11bc <core_list_find+0x3c>
    11b4:	00052503          	lw	a0,0(a0)
    11b8:	00050c63          	beqz	a0,11d0 <core_list_find+0x50>
    11bc:	00452783          	lw	a5,4(a0)
    11c0:	0007c783          	lbu	a5,0(a5)
    11c4:	fee798e3          	bne	a5,a4,11b4 <core_list_find+0x34>
    11c8:	00008067          	ret
    11cc:	00000513          	li	a0,0
    11d0:	00008067          	ret
    11d4:	00008067          	ret
    11d8:	00000513          	li	a0,0
    11dc:	00008067          	ret

000011e0 <core_list_reverse>:
    11e0:	02050063          	beqz	a0,1200 <core_list_reverse+0x20>
    11e4:	00000713          	li	a4,0
    11e8:	0080006f          	j	11f0 <core_list_reverse+0x10>
    11ec:	00078513          	mv	a0,a5
    11f0:	00052783          	lw	a5,0(a0)
    11f4:	00e52023          	sw	a4,0(a0)
    11f8:	00050713          	mv	a4,a0
    11fc:	fe0798e3          	bnez	a5,11ec <core_list_reverse+0xc>
    1200:	00008067          	ret
    1204:	00000013          	nop
    1208:	00000013          	nop
    120c:	00000013          	nop

00001210 <core_list_mergesort>:
    1210:	fd010113          	addi	sp,sp,-48
    1214:	02912223          	sw	s1,36(sp)
    1218:	01612823          	sw	s6,16(sp)
    121c:	01712623          	sw	s7,12(sp)
    1220:	01912223          	sw	s9,4(sp)
    1224:	01a12023          	sw	s10,0(sp)
    1228:	02112623          	sw	ra,44(sp)
    122c:	02812423          	sw	s0,40(sp)
    1230:	03212023          	sw	s2,32(sp)
    1234:	01312e23          	sw	s3,28(sp)
    1238:	01412c23          	sw	s4,24(sp)
    123c:	01512a23          	sw	s5,20(sp)
    1240:	01812423          	sw	s8,8(sp)
    1244:	00050493          	mv	s1,a0
    1248:	00058b93          	mv	s7,a1
    124c:	00060d13          	mv	s10,a2
    1250:	00100b13          	li	s6,1
    1254:	00100c93          	li	s9,1
    1258:	1a048c63          	beqz	s1,1410 <core_list_mergesort+0x200>
    125c:	00000c13          	li	s8,0
    1260:	00000913          	li	s2,0
    1264:	00000a93          	li	s5,0
    1268:	007b7713          	andi	a4,s6,7
    126c:	00048793          	mv	a5,s1
    1270:	00000413          	li	s0,0
    1274:	001c0c13          	addi	s8,s8,1
    1278:	08070463          	beqz	a4,1300 <core_list_mergesort+0xf0>
    127c:	0f605663          	blez	s6,1368 <core_list_mergesort+0x158>
    1280:	0004a783          	lw	a5,0(s1)
    1284:	00100413          	li	s0,1
    1288:	0e078063          	beqz	a5,1368 <core_list_mergesort+0x158>
    128c:	06870a63          	beq	a4,s0,1300 <core_list_mergesort+0xf0>
    1290:	00200693          	li	a3,2
    1294:	06d70063          	beq	a4,a3,12f4 <core_list_mergesort+0xe4>
    1298:	00300693          	li	a3,3
    129c:	04d70663          	beq	a4,a3,12e8 <core_list_mergesort+0xd8>
    12a0:	00400693          	li	a3,4
    12a4:	02d70c63          	beq	a4,a3,12dc <core_list_mergesort+0xcc>
    12a8:	00500693          	li	a3,5
    12ac:	02d70263          	beq	a4,a3,12d0 <core_list_mergesort+0xc0>
    12b0:	00600693          	li	a3,6
    12b4:	00d70863          	beq	a4,a3,12c4 <core_list_mergesort+0xb4>
    12b8:	0007a783          	lw	a5,0(a5)
    12bc:	00200413          	li	s0,2
    12c0:	0a078463          	beqz	a5,1368 <core_list_mergesort+0x158>
    12c4:	0007a783          	lw	a5,0(a5)
    12c8:	00140413          	addi	s0,s0,1
    12cc:	08078e63          	beqz	a5,1368 <core_list_mergesort+0x158>
    12d0:	0007a783          	lw	a5,0(a5)
    12d4:	00140413          	addi	s0,s0,1
    12d8:	08078863          	beqz	a5,1368 <core_list_mergesort+0x158>
    12dc:	0007a783          	lw	a5,0(a5)
    12e0:	00140413          	addi	s0,s0,1
    12e4:	08078263          	beqz	a5,1368 <core_list_mergesort+0x158>
    12e8:	0007a783          	lw	a5,0(a5)
    12ec:	00140413          	addi	s0,s0,1
    12f0:	06078c63          	beqz	a5,1368 <core_list_mergesort+0x158>
    12f4:	0007a783          	lw	a5,0(a5)
    12f8:	00140413          	addi	s0,s0,1
    12fc:	06078663          	beqz	a5,1368 <core_list_mergesort+0x158>
    1300:	07645463          	bge	s0,s6,1368 <core_list_mergesort+0x158>
    1304:	0007a783          	lw	a5,0(a5)
    1308:	00140413          	addi	s0,s0,1
    130c:	00040713          	mv	a4,s0
    1310:	04078c63          	beqz	a5,1368 <core_list_mergesort+0x158>
    1314:	0007a783          	lw	a5,0(a5)
    1318:	00140413          	addi	s0,s0,1
    131c:	04078663          	beqz	a5,1368 <core_list_mergesort+0x158>
    1320:	0007a783          	lw	a5,0(a5)
    1324:	00270413          	addi	s0,a4,2
    1328:	04078063          	beqz	a5,1368 <core_list_mergesort+0x158>
    132c:	0007a783          	lw	a5,0(a5)
    1330:	00370413          	addi	s0,a4,3
    1334:	02078a63          	beqz	a5,1368 <core_list_mergesort+0x158>
    1338:	0007a783          	lw	a5,0(a5)
    133c:	00470413          	addi	s0,a4,4
    1340:	02078463          	beqz	a5,1368 <core_list_mergesort+0x158>
    1344:	0007a783          	lw	a5,0(a5)
    1348:	00570413          	addi	s0,a4,5
    134c:	00078e63          	beqz	a5,1368 <core_list_mergesort+0x158>
    1350:	0007a783          	lw	a5,0(a5)
    1354:	00670413          	addi	s0,a4,6
    1358:	00078863          	beqz	a5,1368 <core_list_mergesort+0x158>
    135c:	0007a783          	lw	a5,0(a5)
    1360:	00770413          	addi	s0,a4,7
    1364:	f8079ee3          	bnez	a5,1300 <core_list_mergesort+0xf0>
    1368:	00048a13          	mv	s4,s1
    136c:	000b0993          	mv	s3,s6
    1370:	00078493          	mv	s1,a5
    1374:	02805e63          	blez	s0,13b0 <core_list_mergesort+0x1a0>
    1378:	06098063          	beqz	s3,13d8 <core_list_mergesort+0x1c8>
    137c:	04048e63          	beqz	s1,13d8 <core_list_mergesort+0x1c8>
    1380:	0044a583          	lw	a1,4(s1)
    1384:	004a2503          	lw	a0,4(s4)
    1388:	000d0613          	mv	a2,s10
    138c:	000b80e7          	jalr	s7
    1390:	04a05c63          	blez	a0,13e8 <core_list_mergesort+0x1d8>
    1394:	00048793          	mv	a5,s1
    1398:	0004a483          	lw	s1,0(s1)
    139c:	fff98993          	addi	s3,s3,-1
    13a0:	02090663          	beqz	s2,13cc <core_list_mergesort+0x1bc>
    13a4:	00f92023          	sw	a5,0(s2)
    13a8:	00078913          	mv	s2,a5
    13ac:	fc8046e3          	bgtz	s0,1378 <core_list_mergesort+0x168>
    13b0:	05305463          	blez	s3,13f8 <core_list_mergesort+0x1e8>
    13b4:	04048463          	beqz	s1,13fc <core_list_mergesort+0x1ec>
    13b8:	fc0414e3          	bnez	s0,1380 <core_list_mergesort+0x170>
    13bc:	00048793          	mv	a5,s1
    13c0:	fff98993          	addi	s3,s3,-1
    13c4:	0004a483          	lw	s1,0(s1)
    13c8:	fc091ee3          	bnez	s2,13a4 <core_list_mergesort+0x194>
    13cc:	00078a93          	mv	s5,a5
    13d0:	00078913          	mv	s2,a5
    13d4:	fd9ff06f          	j	13ac <core_list_mergesort+0x19c>
    13d8:	000a0793          	mv	a5,s4
    13dc:	fff40413          	addi	s0,s0,-1
    13e0:	000a2a03          	lw	s4,0(s4)
    13e4:	fbdff06f          	j	13a0 <core_list_mergesort+0x190>
    13e8:	000a0793          	mv	a5,s4
    13ec:	fff40413          	addi	s0,s0,-1
    13f0:	000a2a03          	lw	s4,0(s4)
    13f4:	fadff06f          	j	13a0 <core_list_mergesort+0x190>
    13f8:	e60498e3          	bnez	s1,1268 <core_list_mergesort+0x58>
    13fc:	00092023          	sw	zero,0(s2)
    1400:	018cdc63          	bge	s9,s8,1418 <core_list_mergesort+0x208>
    1404:	000a8493          	mv	s1,s5
    1408:	001b1b13          	slli	s6,s6,0x1
    140c:	e4dff06f          	j	1258 <core_list_mergesort+0x48>
    1410:	00002023          	sw	zero,0(zero) # 0 <_start>
    1414:	00100073          	ebreak
    1418:	02c12083          	lw	ra,44(sp)
    141c:	02812403          	lw	s0,40(sp)
    1420:	02412483          	lw	s1,36(sp)
    1424:	02012903          	lw	s2,32(sp)
    1428:	01c12983          	lw	s3,28(sp)
    142c:	01812a03          	lw	s4,24(sp)
    1430:	01012b03          	lw	s6,16(sp)
    1434:	00c12b83          	lw	s7,12(sp)
    1438:	00812c03          	lw	s8,8(sp)
    143c:	00412c83          	lw	s9,4(sp)
    1440:	00012d03          	lw	s10,0(sp)
    1444:	000a8513          	mv	a0,s5
    1448:	01412a83          	lw	s5,20(sp)
    144c:	03010113          	addi	sp,sp,48
    1450:	00008067          	ret
    1454:	0000                	unimp
	...

00001458 <core_bench_list.cold>:
    1458:	00002783          	lw	a5,0(zero) # 0 <_start>
    145c:	00100073          	ebreak
    1460:	00002023          	sw	zero,0(zero) # 0 <_start>
    1464:	00100073          	ebreak
    1468:	00002023          	sw	zero,0(zero) # 0 <_start>
    146c:	00100073          	ebreak

00001470 <iterate>:
    1470:	ff010113          	addi	sp,sp,-16
    1474:	01212023          	sw	s2,0(sp)
    1478:	01c52903          	lw	s2,28(a0)
    147c:	00112623          	sw	ra,12(sp)
    1480:	00812423          	sw	s0,8(sp)
    1484:	00912223          	sw	s1,4(sp)
    1488:	02052c23          	sw	zero,56(a0)
    148c:	02052e23          	sw	zero,60(a0)
    1490:	04090463          	beqz	s2,14d8 <iterate+0x68>
    1494:	00050413          	mv	s0,a0
    1498:	00000493          	li	s1,0
    149c:	00100593          	li	a1,1
    14a0:	00040513          	mv	a0,s0
    14a4:	f7dfe0ef          	jal	ra,420 <core_bench_list>
    14a8:	03845583          	lhu	a1,56(s0)
    14ac:	325060ef          	jal	ra,7fd0 <crcu16>
    14b0:	02a41c23          	sh	a0,56(s0)
    14b4:	fff00593          	li	a1,-1
    14b8:	00040513          	mv	a0,s0
    14bc:	f65fe0ef          	jal	ra,420 <core_bench_list>
    14c0:	03845583          	lhu	a1,56(s0)
    14c4:	30d060ef          	jal	ra,7fd0 <crcu16>
    14c8:	02a41c23          	sh	a0,56(s0)
    14cc:	02048463          	beqz	s1,14f4 <iterate+0x84>
    14d0:	00148493          	addi	s1,s1,1
    14d4:	fc9914e3          	bne	s2,s1,149c <iterate+0x2c>
    14d8:	00c12083          	lw	ra,12(sp)
    14dc:	00812403          	lw	s0,8(sp)
    14e0:	00412483          	lw	s1,4(sp)
    14e4:	00012903          	lw	s2,0(sp)
    14e8:	00000513          	li	a0,0
    14ec:	01010113          	addi	sp,sp,16
    14f0:	00008067          	ret
    14f4:	02a41d23          	sh	a0,58(s0)
    14f8:	00100793          	li	a5,1
    14fc:	fcf90ee3          	beq	s2,a5,14d8 <iterate+0x68>
    1500:	00100493          	li	s1,1
    1504:	f99ff06f          	j	149c <iterate+0x2c>
	...

00001520 <main>:
    1520:	81010113          	addi	sp,sp,-2032
    1524:	7e112623          	sw	ra,2028(sp)
    1528:	00001737          	lui	a4,0x1
    152c:	7e812423          	sw	s0,2024(sp)
    1530:	7e912223          	sw	s1,2020(sp)
    1534:	7f212023          	sw	s2,2016(sp)
    1538:	7d312e23          	sw	s3,2012(sp)
    153c:	7d412c23          	sw	s4,2008(sp)
    1540:	7d512a23          	sw	s5,2004(sp)
    1544:	7d612823          	sw	s6,2000(sp)
    1548:	7d712623          	sw	s7,1996(sp)
    154c:	7d812423          	sw	s8,1992(sp)
    1550:	7d912223          	sw	s9,1988(sp)
    1554:	7da12023          	sw	s10,1984(sp)
    1558:	7bb12e23          	sw	s11,1980(sp)
    155c:	f8010113          	addi	sp,sp,-128
    1560:	82070693          	addi	a3,a4,-2016 # 820 <core_bench_list+0x400>
    1564:	01010513          	addi	a0,sp,16
    1568:	00a686b3          	add	a3,a3,a0
    156c:	fffff7b7          	lui	a5,0xfffff
    1570:	7e878613          	addi	a2,a5,2024 # fffff7e8 <_stack+0xfffbf7e8>
    1574:	7e478593          	addi	a1,a5,2020
    1578:	00f687b3          	add	a5,a3,a5
    157c:	00f12423          	sw	a5,8(sp)
    1580:	82070793          	addi	a5,a4,-2016
    1584:	00a787b3          	add	a5,a5,a0
    1588:	00c78633          	add	a2,a5,a2
    158c:	82070793          	addi	a5,a4,-2016
    1590:	00a787b3          	add	a5,a5,a0
    1594:	00b785b3          	add	a1,a5,a1
    1598:	00812783          	lw	a5,8(sp)
    159c:	05e10513          	addi	a0,sp,94
    15a0:	7e07a223          	sw	zero,2020(a5)
    15a4:	4ec070ef          	jal	ra,8a90 <portable_init>
    15a8:	00100513          	li	a0,1
    15ac:	065060ef          	jal	ra,7e10 <get_seed_32>
    15b0:	00812703          	lw	a4,8(sp)
    15b4:	00050793          	mv	a5,a0
    15b8:	00200513          	li	a0,2
    15bc:	7ef71623          	sh	a5,2028(a4)
    15c0:	051060ef          	jal	ra,7e10 <get_seed_32>
    15c4:	00812703          	lw	a4,8(sp)
    15c8:	00050793          	mv	a5,a0
    15cc:	00300513          	li	a0,3
    15d0:	7ef71723          	sh	a5,2030(a4)
    15d4:	03d060ef          	jal	ra,7e10 <get_seed_32>
    15d8:	00812703          	lw	a4,8(sp)
    15dc:	00050793          	mv	a5,a0
    15e0:	00400513          	li	a0,4
    15e4:	7ef71823          	sh	a5,2032(a4)
    15e8:	029060ef          	jal	ra,7e10 <get_seed_32>
    15ec:	00050793          	mv	a5,a0
    15f0:	00500513          	li	a0,5
    15f4:	02f12c23          	sw	a5,56(sp)
    15f8:	019060ef          	jal	ra,7e10 <get_seed_32>
    15fc:	060506e3          	beqz	a0,1e68 <main+0x948>
    1600:	02a12e23          	sw	a0,60(sp)
    1604:	00001737          	lui	a4,0x1
    1608:	82070713          	addi	a4,a4,-2016 # 820 <core_bench_list+0x400>
    160c:	01010693          	addi	a3,sp,16
    1610:	fffff7b7          	lui	a5,0xfffff
    1614:	00d70733          	add	a4,a4,a3
    1618:	00f707b3          	add	a5,a4,a5
    161c:	00f12423          	sw	a5,8(sp)
    1620:	7ec7a783          	lw	a5,2028(a5) # fffff7ec <_stack+0xfffbf7ec>
    1624:	00079863          	bnez	a5,1634 <main+0x114>
    1628:	00812783          	lw	a5,8(sp)
    162c:	7f079783          	lh	a5,2032(a5)
    1630:	0a0788e3          	beqz	a5,1ee0 <main+0x9c0>
    1634:	00001737          	lui	a4,0x1
    1638:	82070713          	addi	a4,a4,-2016 # 820 <core_bench_list+0x400>
    163c:	01010693          	addi	a3,sp,16
    1640:	00d70733          	add	a4,a4,a3
    1644:	fffff7b7          	lui	a5,0xfffff
    1648:	00f707b3          	add	a5,a4,a5
    164c:	7ec7a703          	lw	a4,2028(a5) # fffff7ec <_stack+0xfffbf7ec>
    1650:	00f12423          	sw	a5,8(sp)
    1654:	00100793          	li	a5,1
    1658:	0af700e3          	beq	a4,a5,1ef8 <main+0x9d8>
    165c:	03c12783          	lw	a5,60(sp)
    1660:	000015b7          	lui	a1,0x1
    1664:	82058593          	addi	a1,a1,-2016 # 820 <core_bench_list+0x400>
    1668:	01010513          	addi	a0,sp,16
    166c:	00a585b3          	add	a1,a1,a0
    1670:	fffff637          	lui	a2,0xfffff
    1674:	0027f713          	andi	a4,a5,2
    1678:	00c58633          	add	a2,a1,a2
    167c:	0017f893          	andi	a7,a5,1
    1680:	06010593          	addi	a1,sp,96
    1684:	00e036b3          	snez	a3,a4
    1688:	7eb62a23          	sw	a1,2036(a2) # fffff7f4 <_stack+0xfffbf7f4>
    168c:	00c12423          	sw	a2,8(sp)
    1690:	00d886b3          	add	a3,a7,a3
    1694:	04011e23          	sh	zero,92(sp)
    1698:	0047f593          	andi	a1,a5,4
    169c:	00088613          	mv	a2,a7
    16a0:	00168813          	addi	a6,a3,1
    16a4:	00059463          	bnez	a1,16ac <main+0x18c>
    16a8:	00068813          	mv	a6,a3
    16ac:	7d000513          	li	a0,2000
    16b0:	03055533          	divu	a0,a0,a6
    16b4:	fffff837          	lui	a6,0xfffff
    16b8:	02a12a23          	sw	a0,52(sp)
    16bc:	7a089c63          	bnez	a7,1e74 <main+0x954>
    16c0:	7c071c63          	bnez	a4,1e98 <main+0x978>
    16c4:	000592e3          	bnez	a1,1ec8 <main+0x9a8>
    16c8:	32089c63          	bnez	a7,1a00 <main+0x4e0>
    16cc:	36071663          	bnez	a4,1a38 <main+0x518>
    16d0:	0047f793          	andi	a5,a5,4
    16d4:	02078863          	beqz	a5,1704 <main+0x1e4>
    16d8:	00001737          	lui	a4,0x1
    16dc:	82070713          	addi	a4,a4,-2016 # 820 <core_bench_list+0x400>
    16e0:	01010693          	addi	a3,sp,16
    16e4:	fffff7b7          	lui	a5,0xfffff
    16e8:	00d70733          	add	a4,a4,a3
    16ec:	00f707b3          	add	a5,a4,a5
    16f0:	03012603          	lw	a2,48(sp)
    16f4:	7ec79583          	lh	a1,2028(a5) # fffff7ec <_stack+0xfffbf7ec>
    16f8:	03412503          	lw	a0,52(sp)
    16fc:	00f12423          	sw	a5,8(sp)
    1700:	080060ef          	jal	ra,7780 <core_init_state>
    1704:	03812783          	lw	a5,56(sp)
    1708:	0e079663          	bnez	a5,17f4 <main+0x2d4>
    170c:	000207b7          	lui	a5,0x20
    1710:	0107a903          	lw	s2,16(a5) # 20010 <__DTOR_END__>
    1714:	0147a983          	lw	s3,20(a5)
    1718:	00100793          	li	a5,1
    171c:	02f12c23          	sw	a5,56(sp)
    1720:	000017b7          	lui	a5,0x1
    1724:	fffff4b7          	lui	s1,0xfffff
    1728:	82078793          	addi	a5,a5,-2016 # 820 <core_bench_list+0x400>
    172c:	01010713          	addi	a4,sp,16
    1730:	7ec48493          	addi	s1,s1,2028 # fffff7ec <_stack+0xfffbf7ec>
    1734:	00e787b3          	add	a5,a5,a4
    1738:	009784b3          	add	s1,a5,s1
    173c:	03812703          	lw	a4,56(sp)
    1740:	00000413          	li	s0,0
    1744:	00271793          	slli	a5,a4,0x2
    1748:	00e787b3          	add	a5,a5,a4
    174c:	00179793          	slli	a5,a5,0x1
    1750:	02f12c23          	sw	a5,56(sp)
    1754:	2cc070ef          	jal	ra,8a20 <start_time>
    1758:	03812a03          	lw	s4,56(sp)
    175c:	04012a23          	sw	zero,84(sp)
    1760:	04012c23          	sw	zero,88(sp)
    1764:	040a0263          	beqz	s4,17a8 <main+0x288>
    1768:	00100593          	li	a1,1
    176c:	00048513          	mv	a0,s1
    1770:	cb1fe0ef          	jal	ra,420 <core_bench_list>
    1774:	05415583          	lhu	a1,84(sp)
    1778:	059060ef          	jal	ra,7fd0 <crcu16>
    177c:	00050793          	mv	a5,a0
    1780:	fff00593          	li	a1,-1
    1784:	00048513          	mv	a0,s1
    1788:	04f11a23          	sh	a5,84(sp)
    178c:	c95fe0ef          	jal	ra,420 <core_bench_list>
    1790:	05415583          	lhu	a1,84(sp)
    1794:	03d060ef          	jal	ra,7fd0 <crcu16>
    1798:	04a11a23          	sh	a0,84(sp)
    179c:	2e040263          	beqz	s0,1a80 <main+0x560>
    17a0:	00140413          	addi	s0,s0,1
    17a4:	fc8a12e3          	bne	s4,s0,1768 <main+0x248>
    17a8:	288070ef          	jal	ra,8a30 <stop_time>
    17ac:	294070ef          	jal	ra,8a40 <get_time>
    17b0:	2b0070ef          	jal	ra,8a60 <time_in_secs>
    17b4:	00090613          	mv	a2,s2
    17b8:	00098693          	mv	a3,s3
    17bc:	00050a13          	mv	s4,a0
    17c0:	00058413          	mv	s0,a1
    17c4:	204180ef          	jal	ra,199c8 <__ledf2>
    17c8:	f6054ae3          	bltz	a0,173c <main+0x21c>
    17cc:	000a0513          	mv	a0,s4
    17d0:	00040593          	mv	a1,s0
    17d4:	11d180ef          	jal	ra,1a0f0 <__fixunsdfsi>
    17d8:	70050c63          	beqz	a0,1ef0 <main+0x9d0>
    17dc:	00a00793          	li	a5,10
    17e0:	02a7d7b3          	divu	a5,a5,a0
    17e4:	03812703          	lw	a4,56(sp)
    17e8:	00178793          	addi	a5,a5,1
    17ec:	02e787b3          	mul	a5,a5,a4
    17f0:	02f12c23          	sw	a5,56(sp)
    17f4:	22c070ef          	jal	ra,8a20 <start_time>
    17f8:	000014b7          	lui	s1,0x1
    17fc:	01010713          	addi	a4,sp,16
    1800:	fffff437          	lui	s0,0xfffff
    1804:	82048793          	addi	a5,s1,-2016 # 820 <core_bench_list+0x400>
    1808:	00e787b3          	add	a5,a5,a4
    180c:	7ec40513          	addi	a0,s0,2028 # fffff7ec <_stack+0xfffbf7ec>
    1810:	00a78533          	add	a0,a5,a0
    1814:	c5dff0ef          	jal	ra,1470 <iterate>
    1818:	218070ef          	jal	ra,8a30 <stop_time>
    181c:	224070ef          	jal	ra,8a40 <get_time>
    1820:	01010713          	addi	a4,sp,16
    1824:	82048793          	addi	a5,s1,-2016
    1828:	00e787b3          	add	a5,a5,a4
    182c:	008787b3          	add	a5,a5,s0
    1830:	00050a13          	mv	s4,a0
    1834:	7ec79503          	lh	a0,2028(a5)
    1838:	00000593          	li	a1,0
    183c:	00f12423          	sw	a5,8(sp)
    1840:	741060ef          	jal	ra,8780 <crc16>
    1844:	00812783          	lw	a5,8(sp)
    1848:	00050593          	mv	a1,a0
    184c:	7ee79503          	lh	a0,2030(a5)
    1850:	731060ef          	jal	ra,8780 <crc16>
    1854:	00812783          	lw	a5,8(sp)
    1858:	00050593          	mv	a1,a0
    185c:	7f079503          	lh	a0,2032(a5)
    1860:	721060ef          	jal	ra,8780 <crc16>
    1864:	00050593          	mv	a1,a0
    1868:	03411503          	lh	a0,52(sp)
    186c:	715060ef          	jal	ra,8780 <crc16>
    1870:	000087b7          	lui	a5,0x8
    1874:	b0578793          	addi	a5,a5,-1275 # 7b05 <core_state_transition+0x185>
    1878:	00050913          	mv	s2,a0
    187c:	7ef50063          	beq	a0,a5,205c <main+0xb3c>
    1880:	5aa7e063          	bltu	a5,a0,1e20 <main+0x900>
    1884:	000027b7          	lui	a5,0x2
    1888:	8f278793          	addi	a5,a5,-1806 # 18f2 <main+0x3d2>
    188c:	76f50863          	beq	a0,a5,1ffc <main+0xadc>
    1890:	00005b37          	lui	s6,0x5
    1894:	eafb0793          	addi	a5,s6,-337 # 4eaf <matrix_test+0x13af>
    1898:	7ef51c63          	bne	a0,a5,2090 <main+0xb70>
    189c:	00020537          	lui	a0,0x20
    18a0:	0b050513          	addi	a0,a0,176 # 200b0 <__malloc_trim_threshold+0x5c>
    18a4:	5c0070ef          	jal	ra,8e64 <puts>
    18a8:	608b0b13          	addi	s6,s6,1544
    18ac:	0000e9b7          	lui	s3,0xe
    18b0:	00007ab7          	lui	s5,0x7
    18b4:	00200793          	li	a5,2
    18b8:	5a498993          	addi	s3,s3,1444 # e5a4 <ediv+0x558>
    18bc:	000b0c13          	mv	s8,s6
    18c0:	a79a8a93          	addi	s5,s5,-1415 # 6a79 <core_bench_state+0x2a9>
    18c4:	00f12623          	sw	a5,12(sp)
    18c8:	00020bb7          	lui	s7,0x20
    18cc:	040ba783          	lw	a5,64(s7) # 20040 <default_num_contexts>
    18d0:	00000c93          	li	s9,0
    18d4:	00000d93          	li	s11,0
    18d8:	1e078c63          	beqz	a5,1ad0 <main+0x5b0>
    18dc:	00001737          	lui	a4,0x1
    18e0:	82070713          	addi	a4,a4,-2016 # 820 <core_bench_list+0x400>
    18e4:	01010693          	addi	a3,sp,16
    18e8:	fffff7b7          	lui	a5,0xfffff
    18ec:	00d70733          	add	a4,a4,a3
    18f0:	00f707b3          	add	a5,a4,a5
    18f4:	00f12423          	sw	a5,8(sp)
    18f8:	00001d37          	lui	s10,0x1
    18fc:	03c0006f          	j	1938 <main+0x418>
    1900:	00812783          	lw	a5,8(sp)
    1904:	01b406b3          	add	a3,s0,s11
    1908:	00269693          	slli	a3,a3,0x2
    190c:	00d786b3          	add	a3,a5,a3
    1910:	00dd06b3          	add	a3,s10,a3
    1914:	82c69683          	lh	a3,-2004(a3)
    1918:	001d8593          	addi	a1,s11,1
    191c:	040ba603          	lw	a2,64(s7)
    1920:	00dc8733          	add	a4,s9,a3
    1924:	01059d93          	slli	s11,a1,0x10
    1928:	01071c93          	slli	s9,a4,0x10
    192c:	010ddd93          	srli	s11,s11,0x10
    1930:	410cdc93          	srai	s9,s9,0x10
    1934:	18cdfe63          	bgeu	s11,a2,1ad0 <main+0x5b0>
    1938:	00812783          	lw	a5,8(sp)
    193c:	004d9413          	slli	s0,s11,0x4
    1940:	01b404b3          	add	s1,s0,s11
    1944:	00249493          	slli	s1,s1,0x2
    1948:	009784b3          	add	s1,a5,s1
    194c:	009d04b3          	add	s1,s10,s1
    1950:	80c4a683          	lw	a3,-2036(s1)
    1954:	82049623          	sh	zero,-2004(s1)
    1958:	0016f693          	andi	a3,a3,1
    195c:	02068663          	beqz	a3,1988 <main+0x468>
    1960:	8264d603          	lhu	a2,-2010(s1)
    1964:	03560263          	beq	a2,s5,1988 <main+0x468>
    1968:	000207b7          	lui	a5,0x20
    196c:	000a8693          	mv	a3,s5
    1970:	000d8593          	mv	a1,s11
    1974:	13878513          	addi	a0,a5,312 # 20138 <__malloc_trim_threshold+0xe4>
    1978:	270070ef          	jal	ra,8be8 <printf>
    197c:	82c4d683          	lhu	a3,-2004(s1)
    1980:	00168693          	addi	a3,a3,1
    1984:	82d49623          	sh	a3,-2004(s1)
    1988:	00812783          	lw	a5,8(sp)
    198c:	01b404b3          	add	s1,s0,s11
    1990:	00249493          	slli	s1,s1,0x2
    1994:	009784b3          	add	s1,a5,s1
    1998:	009d04b3          	add	s1,s10,s1
    199c:	80c4a683          	lw	a3,-2036(s1)
    19a0:	0026f613          	andi	a2,a3,2
    19a4:	02060863          	beqz	a2,19d4 <main+0x4b4>
    19a8:	8284d603          	lhu	a2,-2008(s1)
    19ac:	03860463          	beq	a2,s8,19d4 <main+0x4b4>
    19b0:	000207b7          	lui	a5,0x20
    19b4:	000b0693          	mv	a3,s6
    19b8:	000d8593          	mv	a1,s11
    19bc:	16878513          	addi	a0,a5,360 # 20168 <__malloc_trim_threshold+0x114>
    19c0:	228070ef          	jal	ra,8be8 <printf>
    19c4:	82c4d603          	lhu	a2,-2004(s1)
    19c8:	80c4a683          	lw	a3,-2036(s1)
    19cc:	00160613          	addi	a2,a2,1
    19d0:	82c49623          	sh	a2,-2004(s1)
    19d4:	0046f693          	andi	a3,a3,4
    19d8:	f20684e3          	beqz	a3,1900 <main+0x3e0>
    19dc:	00812783          	lw	a5,8(sp)
    19e0:	01b404b3          	add	s1,s0,s11
    19e4:	00249493          	slli	s1,s1,0x2
    19e8:	009784b3          	add	s1,a5,s1
    19ec:	009d04b3          	add	s1,s10,s1
    19f0:	82a4d603          	lhu	a2,-2006(s1)
    19f4:	0b361063          	bne	a2,s3,1a94 <main+0x574>
    19f8:	82c49683          	lh	a3,-2004(s1)
    19fc:	f1dff06f          	j	1918 <main+0x3f8>
    1a00:	00001737          	lui	a4,0x1
    1a04:	01010693          	addi	a3,sp,16
    1a08:	82070713          	addi	a4,a4,-2016 # 820 <core_bench_list+0x400>
    1a0c:	00d70733          	add	a4,a4,a3
    1a10:	fffff7b7          	lui	a5,0xfffff
    1a14:	00f707b3          	add	a5,a4,a5
    1a18:	7ec79603          	lh	a2,2028(a5) # fffff7ec <_stack+0xfffbf7ec>
    1a1c:	7f87a583          	lw	a1,2040(a5)
    1a20:	00f12423          	sw	a5,8(sp)
    1a24:	a6cff0ef          	jal	ra,c90 <core_list_init>
    1a28:	03c12783          	lw	a5,60(sp)
    1a2c:	04a12023          	sw	a0,64(sp)
    1a30:	0027f713          	andi	a4,a5,2
    1a34:	c8070ee3          	beqz	a4,16d0 <main+0x1b0>
    1a38:	00001737          	lui	a4,0x1
    1a3c:	01010693          	addi	a3,sp,16
    1a40:	82070713          	addi	a4,a4,-2016 # 820 <core_bench_list+0x400>
    1a44:	00d70733          	add	a4,a4,a3
    1a48:	fffff7b7          	lui	a5,0xfffff
    1a4c:	00f707b3          	add	a5,a4,a5
    1a50:	00f12423          	sw	a5,8(sp)
    1a54:	00812703          	lw	a4,8(sp)
    1a58:	7ee79783          	lh	a5,2030(a5) # fffff7ee <_stack+0xfffbf7ee>
    1a5c:	03412503          	lw	a0,52(sp)
    1a60:	7ec71603          	lh	a2,2028(a4)
    1a64:	7fc72583          	lw	a1,2044(a4)
    1a68:	01079793          	slli	a5,a5,0x10
    1a6c:	00c7e633          	or	a2,a5,a2
    1a70:	04410693          	addi	a3,sp,68
    1a74:	30d030ef          	jal	ra,5580 <core_init_matrix>
    1a78:	03c12783          	lw	a5,60(sp)
    1a7c:	c55ff06f          	j	16d0 <main+0x1b0>
    1a80:	04a11b23          	sh	a0,86(sp)
    1a84:	00100793          	li	a5,1
    1a88:	d2fa00e3          	beq	s4,a5,17a8 <main+0x288>
    1a8c:	00100413          	li	s0,1
    1a90:	cd9ff06f          	j	1768 <main+0x248>
    1a94:	000207b7          	lui	a5,0x20
    1a98:	00098693          	mv	a3,s3
    1a9c:	000d8593          	mv	a1,s11
    1aa0:	19c78513          	addi	a0,a5,412 # 2019c <__malloc_trim_threshold+0x148>
    1aa4:	144070ef          	jal	ra,8be8 <printf>
    1aa8:	82c4d683          	lhu	a3,-2004(s1)
    1aac:	00168693          	addi	a3,a3,1
    1ab0:	01069693          	slli	a3,a3,0x10
    1ab4:	4106d693          	srai	a3,a3,0x10
    1ab8:	82d49623          	sh	a3,-2004(s1)
    1abc:	e5dff06f          	j	1918 <main+0x3f8>
    1ac0:	fff00793          	li	a5,-1
    1ac4:	00f12623          	sw	a5,12(sp)
    1ac8:	fff00c93          	li	s9,-1
    1acc:	00020bb7          	lui	s7,0x20
    1ad0:	741060ef          	jal	ra,8a10 <check_data_types>
    1ad4:	03412583          	lw	a1,52(sp)
    1ad8:	00ac8433          	add	s0,s9,a0
    1adc:	00020537          	lui	a0,0x20
    1ae0:	1cc50513          	addi	a0,a0,460 # 201cc <__malloc_trim_threshold+0x178>
    1ae4:	104070ef          	jal	ra,8be8 <printf>
    1ae8:	00020537          	lui	a0,0x20
    1aec:	000a0593          	mv	a1,s4
    1af0:	1e450513          	addi	a0,a0,484 # 201e4 <__malloc_trim_threshold+0x190>
    1af4:	0f4070ef          	jal	ra,8be8 <printf>
    1af8:	000a0513          	mv	a0,s4
    1afc:	765060ef          	jal	ra,8a60 <time_in_secs>
    1b00:	00050613          	mv	a2,a0
    1b04:	00020537          	lui	a0,0x20
    1b08:	00058693          	mv	a3,a1
    1b0c:	1fc50513          	addi	a0,a0,508 # 201fc <__malloc_trim_threshold+0x1a8>
    1b10:	0d8070ef          	jal	ra,8be8 <printf>
    1b14:	000a0513          	mv	a0,s4
    1b18:	749060ef          	jal	ra,8a60 <time_in_secs>
    1b1c:	01041413          	slli	s0,s0,0x10
    1b20:	00000613          	li	a2,0
    1b24:	00000693          	li	a3,0
    1b28:	41045413          	srai	s0,s0,0x10
    1b2c:	5a5170ef          	jal	ra,198d0 <__gedf2>
    1b30:	04a05663          	blez	a0,1b7c <main+0x65c>
    1b34:	040ba783          	lw	a5,64(s7) # 20040 <default_num_contexts>
    1b38:	03812503          	lw	a0,56(sp)
    1b3c:	02f50533          	mul	a0,a0,a5
    1b40:	6e8180ef          	jal	ra,1a228 <__floatunsidf>
    1b44:	00050993          	mv	s3,a0
    1b48:	000a0513          	mv	a0,s4
    1b4c:	00058493          	mv	s1,a1
    1b50:	711060ef          	jal	ra,8a60 <time_in_secs>
    1b54:	00050613          	mv	a2,a0
    1b58:	00058693          	mv	a3,a1
    1b5c:	00098513          	mv	a0,s3
    1b60:	00048593          	mv	a1,s1
    1b64:	5d4170ef          	jal	ra,19138 <__divdf3>
    1b68:	00050613          	mv	a2,a0
    1b6c:	00020537          	lui	a0,0x20
    1b70:	00058693          	mv	a3,a1
    1b74:	21450513          	addi	a0,a0,532 # 20214 <__malloc_trim_threshold+0x1c0>
    1b78:	070070ef          	jal	ra,8be8 <printf>
    1b7c:	040ba783          	lw	a5,64(s7)
    1b80:	03812583          	lw	a1,56(sp)
    1b84:	00020537          	lui	a0,0x20
    1b88:	22c50513          	addi	a0,a0,556 # 2022c <__malloc_trim_threshold+0x1d8>
    1b8c:	02f585b3          	mul	a1,a1,a5
    1b90:	00020b37          	lui	s6,0x20
    1b94:	00020c37          	lui	s8,0x20
    1b98:	00020ab7          	lui	s5,0x20
    1b9c:	04c070ef          	jal	ra,8be8 <printf>
    1ba0:	00020537          	lui	a0,0x20
    1ba4:	244b0593          	addi	a1,s6,580 # 20244 <__malloc_trim_threshold+0x1f0>
    1ba8:	25050513          	addi	a0,a0,592 # 20250 <__malloc_trim_threshold+0x1fc>
    1bac:	03c070ef          	jal	ra,8be8 <printf>
    1bb0:	00020537          	lui	a0,0x20
    1bb4:	268c0593          	addi	a1,s8,616 # 20268 <__malloc_trim_threshold+0x214>
    1bb8:	47050513          	addi	a0,a0,1136 # 20470 <__malloc_trim_threshold+0x41c>
    1bbc:	02c070ef          	jal	ra,8be8 <printf>
    1bc0:	00020537          	lui	a0,0x20
    1bc4:	488a8593          	addi	a1,s5,1160 # 20488 <__malloc_trim_threshold+0x434>
    1bc8:	49050513          	addi	a0,a0,1168 # 20490 <__malloc_trim_threshold+0x43c>
    1bcc:	01c070ef          	jal	ra,8be8 <printf>
    1bd0:	00020537          	lui	a0,0x20
    1bd4:	00090593          	mv	a1,s2
    1bd8:	4a850513          	addi	a0,a0,1192 # 204a8 <__malloc_trim_threshold+0x454>
    1bdc:	00c070ef          	jal	ra,8be8 <printf>
    1be0:	03c12783          	lw	a5,60(sp)
    1be4:	0017f713          	andi	a4,a5,1
    1be8:	06070a63          	beqz	a4,1c5c <main+0x73c>
    1bec:	040ba703          	lw	a4,64(s7)
    1bf0:	06070663          	beqz	a4,1c5c <main+0x73c>
    1bf4:	00001737          	lui	a4,0x1
    1bf8:	82070713          	addi	a4,a4,-2016 # 820 <core_bench_list+0x400>
    1bfc:	01010693          	addi	a3,sp,16
    1c00:	fffff7b7          	lui	a5,0xfffff
    1c04:	00d70733          	add	a4,a4,a3
    1c08:	00f707b3          	add	a5,a4,a5
    1c0c:	00000993          	li	s3,0
    1c10:	00f12423          	sw	a5,8(sp)
    1c14:	00001937          	lui	s2,0x1
    1c18:	000204b7          	lui	s1,0x20
    1c1c:	00812703          	lw	a4,8(sp)
    1c20:	00499793          	slli	a5,s3,0x4
    1c24:	013787b3          	add	a5,a5,s3
    1c28:	00279793          	slli	a5,a5,0x2
    1c2c:	00f707b3          	add	a5,a4,a5
    1c30:	00f907b3          	add	a5,s2,a5
    1c34:	8267d603          	lhu	a2,-2010(a5) # ffffe826 <_stack+0xfffbe826>
    1c38:	00098593          	mv	a1,s3
    1c3c:	4c448513          	addi	a0,s1,1220 # 204c4 <__malloc_trim_threshold+0x470>
    1c40:	7a9060ef          	jal	ra,8be8 <printf>
    1c44:	00198993          	addi	s3,s3,1
    1c48:	040ba783          	lw	a5,64(s7)
    1c4c:	01099993          	slli	s3,s3,0x10
    1c50:	0109d993          	srli	s3,s3,0x10
    1c54:	fcf9e4e3          	bltu	s3,a5,1c1c <main+0x6fc>
    1c58:	03c12783          	lw	a5,60(sp)
    1c5c:	0027f713          	andi	a4,a5,2
    1c60:	040ba683          	lw	a3,64(s7)
    1c64:	06070863          	beqz	a4,1cd4 <main+0x7b4>
    1c68:	06068663          	beqz	a3,1cd4 <main+0x7b4>
    1c6c:	00001737          	lui	a4,0x1
    1c70:	82070713          	addi	a4,a4,-2016 # 820 <core_bench_list+0x400>
    1c74:	01010693          	addi	a3,sp,16
    1c78:	fffff7b7          	lui	a5,0xfffff
    1c7c:	00d70733          	add	a4,a4,a3
    1c80:	00f707b3          	add	a5,a4,a5
    1c84:	00000993          	li	s3,0
    1c88:	00f12423          	sw	a5,8(sp)
    1c8c:	00001937          	lui	s2,0x1
    1c90:	000204b7          	lui	s1,0x20
    1c94:	00812703          	lw	a4,8(sp)
    1c98:	00499793          	slli	a5,s3,0x4
    1c9c:	013787b3          	add	a5,a5,s3
    1ca0:	00279793          	slli	a5,a5,0x2
    1ca4:	00f707b3          	add	a5,a4,a5
    1ca8:	00f907b3          	add	a5,s2,a5
    1cac:	8287d603          	lhu	a2,-2008(a5) # ffffe828 <_stack+0xfffbe828>
    1cb0:	00098593          	mv	a1,s3
    1cb4:	4e048513          	addi	a0,s1,1248 # 204e0 <__malloc_trim_threshold+0x48c>
    1cb8:	731060ef          	jal	ra,8be8 <printf>
    1cbc:	00198993          	addi	s3,s3,1
    1cc0:	040ba783          	lw	a5,64(s7)
    1cc4:	01099993          	slli	s3,s3,0x10
    1cc8:	0109d993          	srli	s3,s3,0x10
    1ccc:	fcf9e4e3          	bltu	s3,a5,1c94 <main+0x774>
    1cd0:	03c12783          	lw	a5,60(sp)
    1cd4:	0047f793          	andi	a5,a5,4
    1cd8:	040ba703          	lw	a4,64(s7)
    1cdc:	06078663          	beqz	a5,1d48 <main+0x828>
    1ce0:	06070463          	beqz	a4,1d48 <main+0x828>
    1ce4:	00001737          	lui	a4,0x1
    1ce8:	82070713          	addi	a4,a4,-2016 # 820 <core_bench_list+0x400>
    1cec:	01010693          	addi	a3,sp,16
    1cf0:	fffff7b7          	lui	a5,0xfffff
    1cf4:	00d70733          	add	a4,a4,a3
    1cf8:	00f707b3          	add	a5,a4,a5
    1cfc:	00000993          	li	s3,0
    1d00:	00f12423          	sw	a5,8(sp)
    1d04:	00001937          	lui	s2,0x1
    1d08:	000204b7          	lui	s1,0x20
    1d0c:	00812703          	lw	a4,8(sp)
    1d10:	00499793          	slli	a5,s3,0x4
    1d14:	013787b3          	add	a5,a5,s3
    1d18:	00279793          	slli	a5,a5,0x2
    1d1c:	00f707b3          	add	a5,a4,a5
    1d20:	00f907b3          	add	a5,s2,a5
    1d24:	82a7d603          	lhu	a2,-2006(a5) # ffffe82a <_stack+0xfffbe82a>
    1d28:	00098593          	mv	a1,s3
    1d2c:	4fc48513          	addi	a0,s1,1276 # 204fc <__malloc_trim_threshold+0x4a8>
    1d30:	6b9060ef          	jal	ra,8be8 <printf>
    1d34:	00198993          	addi	s3,s3,1
    1d38:	040ba783          	lw	a5,64(s7)
    1d3c:	01099993          	slli	s3,s3,0x10
    1d40:	0109d993          	srli	s3,s3,0x10
    1d44:	fcf9e4e3          	bltu	s3,a5,1d0c <main+0x7ec>
    1d48:	00001737          	lui	a4,0x1
    1d4c:	040ba783          	lw	a5,64(s7)
    1d50:	82070713          	addi	a4,a4,-2016 # 820 <core_bench_list+0x400>
    1d54:	01010693          	addi	a3,sp,16
    1d58:	fffff4b7          	lui	s1,0xfffff
    1d5c:	00d70733          	add	a4,a4,a3
    1d60:	00000c93          	li	s9,0
    1d64:	009704b3          	add	s1,a4,s1
    1d68:	000019b7          	lui	s3,0x1
    1d6c:	00020937          	lui	s2,0x20
    1d70:	02078e63          	beqz	a5,1dac <main+0x88c>
    1d74:	004c9793          	slli	a5,s9,0x4
    1d78:	019787b3          	add	a5,a5,s9
    1d7c:	00279793          	slli	a5,a5,0x2
    1d80:	00f487b3          	add	a5,s1,a5
    1d84:	00f987b3          	add	a5,s3,a5
    1d88:	8247d603          	lhu	a2,-2012(a5)
    1d8c:	000c8593          	mv	a1,s9
    1d90:	51890513          	addi	a0,s2,1304 # 20518 <__malloc_trim_threshold+0x4c4>
    1d94:	655060ef          	jal	ra,8be8 <printf>
    1d98:	001c8c93          	addi	s9,s9,1
    1d9c:	040ba783          	lw	a5,64(s7)
    1da0:	010c9c93          	slli	s9,s9,0x10
    1da4:	010cdc93          	srli	s9,s9,0x10
    1da8:	fcfce6e3          	bltu	s9,a5,1d74 <main+0x854>
    1dac:	16040a63          	beqz	s0,1f20 <main+0xa00>
    1db0:	04805e63          	blez	s0,1e0c <main+0x8ec>
    1db4:	00020537          	lui	a0,0x20
    1db8:	5b450513          	addi	a0,a0,1460 # 205b4 <__malloc_trim_threshold+0x560>
    1dbc:	0a8070ef          	jal	ra,8e64 <puts>
    1dc0:	05e10513          	addi	a0,sp,94
    1dc4:	4dd060ef          	jal	ra,8aa0 <portable_fini>
    1dc8:	08010113          	addi	sp,sp,128
    1dcc:	7ec12083          	lw	ra,2028(sp)
    1dd0:	7e812403          	lw	s0,2024(sp)
    1dd4:	7e412483          	lw	s1,2020(sp)
    1dd8:	7e012903          	lw	s2,2016(sp)
    1ddc:	7dc12983          	lw	s3,2012(sp)
    1de0:	7d812a03          	lw	s4,2008(sp)
    1de4:	7d412a83          	lw	s5,2004(sp)
    1de8:	7d012b03          	lw	s6,2000(sp)
    1dec:	7cc12b83          	lw	s7,1996(sp)
    1df0:	7c812c03          	lw	s8,1992(sp)
    1df4:	7c412c83          	lw	s9,1988(sp)
    1df8:	7c012d03          	lw	s10,1984(sp)
    1dfc:	7bc12d83          	lw	s11,1980(sp)
    1e00:	00000513          	li	a0,0
    1e04:	7f010113          	addi	sp,sp,2032
    1e08:	00008067          	ret
    1e0c:	fa045ae3          	bgez	s0,1dc0 <main+0x8a0>
    1e10:	00020537          	lui	a0,0x20
    1e14:	5c450513          	addi	a0,a0,1476 # 205c4 <__malloc_trim_threshold+0x570>
    1e18:	04c070ef          	jal	ra,8e64 <puts>
    1e1c:	fa5ff06f          	j	1dc0 <main+0x8a0>
    1e20:	000099b7          	lui	s3,0x9
    1e24:	a0298793          	addi	a5,s3,-1534 # 8a02 <crc16+0x282>
    1e28:	20f50263          	beq	a0,a5,202c <main+0xb0c>
    1e2c:	0000f7b7          	lui	a5,0xf
    1e30:	9f578793          	addi	a5,a5,-1547 # e9f5 <_ldtoa_r+0x299>
    1e34:	c8f516e3          	bne	a0,a5,1ac0 <main+0x5a0>
    1e38:	00020537          	lui	a0,0x20
    1e3c:	0e050513          	addi	a0,a0,224 # 200e0 <__malloc_trim_threshold+0x8c>
    1e40:	024070ef          	jal	ra,8e64 <puts>
    1e44:	00002b37          	lui	s6,0x2
    1e48:	fd7b0b13          	addi	s6,s6,-41 # 1fd7 <main+0xab7>
    1e4c:	0000eab7          	lui	s5,0xe
    1e50:	00300793          	li	a5,3
    1e54:	e3a98993          	addi	s3,s3,-454
    1e58:	000b0c13          	mv	s8,s6
    1e5c:	714a8a93          	addi	s5,s5,1812 # e714 <e113toe.isra.0+0x128>
    1e60:	00f12623          	sw	a5,12(sp)
    1e64:	a65ff06f          	j	18c8 <main+0x3a8>
    1e68:	00700793          	li	a5,7
    1e6c:	02f12e23          	sw	a5,60(sp)
    1e70:	f94ff06f          	j	1604 <main+0xe4>
    1e74:	00001337          	lui	t1,0x1
    1e78:	82030313          	addi	t1,t1,-2016 # 820 <core_bench_list+0x400>
    1e7c:	01010e13          	addi	t3,sp,16
    1e80:	01c30333          	add	t1,t1,t3
    1e84:	01030833          	add	a6,t1,a6
    1e88:	06010313          	addi	t1,sp,96
    1e8c:	01012423          	sw	a6,8(sp)
    1e90:	7e682c23          	sw	t1,2040(a6) # fffff7f8 <_stack+0xfffbf7f8>
    1e94:	820708e3          	beqz	a4,16c4 <main+0x1a4>
    1e98:	02a60633          	mul	a2,a2,a0
    1e9c:	06010313          	addi	t1,sp,96
    1ea0:	01010e13          	addi	t3,sp,16
    1ea4:	fffff837          	lui	a6,0xfffff
    1ea8:	00c30633          	add	a2,t1,a2
    1eac:	00001337          	lui	t1,0x1
    1eb0:	82030313          	addi	t1,t1,-2016 # 820 <core_bench_list+0x400>
    1eb4:	01c30333          	add	t1,t1,t3
    1eb8:	01030833          	add	a6,t1,a6
    1ebc:	01012423          	sw	a6,8(sp)
    1ec0:	7ec82e23          	sw	a2,2044(a6) # fffff7fc <_stack+0xfffbf7fc>
    1ec4:	800582e3          	beqz	a1,16c8 <main+0x1a8>
    1ec8:	02a686b3          	mul	a3,a3,a0
    1ecc:	06010613          	addi	a2,sp,96
    1ed0:	00d606b3          	add	a3,a2,a3
    1ed4:	02d12823          	sw	a3,48(sp)
    1ed8:	fe088a63          	beqz	a7,16cc <main+0x1ac>
    1edc:	b25ff06f          	j	1a00 <main+0x4e0>
    1ee0:	00812703          	lw	a4,8(sp)
    1ee4:	06600793          	li	a5,102
    1ee8:	7ef71823          	sh	a5,2032(a4)
    1eec:	f48ff06f          	j	1634 <main+0x114>
    1ef0:	00100513          	li	a0,1
    1ef4:	8e9ff06f          	j	17dc <main+0x2bc>
    1ef8:	00812783          	lw	a5,8(sp)
    1efc:	7f079783          	lh	a5,2032(a5)
    1f00:	f4079e63          	bnez	a5,165c <main+0x13c>
    1f04:	00812703          	lw	a4,8(sp)
    1f08:	341537b7          	lui	a5,0x34153
    1f0c:	41578793          	addi	a5,a5,1045 # 34153415 <_stack+0x34113415>
    1f10:	7ef72623          	sw	a5,2028(a4)
    1f14:	06600793          	li	a5,102
    1f18:	7ef71823          	sh	a5,2032(a4)
    1f1c:	f40ff06f          	j	165c <main+0x13c>
    1f20:	00020537          	lui	a0,0x20
    1f24:	53450513          	addi	a0,a0,1332 # 20534 <__malloc_trim_threshold+0x4e0>
    1f28:	73d060ef          	jal	ra,8e64 <puts>
    1f2c:	00c12703          	lw	a4,12(sp)
    1f30:	00300793          	li	a5,3
    1f34:	e8f716e3          	bne	a4,a5,1dc0 <main+0x8a0>
    1f38:	040ba783          	lw	a5,64(s7)
    1f3c:	03812503          	lw	a0,56(sp)
    1f40:	02f50533          	mul	a0,a0,a5
    1f44:	2e4180ef          	jal	ra,1a228 <__floatunsidf>
    1f48:	00050493          	mv	s1,a0
    1f4c:	000a0513          	mv	a0,s4
    1f50:	00058413          	mv	s0,a1
    1f54:	30d060ef          	jal	ra,8a60 <time_in_secs>
    1f58:	00050613          	mv	a2,a0
    1f5c:	00058693          	mv	a3,a1
    1f60:	00048513          	mv	a0,s1
    1f64:	00040593          	mv	a1,s0
    1f68:	1d0170ef          	jal	ra,19138 <__divdf3>
    1f6c:	00050613          	mv	a2,a0
    1f70:	00020537          	lui	a0,0x20
    1f74:	244b0713          	addi	a4,s6,580
    1f78:	00058693          	mv	a3,a1
    1f7c:	268c0793          	addi	a5,s8,616
    1f80:	57c50513          	addi	a0,a0,1404 # 2057c <__malloc_trim_threshold+0x528>
    1f84:	465060ef          	jal	ra,8be8 <printf>
    1f88:	00020537          	lui	a0,0x20
    1f8c:	488a8593          	addi	a1,s5,1160
    1f90:	59850513          	addi	a0,a0,1432 # 20598 <__malloc_trim_threshold+0x544>
    1f94:	455060ef          	jal	ra,8be8 <printf>
    1f98:	00a00513          	li	a0,10
    1f9c:	4a5060ef          	jal	ra,8c40 <putchar>
    1fa0:	040ba783          	lw	a5,64(s7)
    1fa4:	03812503          	lw	a0,56(sp)
    1fa8:	02f50533          	mul	a0,a0,a5
    1fac:	27c180ef          	jal	ra,1a228 <__floatunsidf>
    1fb0:	00050493          	mv	s1,a0
    1fb4:	000a0513          	mv	a0,s4
    1fb8:	00058413          	mv	s0,a1
    1fbc:	2a5060ef          	jal	ra,8a60 <time_in_secs>
    1fc0:	00050613          	mv	a2,a0
    1fc4:	00058693          	mv	a3,a1
    1fc8:	00048513          	mv	a0,s1
    1fcc:	00040593          	mv	a1,s0
    1fd0:	168170ef          	jal	ra,19138 <__divdf3>
    1fd4:	000207b7          	lui	a5,0x20
    1fd8:	0187a603          	lw	a2,24(a5) # 20018 <__DTOR_END__+0x8>
    1fdc:	01c7a683          	lw	a3,28(a5)
    1fe0:	158170ef          	jal	ra,19138 <__divdf3>
    1fe4:	00050613          	mv	a2,a0
    1fe8:	00020537          	lui	a0,0x20
    1fec:	00058693          	mv	a3,a1
    1ff0:	5a050513          	addi	a0,a0,1440 # 205a0 <__malloc_trim_threshold+0x54c>
    1ff4:	3f5060ef          	jal	ra,8be8 <printf>
    1ff8:	dc9ff06f          	j	1dc0 <main+0x8a0>
    1ffc:	00020537          	lui	a0,0x20
    2000:	10c50513          	addi	a0,a0,268 # 2010c <__malloc_trim_threshold+0xb8>
    2004:	661060ef          	jal	ra,8e64 <puts>
    2008:	000099b7          	lui	s3,0x9
    200c:	0000eab7          	lui	s5,0xe
    2010:	00400793          	li	a5,4
    2014:	d8498993          	addi	s3,s3,-636 # 8d84 <putc+0x9c>
    2018:	74700b13          	li	s6,1863
    201c:	74700c13          	li	s8,1863
    2020:	3c1a8a93          	addi	s5,s5,961 # e3c1 <ediv+0x375>
    2024:	00f12623          	sw	a5,12(sp)
    2028:	8a1ff06f          	j	18c8 <main+0x3a8>
    202c:	00020537          	lui	a0,0x20
    2030:	0000cb37          	lui	s6,0xc
    2034:	05850513          	addi	a0,a0,88 # 20058 <__malloc_trim_threshold+0x4>
    2038:	e52b0b13          	addi	s6,s6,-430 # be52 <__sflush_r+0x10a>
    203c:	000069b7          	lui	s3,0x6
    2040:	0000dab7          	lui	s5,0xd
    2044:	621060ef          	jal	ra,8e64 <puts>
    2048:	e4798993          	addi	s3,s3,-441 # 5e47 <matrix_mul_const+0x197>
    204c:	000b0c13          	mv	s8,s6
    2050:	4b0a8a93          	addi	s5,s5,1200 # d4b0 <emovi+0x74>
    2054:	00012623          	sw	zero,12(sp)
    2058:	871ff06f          	j	18c8 <main+0x3a8>
    205c:	00020537          	lui	a0,0x20
    2060:	08450513          	addi	a0,a0,132 # 20084 <__malloc_trim_threshold+0x30>
    2064:	601060ef          	jal	ra,8e64 <puts>
    2068:	00001b37          	lui	s6,0x1
    206c:	199b0b13          	addi	s6,s6,409 # 1199 <core_list_find+0x19>
    2070:	000049b7          	lui	s3,0x4
    2074:	00003ab7          	lui	s5,0x3
    2078:	00100793          	li	a5,1
    207c:	9bf98993          	addi	s3,s3,-1601 # 39bf <core_bench_matrix+0x190f>
    2080:	000b0c13          	mv	s8,s6
    2084:	340a8a93          	addi	s5,s5,832 # 3340 <core_bench_matrix+0x1290>
    2088:	00f12623          	sw	a5,12(sp)
    208c:	83dff06f          	j	18c8 <main+0x3a8>
    2090:	fff00793          	li	a5,-1
    2094:	00f12623          	sw	a5,12(sp)
    2098:	fff00c93          	li	s9,-1
    209c:	00020bb7          	lui	s7,0x20
    20a0:	a31ff06f          	j	1ad0 <main+0x5b0>
	...

000020b0 <core_bench_matrix>:
    20b0:	fa010113          	addi	sp,sp,-96
    20b4:	00452703          	lw	a4,4(a0)
    20b8:	05312623          	sw	s3,76(sp)
    20bc:	00052983          	lw	s3,0(a0)
    20c0:	04812c23          	sw	s0,88(sp)
    20c4:	03a12823          	sw	s10,48(sp)
    20c8:	03b12623          	sw	s11,44(sp)
    20cc:	fffff437          	lui	s0,0xfffff
    20d0:	04112e23          	sw	ra,92(sp)
    20d4:	04912a23          	sw	s1,84(sp)
    20d8:	05212823          	sw	s2,80(sp)
    20dc:	05412423          	sw	s4,72(sp)
    20e0:	05512223          	sw	s5,68(sp)
    20e4:	05612023          	sw	s6,64(sp)
    20e8:	03712e23          	sw	s7,60(sp)
    20ec:	03812c23          	sw	s8,56(sp)
    20f0:	03912a23          	sw	s9,52(sp)
    20f4:	00e12423          	sw	a4,8(sp)
    20f8:	00c12823          	sw	a2,16(sp)
    20fc:	00c52d03          	lw	s10,12(a0)
    2100:	00852d83          	lw	s11,8(a0)
    2104:	0085e433          	or	s0,a1,s0
    2108:	00099463          	bnez	s3,2110 <core_bench_matrix+0x60>
    210c:	1b90106f          	j	3ac4 <core_bench_matrix+0x1a14>
    2110:	413007b3          	neg	a5,s3
    2114:	00199493          	slli	s1,s3,0x1
    2118:	00058913          	mv	s2,a1
    211c:	00f12223          	sw	a5,4(sp)
    2120:	00000893          	li	a7,0
    2124:	009706b3          	add	a3,a4,s1
    2128:	00179313          	slli	t1,a5,0x1
    212c:	00279e13          	slli	t3,a5,0x2
    2130:	00668633          	add	a2,a3,t1
    2134:	40c68733          	sub	a4,a3,a2
    2138:	ffe70713          	addi	a4,a4,-2
    213c:	00175713          	srli	a4,a4,0x1
    2140:	00170713          	addi	a4,a4,1
    2144:	00777713          	andi	a4,a4,7
    2148:	00060793          	mv	a5,a2
    214c:	0a070463          	beqz	a4,21f4 <core_bench_matrix+0x144>
    2150:	00100593          	li	a1,1
    2154:	08b70663          	beq	a4,a1,21e0 <core_bench_matrix+0x130>
    2158:	00200593          	li	a1,2
    215c:	06b70a63          	beq	a4,a1,21d0 <core_bench_matrix+0x120>
    2160:	00300593          	li	a1,3
    2164:	04b70e63          	beq	a4,a1,21c0 <core_bench_matrix+0x110>
    2168:	00400593          	li	a1,4
    216c:	04b70263          	beq	a4,a1,21b0 <core_bench_matrix+0x100>
    2170:	00500593          	li	a1,5
    2174:	02b70663          	beq	a4,a1,21a0 <core_bench_matrix+0xf0>
    2178:	00600593          	li	a1,6
    217c:	00b70a63          	beq	a4,a1,2190 <core_bench_matrix+0xe0>
    2180:	00065703          	lhu	a4,0(a2)
    2184:	00260793          	addi	a5,a2,2
    2188:	00e90733          	add	a4,s2,a4
    218c:	00e61023          	sh	a4,0(a2)
    2190:	0007d703          	lhu	a4,0(a5)
    2194:	00278793          	addi	a5,a5,2
    2198:	00e90733          	add	a4,s2,a4
    219c:	fee79f23          	sh	a4,-2(a5)
    21a0:	0007d703          	lhu	a4,0(a5)
    21a4:	00278793          	addi	a5,a5,2
    21a8:	00e90733          	add	a4,s2,a4
    21ac:	fee79f23          	sh	a4,-2(a5)
    21b0:	0007d703          	lhu	a4,0(a5)
    21b4:	00278793          	addi	a5,a5,2
    21b8:	00e90733          	add	a4,s2,a4
    21bc:	fee79f23          	sh	a4,-2(a5)
    21c0:	0007d703          	lhu	a4,0(a5)
    21c4:	00278793          	addi	a5,a5,2
    21c8:	00e90733          	add	a4,s2,a4
    21cc:	fee79f23          	sh	a4,-2(a5)
    21d0:	0007d703          	lhu	a4,0(a5)
    21d4:	00278793          	addi	a5,a5,2
    21d8:	00e90733          	add	a4,s2,a4
    21dc:	fee79f23          	sh	a4,-2(a5)
    21e0:	0007d703          	lhu	a4,0(a5)
    21e4:	00278793          	addi	a5,a5,2
    21e8:	00e90733          	add	a4,s2,a4
    21ec:	fee79f23          	sh	a4,-2(a5)
    21f0:	06f68663          	beq	a3,a5,225c <core_bench_matrix+0x1ac>
    21f4:	0007d283          	lhu	t0,0(a5)
    21f8:	0027df83          	lhu	t6,2(a5)
    21fc:	0047df03          	lhu	t5,4(a5)
    2200:	0067de83          	lhu	t4,6(a5)
    2204:	0087d803          	lhu	a6,8(a5)
    2208:	00a7d503          	lhu	a0,10(a5)
    220c:	00c7d583          	lhu	a1,12(a5)
    2210:	00e7d703          	lhu	a4,14(a5)
    2214:	005902b3          	add	t0,s2,t0
    2218:	01f90fb3          	add	t6,s2,t6
    221c:	01e90f33          	add	t5,s2,t5
    2220:	01d90eb3          	add	t4,s2,t4
    2224:	01090833          	add	a6,s2,a6
    2228:	00a90533          	add	a0,s2,a0
    222c:	00b905b3          	add	a1,s2,a1
    2230:	00e90733          	add	a4,s2,a4
    2234:	00579023          	sh	t0,0(a5)
    2238:	01f79123          	sh	t6,2(a5)
    223c:	01e79223          	sh	t5,4(a5)
    2240:	01d79323          	sh	t4,6(a5)
    2244:	01079423          	sh	a6,8(a5)
    2248:	00a79523          	sh	a0,10(a5)
    224c:	00b79623          	sh	a1,12(a5)
    2250:	00e79723          	sh	a4,14(a5)
    2254:	01078793          	addi	a5,a5,16
    2258:	f8f69ee3          	bne	a3,a5,21f4 <core_bench_matrix+0x144>
    225c:	00188893          	addi	a7,a7,1
    2260:	41c606b3          	sub	a3,a2,t3
    2264:	ed1996e3          	bne	s3,a7,2130 <core_bench_matrix+0x80>
    2268:	00412783          	lw	a5,4(sp)
    226c:	00812703          	lw	a4,8(sp)
    2270:	00000813          	li	a6,0
    2274:	00000893          	li	a7,0
    2278:	00279e13          	slli	t3,a5,0x2
    227c:	00970633          	add	a2,a4,s1
    2280:	00179313          	slli	t1,a5,0x1
    2284:	00c305b3          	add	a1,t1,a2
    2288:	40b60733          	sub	a4,a2,a1
    228c:	ffe70713          	addi	a4,a4,-2
    2290:	00175713          	srli	a4,a4,0x1
    2294:	00170713          	addi	a4,a4,1
    2298:	00281793          	slli	a5,a6,0x2
    229c:	00777713          	andi	a4,a4,7
    22a0:	00058693          	mv	a3,a1
    22a4:	00fd07b3          	add	a5,s10,a5
    22a8:	0c070263          	beqz	a4,236c <core_bench_matrix+0x2bc>
    22ac:	00100513          	li	a0,1
    22b0:	0aa70263          	beq	a4,a0,2354 <core_bench_matrix+0x2a4>
    22b4:	00200513          	li	a0,2
    22b8:	08a70463          	beq	a4,a0,2340 <core_bench_matrix+0x290>
    22bc:	00300513          	li	a0,3
    22c0:	06a70663          	beq	a4,a0,232c <core_bench_matrix+0x27c>
    22c4:	00400513          	li	a0,4
    22c8:	04a70863          	beq	a4,a0,2318 <core_bench_matrix+0x268>
    22cc:	00500513          	li	a0,5
    22d0:	02a70a63          	beq	a4,a0,2304 <core_bench_matrix+0x254>
    22d4:	00600513          	li	a0,6
    22d8:	00a70c63          	beq	a4,a0,22f0 <core_bench_matrix+0x240>
    22dc:	00059703          	lh	a4,0(a1)
    22e0:	00258693          	addi	a3,a1,2
    22e4:	00478793          	addi	a5,a5,4
    22e8:	03270733          	mul	a4,a4,s2
    22ec:	fee7ae23          	sw	a4,-4(a5)
    22f0:	00069703          	lh	a4,0(a3)
    22f4:	00478793          	addi	a5,a5,4
    22f8:	00268693          	addi	a3,a3,2
    22fc:	03270733          	mul	a4,a4,s2
    2300:	fee7ae23          	sw	a4,-4(a5)
    2304:	00069703          	lh	a4,0(a3)
    2308:	00478793          	addi	a5,a5,4
    230c:	00268693          	addi	a3,a3,2
    2310:	03270733          	mul	a4,a4,s2
    2314:	fee7ae23          	sw	a4,-4(a5)
    2318:	00069703          	lh	a4,0(a3)
    231c:	00478793          	addi	a5,a5,4
    2320:	00268693          	addi	a3,a3,2
    2324:	03270733          	mul	a4,a4,s2
    2328:	fee7ae23          	sw	a4,-4(a5)
    232c:	00069703          	lh	a4,0(a3)
    2330:	00478793          	addi	a5,a5,4
    2334:	00268693          	addi	a3,a3,2
    2338:	03270733          	mul	a4,a4,s2
    233c:	fee7ae23          	sw	a4,-4(a5)
    2340:	00069703          	lh	a4,0(a3)
    2344:	00478793          	addi	a5,a5,4
    2348:	00268693          	addi	a3,a3,2
    234c:	03270733          	mul	a4,a4,s2
    2350:	fee7ae23          	sw	a4,-4(a5)
    2354:	00069703          	lh	a4,0(a3)
    2358:	00268693          	addi	a3,a3,2
    235c:	00478793          	addi	a5,a5,4
    2360:	03270733          	mul	a4,a4,s2
    2364:	fee7ae23          	sw	a4,-4(a5)
    2368:	06d60863          	beq	a2,a3,23d8 <core_bench_matrix+0x328>
    236c:	00069083          	lh	ra,0(a3)
    2370:	00269383          	lh	t2,2(a3)
    2374:	00469283          	lh	t0,4(a3)
    2378:	00669f83          	lh	t6,6(a3)
    237c:	00869f03          	lh	t5,8(a3)
    2380:	00a69e83          	lh	t4,10(a3)
    2384:	00c69503          	lh	a0,12(a3)
    2388:	00e69703          	lh	a4,14(a3)
    238c:	032080b3          	mul	ra,ra,s2
    2390:	01068693          	addi	a3,a3,16
    2394:	02078793          	addi	a5,a5,32
    2398:	032383b3          	mul	t2,t2,s2
    239c:	fe17a023          	sw	ra,-32(a5)
    23a0:	032282b3          	mul	t0,t0,s2
    23a4:	fe77a223          	sw	t2,-28(a5)
    23a8:	032f8fb3          	mul	t6,t6,s2
    23ac:	fe57a423          	sw	t0,-24(a5)
    23b0:	032f0f33          	mul	t5,t5,s2
    23b4:	fff7a623          	sw	t6,-20(a5)
    23b8:	032e8eb3          	mul	t4,t4,s2
    23bc:	ffe7a823          	sw	t5,-16(a5)
    23c0:	03250533          	mul	a0,a0,s2
    23c4:	ffd7aa23          	sw	t4,-12(a5)
    23c8:	03270733          	mul	a4,a4,s2
    23cc:	fea7ac23          	sw	a0,-8(a5)
    23d0:	fee7ae23          	sw	a4,-4(a5)
    23d4:	f8d61ce3          	bne	a2,a3,236c <core_bench_matrix+0x2bc>
    23d8:	00188893          	addi	a7,a7,1
    23dc:	01380833          	add	a6,a6,s3
    23e0:	41c58633          	sub	a2,a1,t3
    23e4:	eb1990e3          	bne	s3,a7,2284 <core_bench_matrix+0x1d4>
    23e8:	00412783          	lw	a5,4(sp)
    23ec:	00299b13          	slli	s6,s3,0x2
    23f0:	00000513          	li	a0,0
    23f4:	00000e13          	li	t3,0
    23f8:	00000313          	li	t1,0
    23fc:	00000613          	li	a2,0
    2400:	00379813          	slli	a6,a5,0x3
    2404:	016d0733          	add	a4,s10,s6
    2408:	00279593          	slli	a1,a5,0x2
    240c:	00b708b3          	add	a7,a4,a1
    2410:	41170eb3          	sub	t4,a4,a7
    2414:	ffce8e93          	addi	t4,t4,-4 # ffff7ffc <_stack+0xfffb7ffc>
    2418:	002ede93          	srli	t4,t4,0x2
    241c:	001e8e93          	addi	t4,t4,1
    2420:	007efe93          	andi	t4,t4,7
    2424:	00088693          	mv	a3,a7
    2428:	620e86e3          	beqz	t4,3254 <core_bench_matrix+0x11a4>
    242c:	00100793          	li	a5,1
    2430:	10fe8e63          	beq	t4,a5,254c <core_bench_matrix+0x49c>
    2434:	00200793          	li	a5,2
    2438:	0efe8663          	beq	t4,a5,2524 <core_bench_matrix+0x474>
    243c:	00300793          	li	a5,3
    2440:	0afe8e63          	beq	t4,a5,24fc <core_bench_matrix+0x44c>
    2444:	00400793          	li	a5,4
    2448:	08fe8663          	beq	t4,a5,24d4 <core_bench_matrix+0x424>
    244c:	00500793          	li	a5,5
    2450:	04fe8e63          	beq	t4,a5,24ac <core_bench_matrix+0x3fc>
    2454:	00600793          	li	a5,6
    2458:	02fe8663          	beq	t4,a5,2484 <core_bench_matrix+0x3d4>
    245c:	000e0793          	mv	a5,t3
    2460:	0008ae03          	lw	t3,0(a7)
    2464:	01c30333          	add	t1,t1,t3
    2468:	00645463          	bge	s0,t1,2470 <core_bench_matrix+0x3c0>
    246c:	6440106f          	j	3ab0 <core_bench_matrix+0x1a00>
    2470:	01c7a7b3          	slt	a5,a5,t3
    2474:	00f507b3          	add	a5,a0,a5
    2478:	01079513          	slli	a0,a5,0x10
    247c:	41055513          	srai	a0,a0,0x10
    2480:	00488693          	addi	a3,a7,4
    2484:	000e0793          	mv	a5,t3
    2488:	0006ae03          	lw	t3,0(a3)
    248c:	01c30333          	add	t1,t1,t3
    2490:	00645463          	bge	s0,t1,2498 <core_bench_matrix+0x3e8>
    2494:	5a40106f          	j	3a38 <core_bench_matrix+0x1988>
    2498:	01c7a7b3          	slt	a5,a5,t3
    249c:	00f507b3          	add	a5,a0,a5
    24a0:	01079513          	slli	a0,a5,0x10
    24a4:	41055513          	srai	a0,a0,0x10
    24a8:	00468693          	addi	a3,a3,4
    24ac:	000e0793          	mv	a5,t3
    24b0:	0006ae03          	lw	t3,0(a3)
    24b4:	01c30333          	add	t1,t1,t3
    24b8:	00645463          	bge	s0,t1,24c0 <core_bench_matrix+0x410>
    24bc:	5540106f          	j	3a10 <core_bench_matrix+0x1960>
    24c0:	01c7a7b3          	slt	a5,a5,t3
    24c4:	00f507b3          	add	a5,a0,a5
    24c8:	01079513          	slli	a0,a5,0x10
    24cc:	41055513          	srai	a0,a0,0x10
    24d0:	00468693          	addi	a3,a3,4
    24d4:	000e0793          	mv	a5,t3
    24d8:	0006ae03          	lw	t3,0(a3)
    24dc:	01c30333          	add	t1,t1,t3
    24e0:	00645463          	bge	s0,t1,24e8 <core_bench_matrix+0x438>
    24e4:	4dc0106f          	j	39c0 <core_bench_matrix+0x1910>
    24e8:	01c7a7b3          	slt	a5,a5,t3
    24ec:	00f507b3          	add	a5,a0,a5
    24f0:	01079513          	slli	a0,a5,0x10
    24f4:	41055513          	srai	a0,a0,0x10
    24f8:	00468693          	addi	a3,a3,4
    24fc:	000e0793          	mv	a5,t3
    2500:	0006ae03          	lw	t3,0(a3)
    2504:	01c30333          	add	t1,t1,t3
    2508:	00645463          	bge	s0,t1,2510 <core_bench_matrix+0x460>
    250c:	43c0106f          	j	3948 <core_bench_matrix+0x1898>
    2510:	01c7a7b3          	slt	a5,a5,t3
    2514:	00f507b3          	add	a5,a0,a5
    2518:	01079513          	slli	a0,a5,0x10
    251c:	41055513          	srai	a0,a0,0x10
    2520:	00468693          	addi	a3,a3,4
    2524:	000e0793          	mv	a5,t3
    2528:	0006ae03          	lw	t3,0(a3)
    252c:	01c30333          	add	t1,t1,t3
    2530:	00645463          	bge	s0,t1,2538 <core_bench_matrix+0x488>
    2534:	3ec0106f          	j	3920 <core_bench_matrix+0x1870>
    2538:	01c7a7b3          	slt	a5,a5,t3
    253c:	00f507b3          	add	a5,a0,a5
    2540:	01079513          	slli	a0,a5,0x10
    2544:	41055513          	srai	a0,a0,0x10
    2548:	00468693          	addi	a3,a3,4
    254c:	000e0793          	mv	a5,t3
    2550:	0006ae03          	lw	t3,0(a3)
    2554:	01c30333          	add	t1,t1,t3
    2558:	00645463          	bge	s0,t1,2560 <core_bench_matrix+0x4b0>
    255c:	3380106f          	j	3894 <core_bench_matrix+0x17e4>
    2560:	01c7a7b3          	slt	a5,a5,t3
    2564:	00f507b3          	add	a5,a0,a5
    2568:	01079513          	slli	a0,a5,0x10
    256c:	41055513          	srai	a0,a0,0x10
    2570:	00468693          	addi	a3,a3,4
    2574:	4ed710e3          	bne	a4,a3,3254 <core_bench_matrix+0x11a4>
    2578:	00160613          	addi	a2,a2,1
    257c:	41088733          	sub	a4,a7,a6
    2580:	e8c996e3          	bne	s3,a2,240c <core_bench_matrix+0x35c>
    2584:	00000593          	li	a1,0
    2588:	1f8060ef          	jal	ra,8780 <crc16>
    258c:	00050793          	mv	a5,a0
    2590:	00000593          	li	a1,0
    2594:	000b0613          	mv	a2,s6
    2598:	000d0513          	mv	a0,s10
    259c:	00f12623          	sw	a5,12(sp)
    25a0:	52c060ef          	jal	ra,8acc <memset>
    25a4:	00812c83          	lw	s9,8(sp)
    25a8:	00000f93          	li	t6,0
    25ac:	000d0593          	mv	a1,s10
    25b0:	016d0c33          	add	s8,s10,s6
    25b4:	009d82b3          	add	t0,s11,s1
    25b8:	01a12a23          	sw	s10,20(sp)
    25bc:	41b286b3          	sub	a3,t0,s11
    25c0:	ffe68693          	addi	a3,a3,-2
    25c4:	0016d693          	srli	a3,a3,0x1
    25c8:	00168693          	addi	a3,a3,1
    25cc:	001f9793          	slli	a5,t6,0x1
    25d0:	0076f693          	andi	a3,a3,7
    25d4:	000d8613          	mv	a2,s11
    25d8:	00000713          	li	a4,0
    25dc:	00fc87b3          	add	a5,s9,a5
    25e0:	0c068e63          	beqz	a3,26bc <core_bench_matrix+0x60c>
    25e4:	00100513          	li	a0,1
    25e8:	0aa68c63          	beq	a3,a0,26a0 <core_bench_matrix+0x5f0>
    25ec:	00200513          	li	a0,2
    25f0:	08a68c63          	beq	a3,a0,2688 <core_bench_matrix+0x5d8>
    25f4:	00300513          	li	a0,3
    25f8:	06a68c63          	beq	a3,a0,2670 <core_bench_matrix+0x5c0>
    25fc:	00400513          	li	a0,4
    2600:	04a68c63          	beq	a3,a0,2658 <core_bench_matrix+0x5a8>
    2604:	00500513          	li	a0,5
    2608:	02a68c63          	beq	a3,a0,2640 <core_bench_matrix+0x590>
    260c:	00600513          	li	a0,6
    2610:	00a68c63          	beq	a3,a0,2628 <core_bench_matrix+0x578>
    2614:	00079683          	lh	a3,0(a5)
    2618:	000d9703          	lh	a4,0(s11)
    261c:	00278793          	addi	a5,a5,2
    2620:	002d8613          	addi	a2,s11,2
    2624:	02e68733          	mul	a4,a3,a4
    2628:	00079683          	lh	a3,0(a5)
    262c:	00061503          	lh	a0,0(a2)
    2630:	00278793          	addi	a5,a5,2
    2634:	00260613          	addi	a2,a2,2
    2638:	02a686b3          	mul	a3,a3,a0
    263c:	00d70733          	add	a4,a4,a3
    2640:	00079683          	lh	a3,0(a5)
    2644:	00061503          	lh	a0,0(a2)
    2648:	00278793          	addi	a5,a5,2
    264c:	00260613          	addi	a2,a2,2
    2650:	02a686b3          	mul	a3,a3,a0
    2654:	00d70733          	add	a4,a4,a3
    2658:	00079683          	lh	a3,0(a5)
    265c:	00061503          	lh	a0,0(a2)
    2660:	00278793          	addi	a5,a5,2
    2664:	00260613          	addi	a2,a2,2
    2668:	02a686b3          	mul	a3,a3,a0
    266c:	00d70733          	add	a4,a4,a3
    2670:	00079683          	lh	a3,0(a5)
    2674:	00061503          	lh	a0,0(a2)
    2678:	00278793          	addi	a5,a5,2
    267c:	00260613          	addi	a2,a2,2
    2680:	02a686b3          	mul	a3,a3,a0
    2684:	00d70733          	add	a4,a4,a3
    2688:	00079683          	lh	a3,0(a5)
    268c:	00061503          	lh	a0,0(a2)
    2690:	00278793          	addi	a5,a5,2
    2694:	00260613          	addi	a2,a2,2
    2698:	02a686b3          	mul	a3,a3,a0
    269c:	00d70733          	add	a4,a4,a3
    26a0:	00079683          	lh	a3,0(a5)
    26a4:	00061503          	lh	a0,0(a2)
    26a8:	00260613          	addi	a2,a2,2
    26ac:	00278793          	addi	a5,a5,2
    26b0:	02a686b3          	mul	a3,a3,a0
    26b4:	00d70733          	add	a4,a4,a3
    26b8:	08c28863          	beq	t0,a2,2748 <core_bench_matrix+0x698>
    26bc:	00079503          	lh	a0,0(a5)
    26c0:	00061683          	lh	a3,0(a2)
    26c4:	00261e03          	lh	t3,2(a2)
    26c8:	00279b83          	lh	s7,2(a5)
    26cc:	02d506b3          	mul	a3,a0,a3
    26d0:	00479083          	lh	ra,4(a5)
    26d4:	00461d03          	lh	s10,4(a2)
    26d8:	00679f03          	lh	t5,6(a5)
    26dc:	00661a83          	lh	s5,6(a2)
    26e0:	00879303          	lh	t1,8(a5)
    26e4:	00861a03          	lh	s4,8(a2)
    26e8:	00a79883          	lh	a7,10(a5)
    26ec:	00a61383          	lh	t2,10(a2)
    26f0:	00c79803          	lh	a6,12(a5)
    26f4:	03cb8bb3          	mul	s7,s7,t3
    26f8:	00d70733          	add	a4,a4,a3
    26fc:	00c61e83          	lh	t4,12(a2)
    2700:	00e79503          	lh	a0,14(a5)
    2704:	00e61e03          	lh	t3,14(a2)
    2708:	01060613          	addi	a2,a2,16
    270c:	01078793          	addi	a5,a5,16
    2710:	03a080b3          	mul	ra,ra,s10
    2714:	01770733          	add	a4,a4,s7
    2718:	035f06b3          	mul	a3,t5,s5
    271c:	00170733          	add	a4,a4,ra
    2720:	03430333          	mul	t1,t1,s4
    2724:	00d70733          	add	a4,a4,a3
    2728:	027886b3          	mul	a3,a7,t2
    272c:	00670733          	add	a4,a4,t1
    2730:	03d80833          	mul	a6,a6,t4
    2734:	00d70733          	add	a4,a4,a3
    2738:	03c506b3          	mul	a3,a0,t3
    273c:	01070733          	add	a4,a4,a6
    2740:	00d70733          	add	a4,a4,a3
    2744:	f6c29ce3          	bne	t0,a2,26bc <core_bench_matrix+0x60c>
    2748:	00e5a023          	sw	a4,0(a1)
    274c:	00458593          	addi	a1,a1,4
    2750:	013f8fb3          	add	t6,t6,s3
    2754:	e6bc14e3          	bne	s8,a1,25bc <core_bench_matrix+0x50c>
    2758:	00412783          	lw	a5,4(sp)
    275c:	01412d03          	lw	s10,20(sp)
    2760:	00000513          	li	a0,0
    2764:	00000e13          	li	t3,0
    2768:	00000313          	li	t1,0
    276c:	00000613          	li	a2,0
    2770:	00379813          	slli	a6,a5,0x3
    2774:	016d0733          	add	a4,s10,s6
    2778:	00279593          	slli	a1,a5,0x2
    277c:	00e588b3          	add	a7,a1,a4
    2780:	41170eb3          	sub	t4,a4,a7
    2784:	ffce8e93          	addi	t4,t4,-4
    2788:	002ede93          	srli	t4,t4,0x2
    278c:	001e8e93          	addi	t4,t4,1
    2790:	007efe93          	andi	t4,t4,7
    2794:	00088693          	mv	a3,a7
    2798:	480e82e3          	beqz	t4,341c <core_bench_matrix+0x136c>
    279c:	00100793          	li	a5,1
    27a0:	10fe8e63          	beq	t4,a5,28bc <core_bench_matrix+0x80c>
    27a4:	00200793          	li	a5,2
    27a8:	0efe8663          	beq	t4,a5,2894 <core_bench_matrix+0x7e4>
    27ac:	00300793          	li	a5,3
    27b0:	0afe8e63          	beq	t4,a5,286c <core_bench_matrix+0x7bc>
    27b4:	00400793          	li	a5,4
    27b8:	08fe8663          	beq	t4,a5,2844 <core_bench_matrix+0x794>
    27bc:	00500793          	li	a5,5
    27c0:	04fe8e63          	beq	t4,a5,281c <core_bench_matrix+0x76c>
    27c4:	00600793          	li	a5,6
    27c8:	02fe8663          	beq	t4,a5,27f4 <core_bench_matrix+0x744>
    27cc:	000e0793          	mv	a5,t3
    27d0:	0008ae03          	lw	t3,0(a7)
    27d4:	01c30333          	add	t1,t1,t3
    27d8:	00645463          	bge	s0,t1,27e0 <core_bench_matrix+0x730>
    27dc:	2ac0106f          	j	3a88 <core_bench_matrix+0x19d8>
    27e0:	01c7a7b3          	slt	a5,a5,t3
    27e4:	00f507b3          	add	a5,a0,a5
    27e8:	01079513          	slli	a0,a5,0x10
    27ec:	41055513          	srai	a0,a0,0x10
    27f0:	00488693          	addi	a3,a7,4
    27f4:	000e0793          	mv	a5,t3
    27f8:	0006ae03          	lw	t3,0(a3)
    27fc:	01c30333          	add	t1,t1,t3
    2800:	00645463          	bge	s0,t1,2808 <core_bench_matrix+0x758>
    2804:	25c0106f          	j	3a60 <core_bench_matrix+0x19b0>
    2808:	01c7a7b3          	slt	a5,a5,t3
    280c:	00f507b3          	add	a5,a0,a5
    2810:	01079513          	slli	a0,a5,0x10
    2814:	41055513          	srai	a0,a0,0x10
    2818:	00468693          	addi	a3,a3,4
    281c:	000e0793          	mv	a5,t3
    2820:	0006ae03          	lw	t3,0(a3)
    2824:	01c30333          	add	t1,t1,t3
    2828:	00645463          	bge	s0,t1,2830 <core_bench_matrix+0x780>
    282c:	1d00106f          	j	39fc <core_bench_matrix+0x194c>
    2830:	01c7a7b3          	slt	a5,a5,t3
    2834:	00f507b3          	add	a5,a0,a5
    2838:	01079513          	slli	a0,a5,0x10
    283c:	41055513          	srai	a0,a0,0x10
    2840:	00468693          	addi	a3,a3,4
    2844:	000e0793          	mv	a5,t3
    2848:	0006ae03          	lw	t3,0(a3)
    284c:	01c30333          	add	t1,t1,t3
    2850:	00645463          	bge	s0,t1,2858 <core_bench_matrix+0x7a8>
    2854:	1580106f          	j	39ac <core_bench_matrix+0x18fc>
    2858:	01c7a7b3          	slt	a5,a5,t3
    285c:	00f507b3          	add	a5,a0,a5
    2860:	01079513          	slli	a0,a5,0x10
    2864:	41055513          	srai	a0,a0,0x10
    2868:	00468693          	addi	a3,a3,4
    286c:	000e0793          	mv	a5,t3
    2870:	0006ae03          	lw	t3,0(a3)
    2874:	01c30333          	add	t1,t1,t3
    2878:	00645463          	bge	s0,t1,2880 <core_bench_matrix+0x7d0>
    287c:	0b80106f          	j	3934 <core_bench_matrix+0x1884>
    2880:	01c7a7b3          	slt	a5,a5,t3
    2884:	00f507b3          	add	a5,a0,a5
    2888:	01079513          	slli	a0,a5,0x10
    288c:	41055513          	srai	a0,a0,0x10
    2890:	00468693          	addi	a3,a3,4
    2894:	000e0793          	mv	a5,t3
    2898:	0006ae03          	lw	t3,0(a3)
    289c:	01c30333          	add	t1,t1,t3
    28a0:	00645463          	bge	s0,t1,28a8 <core_bench_matrix+0x7f8>
    28a4:	0680106f          	j	390c <core_bench_matrix+0x185c>
    28a8:	01c7a7b3          	slt	a5,a5,t3
    28ac:	00f507b3          	add	a5,a0,a5
    28b0:	01079513          	slli	a0,a5,0x10
    28b4:	41055513          	srai	a0,a0,0x10
    28b8:	00468693          	addi	a3,a3,4
    28bc:	000e0793          	mv	a5,t3
    28c0:	0006ae03          	lw	t3,0(a3)
    28c4:	01c30333          	add	t1,t1,t3
    28c8:	7e6440e3          	blt	s0,t1,38a8 <core_bench_matrix+0x17f8>
    28cc:	01c7a7b3          	slt	a5,a5,t3
    28d0:	00f507b3          	add	a5,a0,a5
    28d4:	01079513          	slli	a0,a5,0x10
    28d8:	41055513          	srai	a0,a0,0x10
    28dc:	00468693          	addi	a3,a3,4
    28e0:	32d71ee3          	bne	a4,a3,341c <core_bench_matrix+0x136c>
    28e4:	00160613          	addi	a2,a2,1
    28e8:	41088733          	sub	a4,a7,a6
    28ec:	e8c998e3          	bne	s3,a2,277c <core_bench_matrix+0x6cc>
    28f0:	00c12583          	lw	a1,12(sp)
    28f4:	00000b93          	li	s7,0
    28f8:	689050ef          	jal	ra,8780 <crc16>
    28fc:	00812783          	lw	a5,8(sp)
    2900:	00a12623          	sw	a0,12(sp)
    2904:	000d0893          	mv	a7,s10
    2908:	00078a13          	mv	s4,a5
    290c:	00978ab3          	add	s5,a5,s1
    2910:	01a12a23          	sw	s10,20(sp)
    2914:	00812c23          	sw	s0,24(sp)
    2918:	01212e23          	sw	s2,28(sp)
    291c:	00000593          	li	a1,0
    2920:	00088513          	mv	a0,a7
    2924:	000b0613          	mv	a2,s6
    2928:	1a4060ef          	jal	ra,8acc <memset>
    292c:	00050893          	mv	a7,a0
    2930:	00050813          	mv	a6,a0
    2934:	000d8593          	mv	a1,s11
    2938:	00000513          	li	a0,0
    293c:	414a87b3          	sub	a5,s5,s4
    2940:	ffe78793          	addi	a5,a5,-2
    2944:	0017d793          	srli	a5,a5,0x1
    2948:	00178793          	addi	a5,a5,1
    294c:	0077f793          	andi	a5,a5,7
    2950:	00058713          	mv	a4,a1
    2954:	000a0693          	mv	a3,s4
    2958:	00000613          	li	a2,0
    295c:	0c078e63          	beqz	a5,2a38 <core_bench_matrix+0x988>
    2960:	00100313          	li	t1,1
    2964:	0a678c63          	beq	a5,t1,2a1c <core_bench_matrix+0x96c>
    2968:	00200313          	li	t1,2
    296c:	08678c63          	beq	a5,t1,2a04 <core_bench_matrix+0x954>
    2970:	00300313          	li	t1,3
    2974:	06678c63          	beq	a5,t1,29ec <core_bench_matrix+0x93c>
    2978:	00400313          	li	t1,4
    297c:	04678c63          	beq	a5,t1,29d4 <core_bench_matrix+0x924>
    2980:	00500313          	li	t1,5
    2984:	02678c63          	beq	a5,t1,29bc <core_bench_matrix+0x90c>
    2988:	00600313          	li	t1,6
    298c:	00678c63          	beq	a5,t1,29a4 <core_bench_matrix+0x8f4>
    2990:	000a1603          	lh	a2,0(s4)
    2994:	00059783          	lh	a5,0(a1)
    2998:	002a0693          	addi	a3,s4,2
    299c:	00958733          	add	a4,a1,s1
    29a0:	02f60633          	mul	a2,a2,a5
    29a4:	00069783          	lh	a5,0(a3)
    29a8:	00071303          	lh	t1,0(a4)
    29ac:	00268693          	addi	a3,a3,2
    29b0:	00970733          	add	a4,a4,s1
    29b4:	026787b3          	mul	a5,a5,t1
    29b8:	00f60633          	add	a2,a2,a5
    29bc:	00069783          	lh	a5,0(a3)
    29c0:	00071303          	lh	t1,0(a4)
    29c4:	00268693          	addi	a3,a3,2
    29c8:	00970733          	add	a4,a4,s1
    29cc:	026787b3          	mul	a5,a5,t1
    29d0:	00f60633          	add	a2,a2,a5
    29d4:	00069783          	lh	a5,0(a3)
    29d8:	00071303          	lh	t1,0(a4)
    29dc:	00268693          	addi	a3,a3,2
    29e0:	00970733          	add	a4,a4,s1
    29e4:	026787b3          	mul	a5,a5,t1
    29e8:	00f60633          	add	a2,a2,a5
    29ec:	00069783          	lh	a5,0(a3)
    29f0:	00071303          	lh	t1,0(a4)
    29f4:	00268693          	addi	a3,a3,2
    29f8:	00970733          	add	a4,a4,s1
    29fc:	026787b3          	mul	a5,a5,t1
    2a00:	00f60633          	add	a2,a2,a5
    2a04:	00069783          	lh	a5,0(a3)
    2a08:	00071303          	lh	t1,0(a4)
    2a0c:	00268693          	addi	a3,a3,2
    2a10:	00970733          	add	a4,a4,s1
    2a14:	026787b3          	mul	a5,a5,t1
    2a18:	00f60633          	add	a2,a2,a5
    2a1c:	00069783          	lh	a5,0(a3)
    2a20:	00071303          	lh	t1,0(a4)
    2a24:	00268693          	addi	a3,a3,2
    2a28:	00970733          	add	a4,a4,s1
    2a2c:	026787b3          	mul	a5,a5,t1
    2a30:	00f60633          	add	a2,a2,a5
    2a34:	0ada8663          	beq	s5,a3,2ae0 <core_bench_matrix+0xa30>
    2a38:	00071303          	lh	t1,0(a4)
    2a3c:	00069d03          	lh	s10,0(a3)
    2a40:	00970733          	add	a4,a4,s1
    2a44:	00071783          	lh	a5,0(a4)
    2a48:	00269283          	lh	t0,2(a3)
    2a4c:	00970733          	add	a4,a4,s1
    2a50:	00469f83          	lh	t6,4(a3)
    2a54:	00071c83          	lh	s9,0(a4)
    2a58:	00970733          	add	a4,a4,s1
    2a5c:	026d0d33          	mul	s10,s10,t1
    2a60:	00669f03          	lh	t5,6(a3)
    2a64:	00071c03          	lh	s8,0(a4)
    2a68:	00970733          	add	a4,a4,s1
    2a6c:	00869e83          	lh	t4,8(a3)
    2a70:	00071903          	lh	s2,0(a4)
    2a74:	00970733          	add	a4,a4,s1
    2a78:	00a69e03          	lh	t3,10(a3)
    2a7c:	00071403          	lh	s0,0(a4)
    2a80:	00970733          	add	a4,a4,s1
    2a84:	02f282b3          	mul	t0,t0,a5
    2a88:	00c69303          	lh	t1,12(a3)
    2a8c:	00071083          	lh	ra,0(a4)
    2a90:	00970733          	add	a4,a4,s1
    2a94:	00e69783          	lh	a5,14(a3)
    2a98:	00071383          	lh	t2,0(a4)
    2a9c:	01a60633          	add	a2,a2,s10
    2aa0:	01068693          	addi	a3,a3,16
    2aa4:	00970733          	add	a4,a4,s1
    2aa8:	039f8fb3          	mul	t6,t6,s9
    2aac:	00560633          	add	a2,a2,t0
    2ab0:	038f0f33          	mul	t5,t5,s8
    2ab4:	01f60633          	add	a2,a2,t6
    2ab8:	032e8eb3          	mul	t4,t4,s2
    2abc:	01e60633          	add	a2,a2,t5
    2ac0:	028e0e33          	mul	t3,t3,s0
    2ac4:	01d60633          	add	a2,a2,t4
    2ac8:	02130333          	mul	t1,t1,ra
    2acc:	01c60633          	add	a2,a2,t3
    2ad0:	027787b3          	mul	a5,a5,t2
    2ad4:	00660633          	add	a2,a2,t1
    2ad8:	00f60633          	add	a2,a2,a5
    2adc:	f4da9ee3          	bne	s5,a3,2a38 <core_bench_matrix+0x988>
    2ae0:	00c82023          	sw	a2,0(a6)
    2ae4:	00150513          	addi	a0,a0,1
    2ae8:	00480813          	addi	a6,a6,4
    2aec:	00258593          	addi	a1,a1,2
    2af0:	e4a996e3          	bne	s3,a0,293c <core_bench_matrix+0x88c>
    2af4:	001b8b93          	addi	s7,s7,1 # 20001 <__CTOR_LIST__+0x1>
    2af8:	016888b3          	add	a7,a7,s6
    2afc:	009a0a33          	add	s4,s4,s1
    2b00:	009a8ab3          	add	s5,s5,s1
    2b04:	e1799ce3          	bne	s3,s7,291c <core_bench_matrix+0x86c>
    2b08:	00412783          	lw	a5,4(sp)
    2b0c:	01412d03          	lw	s10,20(sp)
    2b10:	01812403          	lw	s0,24(sp)
    2b14:	01c12903          	lw	s2,28(sp)
    2b18:	00000513          	li	a0,0
    2b1c:	00000e13          	li	t3,0
    2b20:	00000313          	li	t1,0
    2b24:	00000613          	li	a2,0
    2b28:	00379813          	slli	a6,a5,0x3
    2b2c:	016d0733          	add	a4,s10,s6
    2b30:	00279593          	slli	a1,a5,0x2
    2b34:	00e588b3          	add	a7,a1,a4
    2b38:	41170eb3          	sub	t4,a4,a7
    2b3c:	ffce8e93          	addi	t4,t4,-4
    2b40:	002ede93          	srli	t4,t4,0x2
    2b44:	001e8e93          	addi	t4,t4,1
    2b48:	007efe93          	andi	t4,t4,7
    2b4c:	00088693          	mv	a3,a7
    2b50:	280e8ae3          	beqz	t4,35e4 <core_bench_matrix+0x1534>
    2b54:	00100793          	li	a5,1
    2b58:	10fe8263          	beq	t4,a5,2c5c <core_bench_matrix+0xbac>
    2b5c:	00200793          	li	a5,2
    2b60:	0cfe8c63          	beq	t4,a5,2c38 <core_bench_matrix+0xb88>
    2b64:	00300793          	li	a5,3
    2b68:	0afe8663          	beq	t4,a5,2c14 <core_bench_matrix+0xb64>
    2b6c:	00400793          	li	a5,4
    2b70:	08fe8063          	beq	t4,a5,2bf0 <core_bench_matrix+0xb40>
    2b74:	00500793          	li	a5,5
    2b78:	04fe8a63          	beq	t4,a5,2bcc <core_bench_matrix+0xb1c>
    2b7c:	00600793          	li	a5,6
    2b80:	02fe8463          	beq	t4,a5,2ba8 <core_bench_matrix+0xaf8>
    2b84:	000e0793          	mv	a5,t3
    2b88:	0008ae03          	lw	t3,0(a7)
    2b8c:	01c30333          	add	t1,t1,t3
    2b90:	706446e3          	blt	s0,t1,3a9c <core_bench_matrix+0x19ec>
    2b94:	01c7a7b3          	slt	a5,a5,t3
    2b98:	00f507b3          	add	a5,a0,a5
    2b9c:	01079513          	slli	a0,a5,0x10
    2ba0:	41055513          	srai	a0,a0,0x10
    2ba4:	00488693          	addi	a3,a7,4
    2ba8:	000e0793          	mv	a5,t3
    2bac:	0006ae03          	lw	t3,0(a3)
    2bb0:	01c30333          	add	t1,t1,t3
    2bb4:	666448e3          	blt	s0,t1,3a24 <core_bench_matrix+0x1974>
    2bb8:	01c7a7b3          	slt	a5,a5,t3
    2bbc:	00f507b3          	add	a5,a0,a5
    2bc0:	01079513          	slli	a0,a5,0x10
    2bc4:	41055513          	srai	a0,a0,0x10
    2bc8:	00468693          	addi	a3,a3,4
    2bcc:	000e0793          	mv	a5,t3
    2bd0:	0006ae03          	lw	t3,0(a3)
    2bd4:	01c30333          	add	t1,t1,t3
    2bd8:	606448e3          	blt	s0,t1,39e8 <core_bench_matrix+0x1938>
    2bdc:	01c7a7b3          	slt	a5,a5,t3
    2be0:	00f507b3          	add	a5,a0,a5
    2be4:	01079513          	slli	a0,a5,0x10
    2be8:	41055513          	srai	a0,a0,0x10
    2bec:	00468693          	addi	a3,a3,4
    2bf0:	000e0793          	mv	a5,t3
    2bf4:	0006ae03          	lw	t3,0(a3)
    2bf8:	01c30333          	add	t1,t1,t3
    2bfc:	58644ee3          	blt	s0,t1,3998 <core_bench_matrix+0x18e8>
    2c00:	01c7a7b3          	slt	a5,a5,t3
    2c04:	00f507b3          	add	a5,a0,a5
    2c08:	01079513          	slli	a0,a5,0x10
    2c0c:	41055513          	srai	a0,a0,0x10
    2c10:	00468693          	addi	a3,a3,4
    2c14:	000e0793          	mv	a5,t3
    2c18:	0006ae03          	lw	t3,0(a3)
    2c1c:	01c30333          	add	t1,t1,t3
    2c20:	546448e3          	blt	s0,t1,3970 <core_bench_matrix+0x18c0>
    2c24:	01c7a7b3          	slt	a5,a5,t3
    2c28:	00f507b3          	add	a5,a0,a5
    2c2c:	01079513          	slli	a0,a5,0x10
    2c30:	41055513          	srai	a0,a0,0x10
    2c34:	00468693          	addi	a3,a3,4
    2c38:	000e0793          	mv	a5,t3
    2c3c:	0006ae03          	lw	t3,0(a3)
    2c40:	01c30333          	add	t1,t1,t3
    2c44:	4a644ae3          	blt	s0,t1,38f8 <core_bench_matrix+0x1848>
    2c48:	01c7a7b3          	slt	a5,a5,t3
    2c4c:	00f507b3          	add	a5,a0,a5
    2c50:	01079513          	slli	a0,a5,0x10
    2c54:	41055513          	srai	a0,a0,0x10
    2c58:	00468693          	addi	a3,a3,4
    2c5c:	000e0793          	mv	a5,t3
    2c60:	0006ae03          	lw	t3,0(a3)
    2c64:	01c30333          	add	t1,t1,t3
    2c68:	466444e3          	blt	s0,t1,38d0 <core_bench_matrix+0x1820>
    2c6c:	01c7a7b3          	slt	a5,a5,t3
    2c70:	00f507b3          	add	a5,a0,a5
    2c74:	01079513          	slli	a0,a5,0x10
    2c78:	41055513          	srai	a0,a0,0x10
    2c7c:	00468693          	addi	a3,a3,4
    2c80:	16d712e3          	bne	a4,a3,35e4 <core_bench_matrix+0x1534>
    2c84:	00160613          	addi	a2,a2,1
    2c88:	41088733          	sub	a4,a7,a6
    2c8c:	eac994e3          	bne	s3,a2,2b34 <core_bench_matrix+0xa84>
    2c90:	00c12583          	lw	a1,12(sp)
    2c94:	00000c13          	li	s8,0
    2c98:	2e9050ef          	jal	ra,8780 <crc16>
    2c9c:	00812783          	lw	a5,8(sp)
    2ca0:	00050a13          	mv	s4,a0
    2ca4:	000d0813          	mv	a6,s10
    2ca8:	00078a93          	mv	s5,a5
    2cac:	00978bb3          	add	s7,a5,s1
    2cb0:	00080513          	mv	a0,a6
    2cb4:	000b0613          	mv	a2,s6
    2cb8:	00000593          	li	a1,0
    2cbc:	611050ef          	jal	ra,8acc <memset>
    2cc0:	00050813          	mv	a6,a0
    2cc4:	00050313          	mv	t1,a0
    2cc8:	00000893          	li	a7,0
    2ccc:	000d8513          	mv	a0,s11
    2cd0:	415b87b3          	sub	a5,s7,s5
    2cd4:	ffe78793          	addi	a5,a5,-2
    2cd8:	0017d793          	srli	a5,a5,0x1
    2cdc:	00178793          	addi	a5,a5,1
    2ce0:	0037f793          	andi	a5,a5,3
    2ce4:	00050693          	mv	a3,a0
    2ce8:	000a8593          	mv	a1,s5
    2cec:	00000713          	li	a4,0
    2cf0:	08078c63          	beqz	a5,2d88 <core_bench_matrix+0xcd8>
    2cf4:	00100613          	li	a2,1
    2cf8:	06c78063          	beq	a5,a2,2d58 <core_bench_matrix+0xca8>
    2cfc:	00200613          	li	a2,2
    2d00:	02c78663          	beq	a5,a2,2d2c <core_bench_matrix+0xc7c>
    2d04:	00051703          	lh	a4,0(a0)
    2d08:	000a9783          	lh	a5,0(s5)
    2d0c:	002a8593          	addi	a1,s5,2
    2d10:	009506b3          	add	a3,a0,s1
    2d14:	02e787b3          	mul	a5,a5,a4
    2d18:	4027d713          	srai	a4,a5,0x2
    2d1c:	4057d793          	srai	a5,a5,0x5
    2d20:	00f77713          	andi	a4,a4,15
    2d24:	07f7f793          	andi	a5,a5,127
    2d28:	02f70733          	mul	a4,a4,a5
    2d2c:	00069603          	lh	a2,0(a3)
    2d30:	00059783          	lh	a5,0(a1)
    2d34:	009686b3          	add	a3,a3,s1
    2d38:	00258593          	addi	a1,a1,2
    2d3c:	02c787b3          	mul	a5,a5,a2
    2d40:	4027d613          	srai	a2,a5,0x2
    2d44:	4057d793          	srai	a5,a5,0x5
    2d48:	00f67613          	andi	a2,a2,15
    2d4c:	07f7f793          	andi	a5,a5,127
    2d50:	02f607b3          	mul	a5,a2,a5
    2d54:	00f70733          	add	a4,a4,a5
    2d58:	00069603          	lh	a2,0(a3)
    2d5c:	00059783          	lh	a5,0(a1)
    2d60:	00258593          	addi	a1,a1,2
    2d64:	009686b3          	add	a3,a3,s1
    2d68:	02c787b3          	mul	a5,a5,a2
    2d6c:	4027d613          	srai	a2,a5,0x2
    2d70:	4057d793          	srai	a5,a5,0x5
    2d74:	00f67613          	andi	a2,a2,15
    2d78:	07f7f793          	andi	a5,a5,127
    2d7c:	02f607b3          	mul	a5,a2,a5
    2d80:	00f70733          	add	a4,a4,a5
    2d84:	0abb8663          	beq	s7,a1,2e30 <core_bench_matrix+0xd80>
    2d88:	00069603          	lh	a2,0(a3)
    2d8c:	00059783          	lh	a5,0(a1)
    2d90:	009686b3          	add	a3,a3,s1
    2d94:	00259f83          	lh	t6,2(a1)
    2d98:	00069e03          	lh	t3,0(a3)
    2d9c:	009686b3          	add	a3,a3,s1
    2da0:	00459f03          	lh	t5,4(a1)
    2da4:	00069e83          	lh	t4,0(a3)
    2da8:	009686b3          	add	a3,a3,s1
    2dac:	02c787b3          	mul	a5,a5,a2
    2db0:	00659283          	lh	t0,6(a1)
    2db4:	00069603          	lh	a2,0(a3)
    2db8:	00858593          	addi	a1,a1,8
    2dbc:	009686b3          	add	a3,a3,s1
    2dc0:	03cf8e33          	mul	t3,t6,t3
    2dc4:	4027df93          	srai	t6,a5,0x2
    2dc8:	4057d793          	srai	a5,a5,0x5
    2dcc:	00ffff93          	andi	t6,t6,15
    2dd0:	07f7f793          	andi	a5,a5,127
    2dd4:	03df0eb3          	mul	t4,t5,t4
    2dd8:	402e5393          	srai	t2,t3,0x2
    2ddc:	405e5e13          	srai	t3,t3,0x5
    2de0:	07fe7f13          	andi	t5,t3,127
    2de4:	00f3f393          	andi	t2,t2,15
    2de8:	02c28633          	mul	a2,t0,a2
    2dec:	405ede13          	srai	t3,t4,0x5
    2df0:	402ed293          	srai	t0,t4,0x2
    2df4:	00f2fe93          	andi	t4,t0,15
    2df8:	07fe7e13          	andi	t3,t3,127
    2dfc:	02ff87b3          	mul	a5,t6,a5
    2e00:	40265f93          	srai	t6,a2,0x2
    2e04:	40565613          	srai	a2,a2,0x5
    2e08:	00ffff93          	andi	t6,t6,15
    2e0c:	07f67613          	andi	a2,a2,127
    2e10:	03e38f33          	mul	t5,t2,t5
    2e14:	00f70733          	add	a4,a4,a5
    2e18:	03ce8e33          	mul	t3,t4,t3
    2e1c:	01e70733          	add	a4,a4,t5
    2e20:	02cf8633          	mul	a2,t6,a2
    2e24:	01c70733          	add	a4,a4,t3
    2e28:	00c70733          	add	a4,a4,a2
    2e2c:	f4bb9ee3          	bne	s7,a1,2d88 <core_bench_matrix+0xcd8>
    2e30:	00e32023          	sw	a4,0(t1)
    2e34:	00188893          	addi	a7,a7,1
    2e38:	00430313          	addi	t1,t1,4
    2e3c:	00250513          	addi	a0,a0,2
    2e40:	e91998e3          	bne	s3,a7,2cd0 <core_bench_matrix+0xc20>
    2e44:	001c0c13          	addi	s8,s8,1
    2e48:	01680833          	add	a6,a6,s6
    2e4c:	009a8ab3          	add	s5,s5,s1
    2e50:	009b8bb3          	add	s7,s7,s1
    2e54:	e5899ee3          	bne	s3,s8,2cb0 <core_bench_matrix+0xc00>
    2e58:	00412783          	lw	a5,4(sp)
    2e5c:	00000513          	li	a0,0
    2e60:	00000313          	li	t1,0
    2e64:	00000893          	li	a7,0
    2e68:	00000713          	li	a4,0
    2e6c:	00379693          	slli	a3,a5,0x3
    2e70:	016d0b33          	add	s6,s10,s6
    2e74:	00279593          	slli	a1,a5,0x2
    2e78:	01658833          	add	a6,a1,s6
    2e7c:	410b0e33          	sub	t3,s6,a6
    2e80:	ffce0e13          	addi	t3,t3,-4
    2e84:	002e5e13          	srli	t3,t3,0x2
    2e88:	001e0e13          	addi	t3,t3,1
    2e8c:	007e7e13          	andi	t3,t3,7
    2e90:	00080613          	mv	a2,a6
    2e94:	100e0ce3          	beqz	t3,37ac <core_bench_matrix+0x16fc>
    2e98:	00100793          	li	a5,1
    2e9c:	10fe0263          	beq	t3,a5,2fa0 <core_bench_matrix+0xef0>
    2ea0:	00200793          	li	a5,2
    2ea4:	0cfe0c63          	beq	t3,a5,2f7c <core_bench_matrix+0xecc>
    2ea8:	00300793          	li	a5,3
    2eac:	0afe0663          	beq	t3,a5,2f58 <core_bench_matrix+0xea8>
    2eb0:	00400793          	li	a5,4
    2eb4:	08fe0063          	beq	t3,a5,2f34 <core_bench_matrix+0xe84>
    2eb8:	00500793          	li	a5,5
    2ebc:	04fe0a63          	beq	t3,a5,2f10 <core_bench_matrix+0xe60>
    2ec0:	00600793          	li	a5,6
    2ec4:	02fe0463          	beq	t3,a5,2eec <core_bench_matrix+0xe3c>
    2ec8:	00030793          	mv	a5,t1
    2ecc:	00082303          	lw	t1,0(a6)
    2ed0:	006888b3          	add	a7,a7,t1
    2ed4:	3b1440e3          	blt	s0,a7,3a74 <core_bench_matrix+0x19c4>
    2ed8:	0067a7b3          	slt	a5,a5,t1
    2edc:	00f507b3          	add	a5,a0,a5
    2ee0:	01079513          	slli	a0,a5,0x10
    2ee4:	41055513          	srai	a0,a0,0x10
    2ee8:	00480613          	addi	a2,a6,4
    2eec:	00030793          	mv	a5,t1
    2ef0:	00062303          	lw	t1,0(a2)
    2ef4:	006888b3          	add	a7,a7,t1
    2ef8:	35144ae3          	blt	s0,a7,3a4c <core_bench_matrix+0x199c>
    2efc:	0067a7b3          	slt	a5,a5,t1
    2f00:	00f507b3          	add	a5,a0,a5
    2f04:	01079513          	slli	a0,a5,0x10
    2f08:	41055513          	srai	a0,a0,0x10
    2f0c:	00460613          	addi	a2,a2,4
    2f10:	00030793          	mv	a5,t1
    2f14:	00062303          	lw	t1,0(a2)
    2f18:	006888b3          	add	a7,a7,t1
    2f1c:	2b144ce3          	blt	s0,a7,39d4 <core_bench_matrix+0x1924>
    2f20:	0067a7b3          	slt	a5,a5,t1
    2f24:	00f507b3          	add	a5,a0,a5
    2f28:	01079513          	slli	a0,a5,0x10
    2f2c:	41055513          	srai	a0,a0,0x10
    2f30:	00460613          	addi	a2,a2,4
    2f34:	00030793          	mv	a5,t1
    2f38:	00062303          	lw	t1,0(a2)
    2f3c:	006888b3          	add	a7,a7,t1
    2f40:	251442e3          	blt	s0,a7,3984 <core_bench_matrix+0x18d4>
    2f44:	0067a7b3          	slt	a5,a5,t1
    2f48:	00f507b3          	add	a5,a0,a5
    2f4c:	01079513          	slli	a0,a5,0x10
    2f50:	41055513          	srai	a0,a0,0x10
    2f54:	00460613          	addi	a2,a2,4
    2f58:	00030793          	mv	a5,t1
    2f5c:	00062303          	lw	t1,0(a2)
    2f60:	006888b3          	add	a7,a7,t1
    2f64:	1f144ce3          	blt	s0,a7,395c <core_bench_matrix+0x18ac>
    2f68:	0067a7b3          	slt	a5,a5,t1
    2f6c:	00f507b3          	add	a5,a0,a5
    2f70:	01079513          	slli	a0,a5,0x10
    2f74:	41055513          	srai	a0,a0,0x10
    2f78:	00460613          	addi	a2,a2,4
    2f7c:	00030793          	mv	a5,t1
    2f80:	00062303          	lw	t1,0(a2)
    2f84:	006888b3          	add	a7,a7,t1
    2f88:	15144ee3          	blt	s0,a7,38e4 <core_bench_matrix+0x1834>
    2f8c:	0067a7b3          	slt	a5,a5,t1
    2f90:	00f507b3          	add	a5,a0,a5
    2f94:	01079513          	slli	a0,a5,0x10
    2f98:	41055513          	srai	a0,a0,0x10
    2f9c:	00460613          	addi	a2,a2,4
    2fa0:	00030793          	mv	a5,t1
    2fa4:	00062303          	lw	t1,0(a2)
    2fa8:	006888b3          	add	a7,a7,t1
    2fac:	111448e3          	blt	s0,a7,38bc <core_bench_matrix+0x180c>
    2fb0:	0067a7b3          	slt	a5,a5,t1
    2fb4:	00f507b3          	add	a5,a0,a5
    2fb8:	01079513          	slli	a0,a5,0x10
    2fbc:	41055513          	srai	a0,a0,0x10
    2fc0:	00460613          	addi	a2,a2,4
    2fc4:	7ecb1463          	bne	s6,a2,37ac <core_bench_matrix+0x16fc>
    2fc8:	00170713          	addi	a4,a4,1
    2fcc:	40d80b33          	sub	s6,a6,a3
    2fd0:	eae994e3          	bne	s3,a4,2e78 <core_bench_matrix+0xdc8>
    2fd4:	000a0593          	mv	a1,s4
    2fd8:	7a8050ef          	jal	ra,8780 <crc16>
    2fdc:	00412783          	lw	a5,4(sp)
    2fe0:	00812703          	lw	a4,8(sp)
    2fe4:	00000313          	li	t1,0
    2fe8:	00279e13          	slli	t3,a5,0x2
    2fec:	009704b3          	add	s1,a4,s1
    2ff0:	00179f13          	slli	t5,a5,0x1
    2ff4:	009f06b3          	add	a3,t5,s1
    2ff8:	40d48733          	sub	a4,s1,a3
    2ffc:	ffe70713          	addi	a4,a4,-2
    3000:	00175713          	srli	a4,a4,0x1
    3004:	00170713          	addi	a4,a4,1
    3008:	00777713          	andi	a4,a4,7
    300c:	00068793          	mv	a5,a3
    3010:	0a070463          	beqz	a4,30b8 <core_bench_matrix+0x1008>
    3014:	00100613          	li	a2,1
    3018:	08c70663          	beq	a4,a2,30a4 <core_bench_matrix+0xff4>
    301c:	00200613          	li	a2,2
    3020:	06c70a63          	beq	a4,a2,3094 <core_bench_matrix+0xfe4>
    3024:	00300613          	li	a2,3
    3028:	04c70e63          	beq	a4,a2,3084 <core_bench_matrix+0xfd4>
    302c:	00400613          	li	a2,4
    3030:	04c70263          	beq	a4,a2,3074 <core_bench_matrix+0xfc4>
    3034:	00500613          	li	a2,5
    3038:	02c70663          	beq	a4,a2,3064 <core_bench_matrix+0xfb4>
    303c:	00600613          	li	a2,6
    3040:	00c70a63          	beq	a4,a2,3054 <core_bench_matrix+0xfa4>
    3044:	0006d703          	lhu	a4,0(a3)
    3048:	00268793          	addi	a5,a3,2
    304c:	41270733          	sub	a4,a4,s2
    3050:	00e69023          	sh	a4,0(a3)
    3054:	0007d703          	lhu	a4,0(a5)
    3058:	00278793          	addi	a5,a5,2
    305c:	41270733          	sub	a4,a4,s2
    3060:	fee79f23          	sh	a4,-2(a5)
    3064:	0007d703          	lhu	a4,0(a5)
    3068:	00278793          	addi	a5,a5,2
    306c:	41270733          	sub	a4,a4,s2
    3070:	fee79f23          	sh	a4,-2(a5)
    3074:	0007d703          	lhu	a4,0(a5)
    3078:	00278793          	addi	a5,a5,2
    307c:	41270733          	sub	a4,a4,s2
    3080:	fee79f23          	sh	a4,-2(a5)
    3084:	0007d703          	lhu	a4,0(a5)
    3088:	00278793          	addi	a5,a5,2
    308c:	41270733          	sub	a4,a4,s2
    3090:	fee79f23          	sh	a4,-2(a5)
    3094:	0007d703          	lhu	a4,0(a5)
    3098:	00278793          	addi	a5,a5,2
    309c:	41270733          	sub	a4,a4,s2
    30a0:	fee79f23          	sh	a4,-2(a5)
    30a4:	0007d703          	lhu	a4,0(a5)
    30a8:	00278793          	addi	a5,a5,2
    30ac:	41270733          	sub	a4,a4,s2
    30b0:	fee79f23          	sh	a4,-2(a5)
    30b4:	06978663          	beq	a5,s1,3120 <core_bench_matrix+0x1070>
    30b8:	0007d283          	lhu	t0,0(a5)
    30bc:	0027df83          	lhu	t6,2(a5)
    30c0:	0047de83          	lhu	t4,4(a5)
    30c4:	0067d883          	lhu	a7,6(a5)
    30c8:	0087d803          	lhu	a6,8(a5)
    30cc:	00a7d583          	lhu	a1,10(a5)
    30d0:	00c7d603          	lhu	a2,12(a5)
    30d4:	00e7d703          	lhu	a4,14(a5)
    30d8:	412282b3          	sub	t0,t0,s2
    30dc:	412f8fb3          	sub	t6,t6,s2
    30e0:	412e8eb3          	sub	t4,t4,s2
    30e4:	412888b3          	sub	a7,a7,s2
    30e8:	41280833          	sub	a6,a6,s2
    30ec:	412585b3          	sub	a1,a1,s2
    30f0:	41260633          	sub	a2,a2,s2
    30f4:	41270733          	sub	a4,a4,s2
    30f8:	00579023          	sh	t0,0(a5)
    30fc:	01f79123          	sh	t6,2(a5)
    3100:	01d79223          	sh	t4,4(a5)
    3104:	01179323          	sh	a7,6(a5)
    3108:	01079423          	sh	a6,8(a5)
    310c:	00b79523          	sh	a1,10(a5)
    3110:	00c79623          	sh	a2,12(a5)
    3114:	00e79723          	sh	a4,14(a5)
    3118:	01078793          	addi	a5,a5,16
    311c:	f8979ee3          	bne	a5,s1,30b8 <core_bench_matrix+0x1008>
    3120:	00130313          	addi	t1,t1,1
    3124:	41c684b3          	sub	s1,a3,t3
    3128:	ec6996e3          	bne	s3,t1,2ff4 <core_bench_matrix+0xf44>
    312c:	05812403          	lw	s0,88(sp)
    3130:	01012583          	lw	a1,16(sp)
    3134:	05c12083          	lw	ra,92(sp)
    3138:	05412483          	lw	s1,84(sp)
    313c:	05012903          	lw	s2,80(sp)
    3140:	04c12983          	lw	s3,76(sp)
    3144:	04812a03          	lw	s4,72(sp)
    3148:	04412a83          	lw	s5,68(sp)
    314c:	04012b03          	lw	s6,64(sp)
    3150:	03c12b83          	lw	s7,60(sp)
    3154:	03812c03          	lw	s8,56(sp)
    3158:	03412c83          	lw	s9,52(sp)
    315c:	03012d03          	lw	s10,48(sp)
    3160:	02c12d83          	lw	s11,44(sp)
    3164:	01051513          	slli	a0,a0,0x10
    3168:	41055513          	srai	a0,a0,0x10
    316c:	06010113          	addi	sp,sp,96
    3170:	6100506f          	j	8780 <crc16>
    3174:	0046ae03          	lw	t3,4(a3)
    3178:	00a50793          	addi	a5,a0,10
    317c:	00000313          	li	t1,0
    3180:	01079793          	slli	a5,a5,0x10
    3184:	01c30333          	add	t1,t1,t3
    3188:	4107d793          	srai	a5,a5,0x10
    318c:	00468693          	addi	a3,a3,4
    3190:	0e645863          	bge	s0,t1,3280 <core_bench_matrix+0x11d0>
    3194:	0046a503          	lw	a0,4(a3)
    3198:	00a78793          	addi	a5,a5,10
    319c:	00000313          	li	t1,0
    31a0:	01079793          	slli	a5,a5,0x10
    31a4:	00a30333          	add	t1,t1,a0
    31a8:	4107d793          	srai	a5,a5,0x10
    31ac:	0e644863          	blt	s0,t1,329c <core_bench_matrix+0x11ec>
    31b0:	00ae2e33          	slt	t3,t3,a0
    31b4:	01c787b3          	add	a5,a5,t3
    31b8:	0086ae03          	lw	t3,8(a3)
    31bc:	01079793          	slli	a5,a5,0x10
    31c0:	4107d793          	srai	a5,a5,0x10
    31c4:	01c30333          	add	t1,t1,t3
    31c8:	0e644863          	blt	s0,t1,32b8 <core_bench_matrix+0x1208>
    31cc:	01c52533          	slt	a0,a0,t3
    31d0:	00a787b3          	add	a5,a5,a0
    31d4:	00c6a503          	lw	a0,12(a3)
    31d8:	01079793          	slli	a5,a5,0x10
    31dc:	4107d793          	srai	a5,a5,0x10
    31e0:	00a30333          	add	t1,t1,a0
    31e4:	0e644863          	blt	s0,t1,32d4 <core_bench_matrix+0x1224>
    31e8:	00ae2e33          	slt	t3,t3,a0
    31ec:	01c787b3          	add	a5,a5,t3
    31f0:	0106ae03          	lw	t3,16(a3)
    31f4:	01079793          	slli	a5,a5,0x10
    31f8:	4107d793          	srai	a5,a5,0x10
    31fc:	01c30333          	add	t1,t1,t3
    3200:	0e644863          	blt	s0,t1,32f0 <core_bench_matrix+0x1240>
    3204:	01c52533          	slt	a0,a0,t3
    3208:	00a787b3          	add	a5,a5,a0
    320c:	0146a503          	lw	a0,20(a3)
    3210:	01079793          	slli	a5,a5,0x10
    3214:	4107d793          	srai	a5,a5,0x10
    3218:	00a30333          	add	t1,t1,a0
    321c:	0e644863          	blt	s0,t1,330c <core_bench_matrix+0x125c>
    3220:	00ae2e33          	slt	t3,t3,a0
    3224:	01c787b3          	add	a5,a5,t3
    3228:	0186ae03          	lw	t3,24(a3)
    322c:	01079793          	slli	a5,a5,0x10
    3230:	4107d793          	srai	a5,a5,0x10
    3234:	01c30333          	add	t1,t1,t3
    3238:	0e644863          	blt	s0,t1,3328 <core_bench_matrix+0x1278>
    323c:	01c52533          	slt	a0,a0,t3
    3240:	00a787b3          	add	a5,a5,a0
    3244:	01079513          	slli	a0,a5,0x10
    3248:	41055513          	srai	a0,a0,0x10
    324c:	01c68693          	addi	a3,a3,28
    3250:	b2d70463          	beq	a4,a3,2578 <core_bench_matrix+0x4c8>
    3254:	0006ae83          	lw	t4,0(a3)
    3258:	01d30333          	add	t1,t1,t4
    325c:	f0644ce3          	blt	s0,t1,3174 <core_bench_matrix+0x10c4>
    3260:	01de27b3          	slt	a5,t3,t4
    3264:	0046ae03          	lw	t3,4(a3)
    3268:	00f507b3          	add	a5,a0,a5
    326c:	01079793          	slli	a5,a5,0x10
    3270:	01c30333          	add	t1,t1,t3
    3274:	4107d793          	srai	a5,a5,0x10
    3278:	00468693          	addi	a3,a3,4
    327c:	f0644ce3          	blt	s0,t1,3194 <core_bench_matrix+0x10e4>
    3280:	0046a503          	lw	a0,4(a3)
    3284:	01ceaeb3          	slt	t4,t4,t3
    3288:	01d787b3          	add	a5,a5,t4
    328c:	01079793          	slli	a5,a5,0x10
    3290:	00a30333          	add	t1,t1,a0
    3294:	4107d793          	srai	a5,a5,0x10
    3298:	f0645ce3          	bge	s0,t1,31b0 <core_bench_matrix+0x1100>
    329c:	0086ae03          	lw	t3,8(a3)
    32a0:	00a78793          	addi	a5,a5,10
    32a4:	00000313          	li	t1,0
    32a8:	01079793          	slli	a5,a5,0x10
    32ac:	01c30333          	add	t1,t1,t3
    32b0:	4107d793          	srai	a5,a5,0x10
    32b4:	f0645ce3          	bge	s0,t1,31cc <core_bench_matrix+0x111c>
    32b8:	00c6a503          	lw	a0,12(a3)
    32bc:	00a78793          	addi	a5,a5,10
    32c0:	00000313          	li	t1,0
    32c4:	01079793          	slli	a5,a5,0x10
    32c8:	00a30333          	add	t1,t1,a0
    32cc:	4107d793          	srai	a5,a5,0x10
    32d0:	f0645ce3          	bge	s0,t1,31e8 <core_bench_matrix+0x1138>
    32d4:	0106ae03          	lw	t3,16(a3)
    32d8:	00a78793          	addi	a5,a5,10
    32dc:	00000313          	li	t1,0
    32e0:	01079793          	slli	a5,a5,0x10
    32e4:	01c30333          	add	t1,t1,t3
    32e8:	4107d793          	srai	a5,a5,0x10
    32ec:	f0645ce3          	bge	s0,t1,3204 <core_bench_matrix+0x1154>
    32f0:	0146a503          	lw	a0,20(a3)
    32f4:	00a78793          	addi	a5,a5,10
    32f8:	00000313          	li	t1,0
    32fc:	01079793          	slli	a5,a5,0x10
    3300:	00a30333          	add	t1,t1,a0
    3304:	4107d793          	srai	a5,a5,0x10
    3308:	f0645ce3          	bge	s0,t1,3220 <core_bench_matrix+0x1170>
    330c:	0186ae03          	lw	t3,24(a3)
    3310:	00a78793          	addi	a5,a5,10
    3314:	00000313          	li	t1,0
    3318:	01079793          	slli	a5,a5,0x10
    331c:	01c30333          	add	t1,t1,t3
    3320:	4107d793          	srai	a5,a5,0x10
    3324:	f0645ce3          	bge	s0,t1,323c <core_bench_matrix+0x118c>
    3328:	00a78793          	addi	a5,a5,10
    332c:	01079513          	slli	a0,a5,0x10
    3330:	41055513          	srai	a0,a0,0x10
    3334:	00000313          	li	t1,0
    3338:	f15ff06f          	j	324c <core_bench_matrix+0x119c>
    333c:	0046ae03          	lw	t3,4(a3)
    3340:	00a50793          	addi	a5,a0,10
    3344:	00000313          	li	t1,0
    3348:	01079793          	slli	a5,a5,0x10
    334c:	01c30333          	add	t1,t1,t3
    3350:	4107d793          	srai	a5,a5,0x10
    3354:	00468693          	addi	a3,a3,4
    3358:	0e645863          	bge	s0,t1,3448 <core_bench_matrix+0x1398>
    335c:	0046a503          	lw	a0,4(a3)
    3360:	00a78793          	addi	a5,a5,10
    3364:	00000313          	li	t1,0
    3368:	01079793          	slli	a5,a5,0x10
    336c:	00a30333          	add	t1,t1,a0
    3370:	4107d793          	srai	a5,a5,0x10
    3374:	0e644863          	blt	s0,t1,3464 <core_bench_matrix+0x13b4>
    3378:	00ae2e33          	slt	t3,t3,a0
    337c:	01c787b3          	add	a5,a5,t3
    3380:	0086ae03          	lw	t3,8(a3)
    3384:	01079793          	slli	a5,a5,0x10
    3388:	4107d793          	srai	a5,a5,0x10
    338c:	01c30333          	add	t1,t1,t3
    3390:	0e644863          	blt	s0,t1,3480 <core_bench_matrix+0x13d0>
    3394:	01c52533          	slt	a0,a0,t3
    3398:	00a787b3          	add	a5,a5,a0
    339c:	00c6a503          	lw	a0,12(a3)
    33a0:	01079793          	slli	a5,a5,0x10
    33a4:	4107d793          	srai	a5,a5,0x10
    33a8:	00a30333          	add	t1,t1,a0
    33ac:	0e644863          	blt	s0,t1,349c <core_bench_matrix+0x13ec>
    33b0:	00ae2e33          	slt	t3,t3,a0
    33b4:	01c787b3          	add	a5,a5,t3
    33b8:	0106ae03          	lw	t3,16(a3)
    33bc:	01079793          	slli	a5,a5,0x10
    33c0:	4107d793          	srai	a5,a5,0x10
    33c4:	01c30333          	add	t1,t1,t3
    33c8:	0e644863          	blt	s0,t1,34b8 <core_bench_matrix+0x1408>
    33cc:	01c52533          	slt	a0,a0,t3
    33d0:	00a787b3          	add	a5,a5,a0
    33d4:	0146a503          	lw	a0,20(a3)
    33d8:	01079793          	slli	a5,a5,0x10
    33dc:	4107d793          	srai	a5,a5,0x10
    33e0:	00a30333          	add	t1,t1,a0
    33e4:	0e644863          	blt	s0,t1,34d4 <core_bench_matrix+0x1424>
    33e8:	00ae2e33          	slt	t3,t3,a0
    33ec:	01c787b3          	add	a5,a5,t3
    33f0:	0186ae03          	lw	t3,24(a3)
    33f4:	01079793          	slli	a5,a5,0x10
    33f8:	4107d793          	srai	a5,a5,0x10
    33fc:	01c30333          	add	t1,t1,t3
    3400:	0e644863          	blt	s0,t1,34f0 <core_bench_matrix+0x1440>
    3404:	01c52533          	slt	a0,a0,t3
    3408:	00a787b3          	add	a5,a5,a0
    340c:	01079513          	slli	a0,a5,0x10
    3410:	41055513          	srai	a0,a0,0x10
    3414:	01c68693          	addi	a3,a3,28
    3418:	ccd70663          	beq	a4,a3,28e4 <core_bench_matrix+0x834>
    341c:	0006ae83          	lw	t4,0(a3)
    3420:	01d30333          	add	t1,t1,t4
    3424:	f0644ce3          	blt	s0,t1,333c <core_bench_matrix+0x128c>
    3428:	01de27b3          	slt	a5,t3,t4
    342c:	0046ae03          	lw	t3,4(a3)
    3430:	00f507b3          	add	a5,a0,a5
    3434:	01079793          	slli	a5,a5,0x10
    3438:	01c30333          	add	t1,t1,t3
    343c:	4107d793          	srai	a5,a5,0x10
    3440:	00468693          	addi	a3,a3,4
    3444:	f0644ce3          	blt	s0,t1,335c <core_bench_matrix+0x12ac>
    3448:	0046a503          	lw	a0,4(a3)
    344c:	01ceaeb3          	slt	t4,t4,t3
    3450:	01d787b3          	add	a5,a5,t4
    3454:	01079793          	slli	a5,a5,0x10
    3458:	00a30333          	add	t1,t1,a0
    345c:	4107d793          	srai	a5,a5,0x10
    3460:	f0645ce3          	bge	s0,t1,3378 <core_bench_matrix+0x12c8>
    3464:	0086ae03          	lw	t3,8(a3)
    3468:	00a78793          	addi	a5,a5,10
    346c:	00000313          	li	t1,0
    3470:	01079793          	slli	a5,a5,0x10
    3474:	01c30333          	add	t1,t1,t3
    3478:	4107d793          	srai	a5,a5,0x10
    347c:	f0645ce3          	bge	s0,t1,3394 <core_bench_matrix+0x12e4>
    3480:	00c6a503          	lw	a0,12(a3)
    3484:	00a78793          	addi	a5,a5,10
    3488:	00000313          	li	t1,0
    348c:	01079793          	slli	a5,a5,0x10
    3490:	00a30333          	add	t1,t1,a0
    3494:	4107d793          	srai	a5,a5,0x10
    3498:	f0645ce3          	bge	s0,t1,33b0 <core_bench_matrix+0x1300>
    349c:	0106ae03          	lw	t3,16(a3)
    34a0:	00a78793          	addi	a5,a5,10
    34a4:	00000313          	li	t1,0
    34a8:	01079793          	slli	a5,a5,0x10
    34ac:	01c30333          	add	t1,t1,t3
    34b0:	4107d793          	srai	a5,a5,0x10
    34b4:	f0645ce3          	bge	s0,t1,33cc <core_bench_matrix+0x131c>
    34b8:	0146a503          	lw	a0,20(a3)
    34bc:	00a78793          	addi	a5,a5,10
    34c0:	00000313          	li	t1,0
    34c4:	01079793          	slli	a5,a5,0x10
    34c8:	00a30333          	add	t1,t1,a0
    34cc:	4107d793          	srai	a5,a5,0x10
    34d0:	f0645ce3          	bge	s0,t1,33e8 <core_bench_matrix+0x1338>
    34d4:	0186ae03          	lw	t3,24(a3)
    34d8:	00a78793          	addi	a5,a5,10
    34dc:	00000313          	li	t1,0
    34e0:	01079793          	slli	a5,a5,0x10
    34e4:	01c30333          	add	t1,t1,t3
    34e8:	4107d793          	srai	a5,a5,0x10
    34ec:	f0645ce3          	bge	s0,t1,3404 <core_bench_matrix+0x1354>
    34f0:	00a78793          	addi	a5,a5,10
    34f4:	01079513          	slli	a0,a5,0x10
    34f8:	41055513          	srai	a0,a0,0x10
    34fc:	00000313          	li	t1,0
    3500:	f15ff06f          	j	3414 <core_bench_matrix+0x1364>
    3504:	0046ae03          	lw	t3,4(a3)
    3508:	00a50793          	addi	a5,a0,10
    350c:	00000313          	li	t1,0
    3510:	01079793          	slli	a5,a5,0x10
    3514:	01c30333          	add	t1,t1,t3
    3518:	4107d793          	srai	a5,a5,0x10
    351c:	00468693          	addi	a3,a3,4
    3520:	0e645863          	bge	s0,t1,3610 <core_bench_matrix+0x1560>
    3524:	0046a503          	lw	a0,4(a3)
    3528:	00a78793          	addi	a5,a5,10
    352c:	00000313          	li	t1,0
    3530:	01079793          	slli	a5,a5,0x10
    3534:	00a30333          	add	t1,t1,a0
    3538:	4107d793          	srai	a5,a5,0x10
    353c:	0e644863          	blt	s0,t1,362c <core_bench_matrix+0x157c>
    3540:	00ae2e33          	slt	t3,t3,a0
    3544:	01c787b3          	add	a5,a5,t3
    3548:	0086ae03          	lw	t3,8(a3)
    354c:	01079793          	slli	a5,a5,0x10
    3550:	4107d793          	srai	a5,a5,0x10
    3554:	01c30333          	add	t1,t1,t3
    3558:	0e644863          	blt	s0,t1,3648 <core_bench_matrix+0x1598>
    355c:	01c52533          	slt	a0,a0,t3
    3560:	00a787b3          	add	a5,a5,a0
    3564:	00c6a503          	lw	a0,12(a3)
    3568:	01079793          	slli	a5,a5,0x10
    356c:	4107d793          	srai	a5,a5,0x10
    3570:	00a30333          	add	t1,t1,a0
    3574:	0e644863          	blt	s0,t1,3664 <core_bench_matrix+0x15b4>
    3578:	00ae2e33          	slt	t3,t3,a0
    357c:	01c787b3          	add	a5,a5,t3
    3580:	0106ae03          	lw	t3,16(a3)
    3584:	01079793          	slli	a5,a5,0x10
    3588:	4107d793          	srai	a5,a5,0x10
    358c:	01c30333          	add	t1,t1,t3
    3590:	0e644863          	blt	s0,t1,3680 <core_bench_matrix+0x15d0>
    3594:	01c52533          	slt	a0,a0,t3
    3598:	00a787b3          	add	a5,a5,a0
    359c:	0146a503          	lw	a0,20(a3)
    35a0:	01079793          	slli	a5,a5,0x10
    35a4:	4107d793          	srai	a5,a5,0x10
    35a8:	00a30333          	add	t1,t1,a0
    35ac:	0e644863          	blt	s0,t1,369c <core_bench_matrix+0x15ec>
    35b0:	00ae2e33          	slt	t3,t3,a0
    35b4:	01c787b3          	add	a5,a5,t3
    35b8:	0186ae03          	lw	t3,24(a3)
    35bc:	01079793          	slli	a5,a5,0x10
    35c0:	4107d793          	srai	a5,a5,0x10
    35c4:	01c30333          	add	t1,t1,t3
    35c8:	0e644863          	blt	s0,t1,36b8 <core_bench_matrix+0x1608>
    35cc:	01c52533          	slt	a0,a0,t3
    35d0:	00a787b3          	add	a5,a5,a0
    35d4:	01079513          	slli	a0,a5,0x10
    35d8:	41055513          	srai	a0,a0,0x10
    35dc:	01c68693          	addi	a3,a3,28
    35e0:	ead70263          	beq	a4,a3,2c84 <core_bench_matrix+0xbd4>
    35e4:	0006ae83          	lw	t4,0(a3)
    35e8:	01d30333          	add	t1,t1,t4
    35ec:	f0644ce3          	blt	s0,t1,3504 <core_bench_matrix+0x1454>
    35f0:	01de27b3          	slt	a5,t3,t4
    35f4:	0046ae03          	lw	t3,4(a3)
    35f8:	00f507b3          	add	a5,a0,a5
    35fc:	01079793          	slli	a5,a5,0x10
    3600:	01c30333          	add	t1,t1,t3
    3604:	4107d793          	srai	a5,a5,0x10
    3608:	00468693          	addi	a3,a3,4
    360c:	f0644ce3          	blt	s0,t1,3524 <core_bench_matrix+0x1474>
    3610:	0046a503          	lw	a0,4(a3)
    3614:	01ceaeb3          	slt	t4,t4,t3
    3618:	01d787b3          	add	a5,a5,t4
    361c:	01079793          	slli	a5,a5,0x10
    3620:	00a30333          	add	t1,t1,a0
    3624:	4107d793          	srai	a5,a5,0x10
    3628:	f0645ce3          	bge	s0,t1,3540 <core_bench_matrix+0x1490>
    362c:	0086ae03          	lw	t3,8(a3)
    3630:	00a78793          	addi	a5,a5,10
    3634:	00000313          	li	t1,0
    3638:	01079793          	slli	a5,a5,0x10
    363c:	01c30333          	add	t1,t1,t3
    3640:	4107d793          	srai	a5,a5,0x10
    3644:	f0645ce3          	bge	s0,t1,355c <core_bench_matrix+0x14ac>
    3648:	00c6a503          	lw	a0,12(a3)
    364c:	00a78793          	addi	a5,a5,10
    3650:	00000313          	li	t1,0
    3654:	01079793          	slli	a5,a5,0x10
    3658:	00a30333          	add	t1,t1,a0
    365c:	4107d793          	srai	a5,a5,0x10
    3660:	f0645ce3          	bge	s0,t1,3578 <core_bench_matrix+0x14c8>
    3664:	0106ae03          	lw	t3,16(a3)
    3668:	00a78793          	addi	a5,a5,10
    366c:	00000313          	li	t1,0
    3670:	01079793          	slli	a5,a5,0x10
    3674:	01c30333          	add	t1,t1,t3
    3678:	4107d793          	srai	a5,a5,0x10
    367c:	f0645ce3          	bge	s0,t1,3594 <core_bench_matrix+0x14e4>
    3680:	0146a503          	lw	a0,20(a3)
    3684:	00a78793          	addi	a5,a5,10
    3688:	00000313          	li	t1,0
    368c:	01079793          	slli	a5,a5,0x10
    3690:	00a30333          	add	t1,t1,a0
    3694:	4107d793          	srai	a5,a5,0x10
    3698:	f0645ce3          	bge	s0,t1,35b0 <core_bench_matrix+0x1500>
    369c:	0186ae03          	lw	t3,24(a3)
    36a0:	00a78793          	addi	a5,a5,10
    36a4:	00000313          	li	t1,0
    36a8:	01079793          	slli	a5,a5,0x10
    36ac:	01c30333          	add	t1,t1,t3
    36b0:	4107d793          	srai	a5,a5,0x10
    36b4:	f0645ce3          	bge	s0,t1,35cc <core_bench_matrix+0x151c>
    36b8:	00a78793          	addi	a5,a5,10
    36bc:	01079513          	slli	a0,a5,0x10
    36c0:	41055513          	srai	a0,a0,0x10
    36c4:	00000313          	li	t1,0
    36c8:	f15ff06f          	j	35dc <core_bench_matrix+0x152c>
    36cc:	00462303          	lw	t1,4(a2)
    36d0:	00a50793          	addi	a5,a0,10
    36d4:	00000893          	li	a7,0
    36d8:	01079793          	slli	a5,a5,0x10
    36dc:	006888b3          	add	a7,a7,t1
    36e0:	4107d793          	srai	a5,a5,0x10
    36e4:	00460613          	addi	a2,a2,4
    36e8:	0f145863          	bge	s0,a7,37d8 <core_bench_matrix+0x1728>
    36ec:	00462503          	lw	a0,4(a2)
    36f0:	00a78793          	addi	a5,a5,10
    36f4:	00000893          	li	a7,0
    36f8:	01079793          	slli	a5,a5,0x10
    36fc:	00a888b3          	add	a7,a7,a0
    3700:	4107d793          	srai	a5,a5,0x10
    3704:	0f144863          	blt	s0,a7,37f4 <core_bench_matrix+0x1744>
    3708:	00a32333          	slt	t1,t1,a0
    370c:	006787b3          	add	a5,a5,t1
    3710:	00862303          	lw	t1,8(a2)
    3714:	01079793          	slli	a5,a5,0x10
    3718:	4107d793          	srai	a5,a5,0x10
    371c:	006888b3          	add	a7,a7,t1
    3720:	0f144863          	blt	s0,a7,3810 <core_bench_matrix+0x1760>
    3724:	00652533          	slt	a0,a0,t1
    3728:	00a787b3          	add	a5,a5,a0
    372c:	00c62503          	lw	a0,12(a2)
    3730:	01079793          	slli	a5,a5,0x10
    3734:	4107d793          	srai	a5,a5,0x10
    3738:	00a888b3          	add	a7,a7,a0
    373c:	0f144863          	blt	s0,a7,382c <core_bench_matrix+0x177c>
    3740:	00a32333          	slt	t1,t1,a0
    3744:	006787b3          	add	a5,a5,t1
    3748:	01062303          	lw	t1,16(a2)
    374c:	01079793          	slli	a5,a5,0x10
    3750:	4107d793          	srai	a5,a5,0x10
    3754:	006888b3          	add	a7,a7,t1
    3758:	0f144863          	blt	s0,a7,3848 <core_bench_matrix+0x1798>
    375c:	00652533          	slt	a0,a0,t1
    3760:	00a787b3          	add	a5,a5,a0
    3764:	01462503          	lw	a0,20(a2)
    3768:	01079793          	slli	a5,a5,0x10
    376c:	4107d793          	srai	a5,a5,0x10
    3770:	00a888b3          	add	a7,a7,a0
    3774:	0f144863          	blt	s0,a7,3864 <core_bench_matrix+0x17b4>
    3778:	00a32333          	slt	t1,t1,a0
    377c:	006787b3          	add	a5,a5,t1
    3780:	01862303          	lw	t1,24(a2)
    3784:	01079793          	slli	a5,a5,0x10
    3788:	4107d793          	srai	a5,a5,0x10
    378c:	006888b3          	add	a7,a7,t1
    3790:	0f144863          	blt	s0,a7,3880 <core_bench_matrix+0x17d0>
    3794:	00652533          	slt	a0,a0,t1
    3798:	00a787b3          	add	a5,a5,a0
    379c:	01079513          	slli	a0,a5,0x10
    37a0:	41055513          	srai	a0,a0,0x10
    37a4:	01c60613          	addi	a2,a2,28
    37a8:	82cb00e3          	beq	s6,a2,2fc8 <core_bench_matrix+0xf18>
    37ac:	00062e03          	lw	t3,0(a2)
    37b0:	01c888b3          	add	a7,a7,t3
    37b4:	f1144ce3          	blt	s0,a7,36cc <core_bench_matrix+0x161c>
    37b8:	01c327b3          	slt	a5,t1,t3
    37bc:	00462303          	lw	t1,4(a2)
    37c0:	00f507b3          	add	a5,a0,a5
    37c4:	01079793          	slli	a5,a5,0x10
    37c8:	006888b3          	add	a7,a7,t1
    37cc:	4107d793          	srai	a5,a5,0x10
    37d0:	00460613          	addi	a2,a2,4
    37d4:	f1144ce3          	blt	s0,a7,36ec <core_bench_matrix+0x163c>
    37d8:	00462503          	lw	a0,4(a2)
    37dc:	006e2e33          	slt	t3,t3,t1
    37e0:	01c787b3          	add	a5,a5,t3
    37e4:	01079793          	slli	a5,a5,0x10
    37e8:	00a888b3          	add	a7,a7,a0
    37ec:	4107d793          	srai	a5,a5,0x10
    37f0:	f1145ce3          	bge	s0,a7,3708 <core_bench_matrix+0x1658>
    37f4:	00862303          	lw	t1,8(a2)
    37f8:	00a78793          	addi	a5,a5,10
    37fc:	00000893          	li	a7,0
    3800:	01079793          	slli	a5,a5,0x10
    3804:	006888b3          	add	a7,a7,t1
    3808:	4107d793          	srai	a5,a5,0x10
    380c:	f1145ce3          	bge	s0,a7,3724 <core_bench_matrix+0x1674>
    3810:	00c62503          	lw	a0,12(a2)
    3814:	00a78793          	addi	a5,a5,10
    3818:	00000893          	li	a7,0
    381c:	01079793          	slli	a5,a5,0x10
    3820:	00a888b3          	add	a7,a7,a0
    3824:	4107d793          	srai	a5,a5,0x10
    3828:	f1145ce3          	bge	s0,a7,3740 <core_bench_matrix+0x1690>
    382c:	01062303          	lw	t1,16(a2)
    3830:	00a78793          	addi	a5,a5,10
    3834:	00000893          	li	a7,0
    3838:	01079793          	slli	a5,a5,0x10
    383c:	006888b3          	add	a7,a7,t1
    3840:	4107d793          	srai	a5,a5,0x10
    3844:	f1145ce3          	bge	s0,a7,375c <core_bench_matrix+0x16ac>
    3848:	01462503          	lw	a0,20(a2)
    384c:	00a78793          	addi	a5,a5,10
    3850:	00000893          	li	a7,0
    3854:	01079793          	slli	a5,a5,0x10
    3858:	00a888b3          	add	a7,a7,a0
    385c:	4107d793          	srai	a5,a5,0x10
    3860:	f1145ce3          	bge	s0,a7,3778 <core_bench_matrix+0x16c8>
    3864:	01862303          	lw	t1,24(a2)
    3868:	00a78793          	addi	a5,a5,10
    386c:	00000893          	li	a7,0
    3870:	01079793          	slli	a5,a5,0x10
    3874:	006888b3          	add	a7,a7,t1
    3878:	4107d793          	srai	a5,a5,0x10
    387c:	f1145ce3          	bge	s0,a7,3794 <core_bench_matrix+0x16e4>
    3880:	00a78793          	addi	a5,a5,10
    3884:	01079513          	slli	a0,a5,0x10
    3888:	41055513          	srai	a0,a0,0x10
    388c:	00000893          	li	a7,0
    3890:	f15ff06f          	j	37a4 <core_bench_matrix+0x16f4>
    3894:	00a50793          	addi	a5,a0,10
    3898:	01079513          	slli	a0,a5,0x10
    389c:	41055513          	srai	a0,a0,0x10
    38a0:	00000313          	li	t1,0
    38a4:	ccdfe06f          	j	2570 <core_bench_matrix+0x4c0>
    38a8:	00a50793          	addi	a5,a0,10
    38ac:	01079513          	slli	a0,a5,0x10
    38b0:	41055513          	srai	a0,a0,0x10
    38b4:	00000313          	li	t1,0
    38b8:	824ff06f          	j	28dc <core_bench_matrix+0x82c>
    38bc:	00a50793          	addi	a5,a0,10
    38c0:	01079513          	slli	a0,a5,0x10
    38c4:	41055513          	srai	a0,a0,0x10
    38c8:	00000893          	li	a7,0
    38cc:	ef4ff06f          	j	2fc0 <core_bench_matrix+0xf10>
    38d0:	00a50793          	addi	a5,a0,10
    38d4:	01079513          	slli	a0,a5,0x10
    38d8:	41055513          	srai	a0,a0,0x10
    38dc:	00000313          	li	t1,0
    38e0:	b9cff06f          	j	2c7c <core_bench_matrix+0xbcc>
    38e4:	00a50793          	addi	a5,a0,10
    38e8:	01079513          	slli	a0,a5,0x10
    38ec:	41055513          	srai	a0,a0,0x10
    38f0:	00000893          	li	a7,0
    38f4:	ea8ff06f          	j	2f9c <core_bench_matrix+0xeec>
    38f8:	00a50793          	addi	a5,a0,10
    38fc:	01079513          	slli	a0,a5,0x10
    3900:	41055513          	srai	a0,a0,0x10
    3904:	00000313          	li	t1,0
    3908:	b50ff06f          	j	2c58 <core_bench_matrix+0xba8>
    390c:	00a50793          	addi	a5,a0,10
    3910:	01079513          	slli	a0,a5,0x10
    3914:	41055513          	srai	a0,a0,0x10
    3918:	00000313          	li	t1,0
    391c:	f9dfe06f          	j	28b8 <core_bench_matrix+0x808>
    3920:	00a50793          	addi	a5,a0,10
    3924:	01079513          	slli	a0,a5,0x10
    3928:	41055513          	srai	a0,a0,0x10
    392c:	00000313          	li	t1,0
    3930:	c19fe06f          	j	2548 <core_bench_matrix+0x498>
    3934:	00a50793          	addi	a5,a0,10
    3938:	01079513          	slli	a0,a5,0x10
    393c:	41055513          	srai	a0,a0,0x10
    3940:	00000313          	li	t1,0
    3944:	f4dfe06f          	j	2890 <core_bench_matrix+0x7e0>
    3948:	00a50793          	addi	a5,a0,10
    394c:	01079513          	slli	a0,a5,0x10
    3950:	41055513          	srai	a0,a0,0x10
    3954:	00000313          	li	t1,0
    3958:	bc9fe06f          	j	2520 <core_bench_matrix+0x470>
    395c:	00a50793          	addi	a5,a0,10
    3960:	01079513          	slli	a0,a5,0x10
    3964:	41055513          	srai	a0,a0,0x10
    3968:	00000893          	li	a7,0
    396c:	e0cff06f          	j	2f78 <core_bench_matrix+0xec8>
    3970:	00a50793          	addi	a5,a0,10
    3974:	01079513          	slli	a0,a5,0x10
    3978:	41055513          	srai	a0,a0,0x10
    397c:	00000313          	li	t1,0
    3980:	ab4ff06f          	j	2c34 <core_bench_matrix+0xb84>
    3984:	00a50793          	addi	a5,a0,10
    3988:	01079513          	slli	a0,a5,0x10
    398c:	41055513          	srai	a0,a0,0x10
    3990:	00000893          	li	a7,0
    3994:	dc0ff06f          	j	2f54 <core_bench_matrix+0xea4>
    3998:	00a50793          	addi	a5,a0,10
    399c:	01079513          	slli	a0,a5,0x10
    39a0:	41055513          	srai	a0,a0,0x10
    39a4:	00000313          	li	t1,0
    39a8:	a68ff06f          	j	2c10 <core_bench_matrix+0xb60>
    39ac:	00a50793          	addi	a5,a0,10
    39b0:	01079513          	slli	a0,a5,0x10
    39b4:	41055513          	srai	a0,a0,0x10
    39b8:	00000313          	li	t1,0
    39bc:	eadfe06f          	j	2868 <core_bench_matrix+0x7b8>
    39c0:	00a50793          	addi	a5,a0,10
    39c4:	01079513          	slli	a0,a5,0x10
    39c8:	41055513          	srai	a0,a0,0x10
    39cc:	00000313          	li	t1,0
    39d0:	b29fe06f          	j	24f8 <core_bench_matrix+0x448>
    39d4:	00a50793          	addi	a5,a0,10
    39d8:	01079513          	slli	a0,a5,0x10
    39dc:	41055513          	srai	a0,a0,0x10
    39e0:	00000893          	li	a7,0
    39e4:	d4cff06f          	j	2f30 <core_bench_matrix+0xe80>
    39e8:	00a50793          	addi	a5,a0,10
    39ec:	01079513          	slli	a0,a5,0x10
    39f0:	41055513          	srai	a0,a0,0x10
    39f4:	00000313          	li	t1,0
    39f8:	9f4ff06f          	j	2bec <core_bench_matrix+0xb3c>
    39fc:	00a50793          	addi	a5,a0,10
    3a00:	01079513          	slli	a0,a5,0x10
    3a04:	41055513          	srai	a0,a0,0x10
    3a08:	00000313          	li	t1,0
    3a0c:	e35fe06f          	j	2840 <core_bench_matrix+0x790>
    3a10:	00a50793          	addi	a5,a0,10
    3a14:	01079513          	slli	a0,a5,0x10
    3a18:	41055513          	srai	a0,a0,0x10
    3a1c:	00000313          	li	t1,0
    3a20:	ab1fe06f          	j	24d0 <core_bench_matrix+0x420>
    3a24:	00a50793          	addi	a5,a0,10
    3a28:	01079513          	slli	a0,a5,0x10
    3a2c:	41055513          	srai	a0,a0,0x10
    3a30:	00000313          	li	t1,0
    3a34:	994ff06f          	j	2bc8 <core_bench_matrix+0xb18>
    3a38:	00a50793          	addi	a5,a0,10
    3a3c:	01079513          	slli	a0,a5,0x10
    3a40:	41055513          	srai	a0,a0,0x10
    3a44:	00000313          	li	t1,0
    3a48:	a61fe06f          	j	24a8 <core_bench_matrix+0x3f8>
    3a4c:	00a50793          	addi	a5,a0,10
    3a50:	01079513          	slli	a0,a5,0x10
    3a54:	41055513          	srai	a0,a0,0x10
    3a58:	00000893          	li	a7,0
    3a5c:	cb0ff06f          	j	2f0c <core_bench_matrix+0xe5c>
    3a60:	00a50793          	addi	a5,a0,10
    3a64:	01079513          	slli	a0,a5,0x10
    3a68:	41055513          	srai	a0,a0,0x10
    3a6c:	00000313          	li	t1,0
    3a70:	da9fe06f          	j	2818 <core_bench_matrix+0x768>
    3a74:	00a50793          	addi	a5,a0,10
    3a78:	01079513          	slli	a0,a5,0x10
    3a7c:	41055513          	srai	a0,a0,0x10
    3a80:	00000893          	li	a7,0
    3a84:	c64ff06f          	j	2ee8 <core_bench_matrix+0xe38>
    3a88:	00a50793          	addi	a5,a0,10
    3a8c:	01079513          	slli	a0,a5,0x10
    3a90:	41055513          	srai	a0,a0,0x10
    3a94:	00000313          	li	t1,0
    3a98:	d59fe06f          	j	27f0 <core_bench_matrix+0x740>
    3a9c:	00a50793          	addi	a5,a0,10
    3aa0:	01079513          	slli	a0,a5,0x10
    3aa4:	41055513          	srai	a0,a0,0x10
    3aa8:	00000313          	li	t1,0
    3aac:	8f8ff06f          	j	2ba4 <core_bench_matrix+0xaf4>
    3ab0:	00a50793          	addi	a5,a0,10
    3ab4:	01079513          	slli	a0,a5,0x10
    3ab8:	41055513          	srai	a0,a0,0x10
    3abc:	00000313          	li	t1,0
    3ac0:	9c1fe06f          	j	2480 <core_bench_matrix+0x3d0>
    3ac4:	00000593          	li	a1,0
    3ac8:	00000513          	li	a0,0
    3acc:	4b5040ef          	jal	ra,8780 <crc16>
    3ad0:	00050593          	mv	a1,a0
    3ad4:	00000513          	li	a0,0
    3ad8:	4a9040ef          	jal	ra,8780 <crc16>
    3adc:	00050593          	mv	a1,a0
    3ae0:	00000513          	li	a0,0
    3ae4:	49d040ef          	jal	ra,8780 <crc16>
    3ae8:	00050593          	mv	a1,a0
    3aec:	00000513          	li	a0,0
    3af0:	491040ef          	jal	ra,8780 <crc16>
    3af4:	e38ff06f          	j	312c <core_bench_matrix+0x107c>
    3af8:	00000013          	nop
    3afc:	00000013          	nop

00003b00 <matrix_test>:
    3b00:	fa010113          	addi	sp,sp,-96
    3b04:	04912a23          	sw	s1,84(sp)
    3b08:	04112e23          	sw	ra,92(sp)
    3b0c:	fffff4b7          	lui	s1,0xfffff
    3b10:	04812c23          	sw	s0,88(sp)
    3b14:	05212823          	sw	s2,80(sp)
    3b18:	05312623          	sw	s3,76(sp)
    3b1c:	05412423          	sw	s4,72(sp)
    3b20:	05512223          	sw	s5,68(sp)
    3b24:	05612023          	sw	s6,64(sp)
    3b28:	03712e23          	sw	s7,60(sp)
    3b2c:	03812c23          	sw	s8,56(sp)
    3b30:	03912a23          	sw	s9,52(sp)
    3b34:	03a12823          	sw	s10,48(sp)
    3b38:	03b12623          	sw	s11,44(sp)
    3b3c:	00b12223          	sw	a1,4(sp)
    3b40:	00c12823          	sw	a2,16(sp)
    3b44:	009764b3          	or	s1,a4,s1
    3b48:	00051463          	bnez	a0,3b50 <matrix_test+0x50>
    3b4c:	1f90106f          	j	5544 <matrix_test+0x1a44>
    3b50:	40a007b3          	neg	a5,a0
    3b54:	00151413          	slli	s0,a0,0x1
    3b58:	00068993          	mv	s3,a3
    3b5c:	00050a13          	mv	s4,a0
    3b60:	00070913          	mv	s2,a4
    3b64:	00f12623          	sw	a5,12(sp)
    3b68:	00000313          	li	t1,0
    3b6c:	008606b3          	add	a3,a2,s0
    3b70:	00179e13          	slli	t3,a5,0x1
    3b74:	00279e93          	slli	t4,a5,0x2
    3b78:	00de0633          	add	a2,t3,a3
    3b7c:	40c68733          	sub	a4,a3,a2
    3b80:	ffe70713          	addi	a4,a4,-2
    3b84:	00175713          	srli	a4,a4,0x1
    3b88:	00170713          	addi	a4,a4,1
    3b8c:	00777713          	andi	a4,a4,7
    3b90:	00060793          	mv	a5,a2
    3b94:	0a070463          	beqz	a4,3c3c <matrix_test+0x13c>
    3b98:	00100593          	li	a1,1
    3b9c:	08b70663          	beq	a4,a1,3c28 <matrix_test+0x128>
    3ba0:	00200593          	li	a1,2
    3ba4:	06b70a63          	beq	a4,a1,3c18 <matrix_test+0x118>
    3ba8:	00300593          	li	a1,3
    3bac:	04b70e63          	beq	a4,a1,3c08 <matrix_test+0x108>
    3bb0:	00400593          	li	a1,4
    3bb4:	04b70263          	beq	a4,a1,3bf8 <matrix_test+0xf8>
    3bb8:	00500593          	li	a1,5
    3bbc:	02b70663          	beq	a4,a1,3be8 <matrix_test+0xe8>
    3bc0:	00600593          	li	a1,6
    3bc4:	00b70a63          	beq	a4,a1,3bd8 <matrix_test+0xd8>
    3bc8:	00065703          	lhu	a4,0(a2)
    3bcc:	00260793          	addi	a5,a2,2
    3bd0:	00e90733          	add	a4,s2,a4
    3bd4:	00e61023          	sh	a4,0(a2)
    3bd8:	0007d703          	lhu	a4,0(a5)
    3bdc:	00278793          	addi	a5,a5,2
    3be0:	00e90733          	add	a4,s2,a4
    3be4:	fee79f23          	sh	a4,-2(a5)
    3be8:	0007d703          	lhu	a4,0(a5)
    3bec:	00278793          	addi	a5,a5,2
    3bf0:	00e90733          	add	a4,s2,a4
    3bf4:	fee79f23          	sh	a4,-2(a5)
    3bf8:	0007d703          	lhu	a4,0(a5)
    3bfc:	00278793          	addi	a5,a5,2
    3c00:	00e90733          	add	a4,s2,a4
    3c04:	fee79f23          	sh	a4,-2(a5)
    3c08:	0007d703          	lhu	a4,0(a5)
    3c0c:	00278793          	addi	a5,a5,2
    3c10:	00e90733          	add	a4,s2,a4
    3c14:	fee79f23          	sh	a4,-2(a5)
    3c18:	0007d703          	lhu	a4,0(a5)
    3c1c:	00278793          	addi	a5,a5,2
    3c20:	00e90733          	add	a4,s2,a4
    3c24:	fee79f23          	sh	a4,-2(a5)
    3c28:	0007d703          	lhu	a4,0(a5)
    3c2c:	00278793          	addi	a5,a5,2
    3c30:	00e90733          	add	a4,s2,a4
    3c34:	fee79f23          	sh	a4,-2(a5)
    3c38:	06f68663          	beq	a3,a5,3ca4 <matrix_test+0x1a4>
    3c3c:	0007d283          	lhu	t0,0(a5)
    3c40:	0027df83          	lhu	t6,2(a5)
    3c44:	0047df03          	lhu	t5,4(a5)
    3c48:	0067d883          	lhu	a7,6(a5)
    3c4c:	0087d803          	lhu	a6,8(a5)
    3c50:	00a7d503          	lhu	a0,10(a5)
    3c54:	00c7d583          	lhu	a1,12(a5)
    3c58:	00e7d703          	lhu	a4,14(a5)
    3c5c:	005902b3          	add	t0,s2,t0
    3c60:	01f90fb3          	add	t6,s2,t6
    3c64:	01e90f33          	add	t5,s2,t5
    3c68:	011908b3          	add	a7,s2,a7
    3c6c:	01090833          	add	a6,s2,a6
    3c70:	00a90533          	add	a0,s2,a0
    3c74:	00b905b3          	add	a1,s2,a1
    3c78:	00e90733          	add	a4,s2,a4
    3c7c:	00579023          	sh	t0,0(a5)
    3c80:	01f79123          	sh	t6,2(a5)
    3c84:	01e79223          	sh	t5,4(a5)
    3c88:	01179323          	sh	a7,6(a5)
    3c8c:	01079423          	sh	a6,8(a5)
    3c90:	00a79523          	sh	a0,10(a5)
    3c94:	00b79623          	sh	a1,12(a5)
    3c98:	00e79723          	sh	a4,14(a5)
    3c9c:	01078793          	addi	a5,a5,16
    3ca0:	f8f69ee3          	bne	a3,a5,3c3c <matrix_test+0x13c>
    3ca4:	00130313          	addi	t1,t1,1
    3ca8:	41d606b3          	sub	a3,a2,t4
    3cac:	ec6a16e3          	bne	s4,t1,3b78 <matrix_test+0x78>
    3cb0:	00c12783          	lw	a5,12(sp)
    3cb4:	01012703          	lw	a4,16(sp)
    3cb8:	00412f83          	lw	t6,4(sp)
    3cbc:	00000893          	li	a7,0
    3cc0:	00000313          	li	t1,0
    3cc4:	00279e93          	slli	t4,a5,0x2
    3cc8:	00870633          	add	a2,a4,s0
    3ccc:	00179e13          	slli	t3,a5,0x1
    3cd0:	01c605b3          	add	a1,a2,t3
    3cd4:	40b60733          	sub	a4,a2,a1
    3cd8:	ffe70713          	addi	a4,a4,-2
    3cdc:	00175713          	srli	a4,a4,0x1
    3ce0:	00170713          	addi	a4,a4,1
    3ce4:	00289793          	slli	a5,a7,0x2
    3ce8:	00777713          	andi	a4,a4,7
    3cec:	00058693          	mv	a3,a1
    3cf0:	00ff87b3          	add	a5,t6,a5
    3cf4:	0c070263          	beqz	a4,3db8 <matrix_test+0x2b8>
    3cf8:	00100513          	li	a0,1
    3cfc:	0aa70263          	beq	a4,a0,3da0 <matrix_test+0x2a0>
    3d00:	00200513          	li	a0,2
    3d04:	08a70463          	beq	a4,a0,3d8c <matrix_test+0x28c>
    3d08:	00300513          	li	a0,3
    3d0c:	06a70663          	beq	a4,a0,3d78 <matrix_test+0x278>
    3d10:	00400513          	li	a0,4
    3d14:	04a70863          	beq	a4,a0,3d64 <matrix_test+0x264>
    3d18:	00500513          	li	a0,5
    3d1c:	02a70a63          	beq	a4,a0,3d50 <matrix_test+0x250>
    3d20:	00600513          	li	a0,6
    3d24:	00a70c63          	beq	a4,a0,3d3c <matrix_test+0x23c>
    3d28:	00059703          	lh	a4,0(a1)
    3d2c:	00258693          	addi	a3,a1,2
    3d30:	00478793          	addi	a5,a5,4
    3d34:	03270733          	mul	a4,a4,s2
    3d38:	fee7ae23          	sw	a4,-4(a5)
    3d3c:	00069703          	lh	a4,0(a3)
    3d40:	00478793          	addi	a5,a5,4
    3d44:	00268693          	addi	a3,a3,2
    3d48:	03270733          	mul	a4,a4,s2
    3d4c:	fee7ae23          	sw	a4,-4(a5)
    3d50:	00069703          	lh	a4,0(a3)
    3d54:	00478793          	addi	a5,a5,4
    3d58:	00268693          	addi	a3,a3,2
    3d5c:	03270733          	mul	a4,a4,s2
    3d60:	fee7ae23          	sw	a4,-4(a5)
    3d64:	00069703          	lh	a4,0(a3)
    3d68:	00478793          	addi	a5,a5,4
    3d6c:	00268693          	addi	a3,a3,2
    3d70:	03270733          	mul	a4,a4,s2
    3d74:	fee7ae23          	sw	a4,-4(a5)
    3d78:	00069703          	lh	a4,0(a3)
    3d7c:	00478793          	addi	a5,a5,4
    3d80:	00268693          	addi	a3,a3,2
    3d84:	03270733          	mul	a4,a4,s2
    3d88:	fee7ae23          	sw	a4,-4(a5)
    3d8c:	00069703          	lh	a4,0(a3)
    3d90:	00478793          	addi	a5,a5,4
    3d94:	00268693          	addi	a3,a3,2
    3d98:	03270733          	mul	a4,a4,s2
    3d9c:	fee7ae23          	sw	a4,-4(a5)
    3da0:	00069703          	lh	a4,0(a3)
    3da4:	00268693          	addi	a3,a3,2
    3da8:	00478793          	addi	a5,a5,4
    3dac:	03270733          	mul	a4,a4,s2
    3db0:	fee7ae23          	sw	a4,-4(a5)
    3db4:	06d60863          	beq	a2,a3,3e24 <matrix_test+0x324>
    3db8:	00069a83          	lh	s5,0(a3)
    3dbc:	00269083          	lh	ra,2(a3)
    3dc0:	00469383          	lh	t2,4(a3)
    3dc4:	00669283          	lh	t0,6(a3)
    3dc8:	00869f03          	lh	t5,8(a3)
    3dcc:	00a69803          	lh	a6,10(a3)
    3dd0:	00c69503          	lh	a0,12(a3)
    3dd4:	00e69703          	lh	a4,14(a3)
    3dd8:	032a8ab3          	mul	s5,s5,s2
    3ddc:	01068693          	addi	a3,a3,16
    3de0:	02078793          	addi	a5,a5,32
    3de4:	032080b3          	mul	ra,ra,s2
    3de8:	ff57a023          	sw	s5,-32(a5)
    3dec:	032383b3          	mul	t2,t2,s2
    3df0:	fe17a223          	sw	ra,-28(a5)
    3df4:	032282b3          	mul	t0,t0,s2
    3df8:	fe77a423          	sw	t2,-24(a5)
    3dfc:	032f0f33          	mul	t5,t5,s2
    3e00:	fe57a623          	sw	t0,-20(a5)
    3e04:	03280833          	mul	a6,a6,s2
    3e08:	ffe7a823          	sw	t5,-16(a5)
    3e0c:	03250533          	mul	a0,a0,s2
    3e10:	ff07aa23          	sw	a6,-12(a5)
    3e14:	03270733          	mul	a4,a4,s2
    3e18:	fea7ac23          	sw	a0,-8(a5)
    3e1c:	fee7ae23          	sw	a4,-4(a5)
    3e20:	f8d61ce3          	bne	a2,a3,3db8 <matrix_test+0x2b8>
    3e24:	00130313          	addi	t1,t1,1
    3e28:	014888b3          	add	a7,a7,s4
    3e2c:	41d58633          	sub	a2,a1,t4
    3e30:	ea6a10e3          	bne	s4,t1,3cd0 <matrix_test+0x1d0>
    3e34:	00c12683          	lw	a3,12(sp)
    3e38:	00412703          	lw	a4,4(sp)
    3e3c:	002a1793          	slli	a5,s4,0x2
    3e40:	00f12423          	sw	a5,8(sp)
    3e44:	00000513          	li	a0,0
    3e48:	00000e13          	li	t3,0
    3e4c:	00000313          	li	t1,0
    3e50:	00000613          	li	a2,0
    3e54:	00369813          	slli	a6,a3,0x3
    3e58:	00f70733          	add	a4,a4,a5
    3e5c:	00269593          	slli	a1,a3,0x2
    3e60:	00e588b3          	add	a7,a1,a4
    3e64:	41170eb3          	sub	t4,a4,a7
    3e68:	ffce8e93          	addi	t4,t4,-4
    3e6c:	002ede93          	srli	t4,t4,0x2
    3e70:	001e8e93          	addi	t4,t4,1
    3e74:	007efe93          	andi	t4,t4,7
    3e78:	00088693          	mv	a3,a7
    3e7c:	640e8ce3          	beqz	t4,4cd4 <matrix_test+0x11d4>
    3e80:	00100793          	li	a5,1
    3e84:	10fe8e63          	beq	t4,a5,3fa0 <matrix_test+0x4a0>
    3e88:	00200793          	li	a5,2
    3e8c:	0efe8663          	beq	t4,a5,3f78 <matrix_test+0x478>
    3e90:	00300793          	li	a5,3
    3e94:	0afe8e63          	beq	t4,a5,3f50 <matrix_test+0x450>
    3e98:	00400793          	li	a5,4
    3e9c:	08fe8663          	beq	t4,a5,3f28 <matrix_test+0x428>
    3ea0:	00500793          	li	a5,5
    3ea4:	04fe8e63          	beq	t4,a5,3f00 <matrix_test+0x400>
    3ea8:	00600793          	li	a5,6
    3eac:	02fe8663          	beq	t4,a5,3ed8 <matrix_test+0x3d8>
    3eb0:	000e0793          	mv	a5,t3
    3eb4:	0008ae03          	lw	t3,0(a7)
    3eb8:	01c30333          	add	t1,t1,t3
    3ebc:	0064d463          	bge	s1,t1,3ec4 <matrix_test+0x3c4>
    3ec0:	6700106f          	j	5530 <matrix_test+0x1a30>
    3ec4:	01c7a7b3          	slt	a5,a5,t3
    3ec8:	00f507b3          	add	a5,a0,a5
    3ecc:	01079513          	slli	a0,a5,0x10
    3ed0:	41055513          	srai	a0,a0,0x10
    3ed4:	00488693          	addi	a3,a7,4
    3ed8:	000e0793          	mv	a5,t3
    3edc:	0006ae03          	lw	t3,0(a3)
    3ee0:	01c30333          	add	t1,t1,t3
    3ee4:	0064d463          	bge	s1,t1,3eec <matrix_test+0x3ec>
    3ee8:	5d00106f          	j	54b8 <matrix_test+0x19b8>
    3eec:	01c7a7b3          	slt	a5,a5,t3
    3ef0:	00f507b3          	add	a5,a0,a5
    3ef4:	01079513          	slli	a0,a5,0x10
    3ef8:	41055513          	srai	a0,a0,0x10
    3efc:	00468693          	addi	a3,a3,4
    3f00:	000e0793          	mv	a5,t3
    3f04:	0006ae03          	lw	t3,0(a3)
    3f08:	01c30333          	add	t1,t1,t3
    3f0c:	0064d463          	bge	s1,t1,3f14 <matrix_test+0x414>
    3f10:	5800106f          	j	5490 <matrix_test+0x1990>
    3f14:	01c7a7b3          	slt	a5,a5,t3
    3f18:	00f507b3          	add	a5,a0,a5
    3f1c:	01079513          	slli	a0,a5,0x10
    3f20:	41055513          	srai	a0,a0,0x10
    3f24:	00468693          	addi	a3,a3,4
    3f28:	000e0793          	mv	a5,t3
    3f2c:	0006ae03          	lw	t3,0(a3)
    3f30:	01c30333          	add	t1,t1,t3
    3f34:	0064d463          	bge	s1,t1,3f3c <matrix_test+0x43c>
    3f38:	5080106f          	j	5440 <matrix_test+0x1940>
    3f3c:	01c7a7b3          	slt	a5,a5,t3
    3f40:	00f507b3          	add	a5,a0,a5
    3f44:	01079513          	slli	a0,a5,0x10
    3f48:	41055513          	srai	a0,a0,0x10
    3f4c:	00468693          	addi	a3,a3,4
    3f50:	000e0793          	mv	a5,t3
    3f54:	0006ae03          	lw	t3,0(a3)
    3f58:	01c30333          	add	t1,t1,t3
    3f5c:	0064d463          	bge	s1,t1,3f64 <matrix_test+0x464>
    3f60:	4680106f          	j	53c8 <matrix_test+0x18c8>
    3f64:	01c7a7b3          	slt	a5,a5,t3
    3f68:	00f507b3          	add	a5,a0,a5
    3f6c:	01079513          	slli	a0,a5,0x10
    3f70:	41055513          	srai	a0,a0,0x10
    3f74:	00468693          	addi	a3,a3,4
    3f78:	000e0793          	mv	a5,t3
    3f7c:	0006ae03          	lw	t3,0(a3)
    3f80:	01c30333          	add	t1,t1,t3
    3f84:	0064d463          	bge	s1,t1,3f8c <matrix_test+0x48c>
    3f88:	4180106f          	j	53a0 <matrix_test+0x18a0>
    3f8c:	01c7a7b3          	slt	a5,a5,t3
    3f90:	00f507b3          	add	a5,a0,a5
    3f94:	01079513          	slli	a0,a5,0x10
    3f98:	41055513          	srai	a0,a0,0x10
    3f9c:	00468693          	addi	a3,a3,4
    3fa0:	000e0793          	mv	a5,t3
    3fa4:	0006ae03          	lw	t3,0(a3)
    3fa8:	01c30333          	add	t1,t1,t3
    3fac:	0064d463          	bge	s1,t1,3fb4 <matrix_test+0x4b4>
    3fb0:	3640106f          	j	5314 <matrix_test+0x1814>
    3fb4:	01c7a7b3          	slt	a5,a5,t3
    3fb8:	00f507b3          	add	a5,a0,a5
    3fbc:	01079513          	slli	a0,a5,0x10
    3fc0:	41055513          	srai	a0,a0,0x10
    3fc4:	00468693          	addi	a3,a3,4
    3fc8:	50d716e3          	bne	a4,a3,4cd4 <matrix_test+0x11d4>
    3fcc:	00160613          	addi	a2,a2,1
    3fd0:	41088733          	sub	a4,a7,a6
    3fd4:	e8ca16e3          	bne	s4,a2,3e60 <matrix_test+0x360>
    3fd8:	00000593          	li	a1,0
    3fdc:	7a4040ef          	jal	ra,8780 <crc16>
    3fe0:	00412a83          	lw	s5,4(sp)
    3fe4:	00812b03          	lw	s6,8(sp)
    3fe8:	00000593          	li	a1,0
    3fec:	00050d13          	mv	s10,a0
    3ff0:	000b0613          	mv	a2,s6
    3ff4:	000a8513          	mv	a0,s5
    3ff8:	2d5040ef          	jal	ra,8acc <memset>
    3ffc:	01012f03          	lw	t5,16(sp)
    4000:	00000f93          	li	t6,0
    4004:	000a8593          	mv	a1,s5
    4008:	016a8c33          	add	s8,s5,s6
    400c:	008982b3          	add	t0,s3,s0
    4010:	41328633          	sub	a2,t0,s3
    4014:	ffe60613          	addi	a2,a2,-2
    4018:	00165613          	srli	a2,a2,0x1
    401c:	00160613          	addi	a2,a2,1
    4020:	001f9713          	slli	a4,t6,0x1
    4024:	00767613          	andi	a2,a2,7
    4028:	00098693          	mv	a3,s3
    402c:	00000793          	li	a5,0
    4030:	00ef0733          	add	a4,t5,a4
    4034:	0c060e63          	beqz	a2,4110 <matrix_test+0x610>
    4038:	00100513          	li	a0,1
    403c:	0aa60c63          	beq	a2,a0,40f4 <matrix_test+0x5f4>
    4040:	00200513          	li	a0,2
    4044:	08a60c63          	beq	a2,a0,40dc <matrix_test+0x5dc>
    4048:	00300513          	li	a0,3
    404c:	06a60c63          	beq	a2,a0,40c4 <matrix_test+0x5c4>
    4050:	00400513          	li	a0,4
    4054:	04a60c63          	beq	a2,a0,40ac <matrix_test+0x5ac>
    4058:	00500513          	li	a0,5
    405c:	02a60c63          	beq	a2,a0,4094 <matrix_test+0x594>
    4060:	00600513          	li	a0,6
    4064:	00a60c63          	beq	a2,a0,407c <matrix_test+0x57c>
    4068:	00071603          	lh	a2,0(a4)
    406c:	00099783          	lh	a5,0(s3)
    4070:	00270713          	addi	a4,a4,2
    4074:	00298693          	addi	a3,s3,2
    4078:	02f607b3          	mul	a5,a2,a5
    407c:	00071603          	lh	a2,0(a4)
    4080:	00069503          	lh	a0,0(a3)
    4084:	00270713          	addi	a4,a4,2
    4088:	00268693          	addi	a3,a3,2
    408c:	02a60633          	mul	a2,a2,a0
    4090:	00c787b3          	add	a5,a5,a2
    4094:	00071603          	lh	a2,0(a4)
    4098:	00069503          	lh	a0,0(a3)
    409c:	00270713          	addi	a4,a4,2
    40a0:	00268693          	addi	a3,a3,2
    40a4:	02a60633          	mul	a2,a2,a0
    40a8:	00c787b3          	add	a5,a5,a2
    40ac:	00071603          	lh	a2,0(a4)
    40b0:	00069503          	lh	a0,0(a3)
    40b4:	00270713          	addi	a4,a4,2
    40b8:	00268693          	addi	a3,a3,2
    40bc:	02a60633          	mul	a2,a2,a0
    40c0:	00c787b3          	add	a5,a5,a2
    40c4:	00071603          	lh	a2,0(a4)
    40c8:	00069503          	lh	a0,0(a3)
    40cc:	00270713          	addi	a4,a4,2
    40d0:	00268693          	addi	a3,a3,2
    40d4:	02a60633          	mul	a2,a2,a0
    40d8:	00c787b3          	add	a5,a5,a2
    40dc:	00071603          	lh	a2,0(a4)
    40e0:	00069503          	lh	a0,0(a3)
    40e4:	00270713          	addi	a4,a4,2
    40e8:	00268693          	addi	a3,a3,2
    40ec:	02a60633          	mul	a2,a2,a0
    40f0:	00c787b3          	add	a5,a5,a2
    40f4:	00071603          	lh	a2,0(a4)
    40f8:	00069503          	lh	a0,0(a3)
    40fc:	00268693          	addi	a3,a3,2
    4100:	00270713          	addi	a4,a4,2
    4104:	02a60633          	mul	a2,a2,a0
    4108:	00c787b3          	add	a5,a5,a2
    410c:	08d28863          	beq	t0,a3,419c <matrix_test+0x69c>
    4110:	00071503          	lh	a0,0(a4)
    4114:	00069603          	lh	a2,0(a3)
    4118:	00269e03          	lh	t3,2(a3)
    411c:	00271c83          	lh	s9,2(a4)
    4120:	02c50633          	mul	a2,a0,a2
    4124:	00471a83          	lh	s5,4(a4)
    4128:	00469d83          	lh	s11,4(a3)
    412c:	00671383          	lh	t2,6(a4)
    4130:	00669b83          	lh	s7,6(a3)
    4134:	00871303          	lh	t1,8(a4)
    4138:	00869b03          	lh	s6,8(a3)
    413c:	00a71883          	lh	a7,10(a4)
    4140:	00a69083          	lh	ra,10(a3)
    4144:	00c71803          	lh	a6,12(a4)
    4148:	03cc8cb3          	mul	s9,s9,t3
    414c:	00c787b3          	add	a5,a5,a2
    4150:	00c69e83          	lh	t4,12(a3)
    4154:	00e71503          	lh	a0,14(a4)
    4158:	00e69e03          	lh	t3,14(a3)
    415c:	01068693          	addi	a3,a3,16
    4160:	01070713          	addi	a4,a4,16
    4164:	03ba8ab3          	mul	s5,s5,s11
    4168:	019787b3          	add	a5,a5,s9
    416c:	03738633          	mul	a2,t2,s7
    4170:	015787b3          	add	a5,a5,s5
    4174:	03630333          	mul	t1,t1,s6
    4178:	00c787b3          	add	a5,a5,a2
    417c:	02188633          	mul	a2,a7,ra
    4180:	006787b3          	add	a5,a5,t1
    4184:	03d80833          	mul	a6,a6,t4
    4188:	00c787b3          	add	a5,a5,a2
    418c:	03c50633          	mul	a2,a0,t3
    4190:	010787b3          	add	a5,a5,a6
    4194:	00c787b3          	add	a5,a5,a2
    4198:	f6d29ce3          	bne	t0,a3,4110 <matrix_test+0x610>
    419c:	00f5a023          	sw	a5,0(a1)
    41a0:	00458593          	addi	a1,a1,4
    41a4:	014f8fb3          	add	t6,t6,s4
    41a8:	e6bc14e3          	bne	s8,a1,4010 <matrix_test+0x510>
    41ac:	00c12783          	lw	a5,12(sp)
    41b0:	00412703          	lw	a4,4(sp)
    41b4:	00812683          	lw	a3,8(sp)
    41b8:	00000513          	li	a0,0
    41bc:	00000e13          	li	t3,0
    41c0:	00000313          	li	t1,0
    41c4:	00000613          	li	a2,0
    41c8:	00379813          	slli	a6,a5,0x3
    41cc:	00d70733          	add	a4,a4,a3
    41d0:	00279593          	slli	a1,a5,0x2
    41d4:	00e588b3          	add	a7,a1,a4
    41d8:	41170eb3          	sub	t4,a4,a7
    41dc:	ffce8e93          	addi	t4,t4,-4
    41e0:	002ede93          	srli	t4,t4,0x2
    41e4:	001e8e93          	addi	t4,t4,1
    41e8:	007efe93          	andi	t4,t4,7
    41ec:	00088693          	mv	a3,a7
    41f0:	4a0e86e3          	beqz	t4,4e9c <matrix_test+0x139c>
    41f4:	00100793          	li	a5,1
    41f8:	10fe8e63          	beq	t4,a5,4314 <matrix_test+0x814>
    41fc:	00200793          	li	a5,2
    4200:	0efe8663          	beq	t4,a5,42ec <matrix_test+0x7ec>
    4204:	00300793          	li	a5,3
    4208:	0afe8e63          	beq	t4,a5,42c4 <matrix_test+0x7c4>
    420c:	00400793          	li	a5,4
    4210:	08fe8663          	beq	t4,a5,429c <matrix_test+0x79c>
    4214:	00500793          	li	a5,5
    4218:	04fe8e63          	beq	t4,a5,4274 <matrix_test+0x774>
    421c:	00600793          	li	a5,6
    4220:	02fe8663          	beq	t4,a5,424c <matrix_test+0x74c>
    4224:	000e0793          	mv	a5,t3
    4228:	0008ae03          	lw	t3,0(a7)
    422c:	01c30333          	add	t1,t1,t3
    4230:	0064d463          	bge	s1,t1,4238 <matrix_test+0x738>
    4234:	2d40106f          	j	5508 <matrix_test+0x1a08>
    4238:	01c7a7b3          	slt	a5,a5,t3
    423c:	00f507b3          	add	a5,a0,a5
    4240:	01079513          	slli	a0,a5,0x10
    4244:	41055513          	srai	a0,a0,0x10
    4248:	00488693          	addi	a3,a7,4
    424c:	000e0793          	mv	a5,t3
    4250:	0006ae03          	lw	t3,0(a3)
    4254:	01c30333          	add	t1,t1,t3
    4258:	0064d463          	bge	s1,t1,4260 <matrix_test+0x760>
    425c:	2840106f          	j	54e0 <matrix_test+0x19e0>
    4260:	01c7a7b3          	slt	a5,a5,t3
    4264:	00f507b3          	add	a5,a0,a5
    4268:	01079513          	slli	a0,a5,0x10
    426c:	41055513          	srai	a0,a0,0x10
    4270:	00468693          	addi	a3,a3,4
    4274:	000e0793          	mv	a5,t3
    4278:	0006ae03          	lw	t3,0(a3)
    427c:	01c30333          	add	t1,t1,t3
    4280:	0064d463          	bge	s1,t1,4288 <matrix_test+0x788>
    4284:	1f80106f          	j	547c <matrix_test+0x197c>
    4288:	01c7a7b3          	slt	a5,a5,t3
    428c:	00f507b3          	add	a5,a0,a5
    4290:	01079513          	slli	a0,a5,0x10
    4294:	41055513          	srai	a0,a0,0x10
    4298:	00468693          	addi	a3,a3,4
    429c:	000e0793          	mv	a5,t3
    42a0:	0006ae03          	lw	t3,0(a3)
    42a4:	01c30333          	add	t1,t1,t3
    42a8:	0064d463          	bge	s1,t1,42b0 <matrix_test+0x7b0>
    42ac:	1800106f          	j	542c <matrix_test+0x192c>
    42b0:	01c7a7b3          	slt	a5,a5,t3
    42b4:	00f507b3          	add	a5,a0,a5
    42b8:	01079513          	slli	a0,a5,0x10
    42bc:	41055513          	srai	a0,a0,0x10
    42c0:	00468693          	addi	a3,a3,4
    42c4:	000e0793          	mv	a5,t3
    42c8:	0006ae03          	lw	t3,0(a3)
    42cc:	01c30333          	add	t1,t1,t3
    42d0:	0064d463          	bge	s1,t1,42d8 <matrix_test+0x7d8>
    42d4:	0e00106f          	j	53b4 <matrix_test+0x18b4>
    42d8:	01c7a7b3          	slt	a5,a5,t3
    42dc:	00f507b3          	add	a5,a0,a5
    42e0:	01079513          	slli	a0,a5,0x10
    42e4:	41055513          	srai	a0,a0,0x10
    42e8:	00468693          	addi	a3,a3,4
    42ec:	000e0793          	mv	a5,t3
    42f0:	0006ae03          	lw	t3,0(a3)
    42f4:	01c30333          	add	t1,t1,t3
    42f8:	0064d463          	bge	s1,t1,4300 <matrix_test+0x800>
    42fc:	0900106f          	j	538c <matrix_test+0x188c>
    4300:	01c7a7b3          	slt	a5,a5,t3
    4304:	00f507b3          	add	a5,a0,a5
    4308:	01079513          	slli	a0,a5,0x10
    430c:	41055513          	srai	a0,a0,0x10
    4310:	00468693          	addi	a3,a3,4
    4314:	000e0793          	mv	a5,t3
    4318:	0006ae03          	lw	t3,0(a3)
    431c:	01c30333          	add	t1,t1,t3
    4320:	0064d463          	bge	s1,t1,4328 <matrix_test+0x828>
    4324:	0040106f          	j	5328 <matrix_test+0x1828>
    4328:	01c7a7b3          	slt	a5,a5,t3
    432c:	00f507b3          	add	a5,a0,a5
    4330:	01079513          	slli	a0,a5,0x10
    4334:	41055513          	srai	a0,a0,0x10
    4338:	00468693          	addi	a3,a3,4
    433c:	36d710e3          	bne	a4,a3,4e9c <matrix_test+0x139c>
    4340:	00160613          	addi	a2,a2,1
    4344:	41088733          	sub	a4,a7,a6
    4348:	e8ca16e3          	bne	s4,a2,41d4 <matrix_test+0x6d4>
    434c:	000d0593          	mv	a1,s10
    4350:	430040ef          	jal	ra,8780 <crc16>
    4354:	01012783          	lw	a5,16(sp)
    4358:	00912c23          	sw	s1,24(sp)
    435c:	00812483          	lw	s1,8(sp)
    4360:	00000713          	li	a4,0
    4364:	01212e23          	sw	s2,28(sp)
    4368:	00000b93          	li	s7,0
    436c:	00a12a23          	sw	a0,20(sp)
    4370:	00078b13          	mv	s6,a5
    4374:	00878ab3          	add	s5,a5,s0
    4378:	00070913          	mv	s2,a4
    437c:	00412783          	lw	a5,4(sp)
    4380:	002b9f13          	slli	t5,s7,0x2
    4384:	00048613          	mv	a2,s1
    4388:	01e78f33          	add	t5,a5,t5
    438c:	000f0513          	mv	a0,t5
    4390:	00000593          	li	a1,0
    4394:	738040ef          	jal	ra,8acc <memset>
    4398:	00050f13          	mv	t5,a0
    439c:	00000f93          	li	t6,0
    43a0:	00098e93          	mv	t4,s3
    43a4:	416a8633          	sub	a2,s5,s6
    43a8:	ffe60613          	addi	a2,a2,-2
    43ac:	00165613          	srli	a2,a2,0x1
    43b0:	00160613          	addi	a2,a2,1
    43b4:	00767613          	andi	a2,a2,7
    43b8:	000e8793          	mv	a5,t4
    43bc:	000b0693          	mv	a3,s6
    43c0:	00000713          	li	a4,0
    43c4:	0c060e63          	beqz	a2,44a0 <matrix_test+0x9a0>
    43c8:	00100593          	li	a1,1
    43cc:	0ab60c63          	beq	a2,a1,4484 <matrix_test+0x984>
    43d0:	00200593          	li	a1,2
    43d4:	08b60c63          	beq	a2,a1,446c <matrix_test+0x96c>
    43d8:	00300593          	li	a1,3
    43dc:	06b60c63          	beq	a2,a1,4454 <matrix_test+0x954>
    43e0:	00400593          	li	a1,4
    43e4:	04b60c63          	beq	a2,a1,443c <matrix_test+0x93c>
    43e8:	00500593          	li	a1,5
    43ec:	02b60c63          	beq	a2,a1,4424 <matrix_test+0x924>
    43f0:	00600593          	li	a1,6
    43f4:	00b60c63          	beq	a2,a1,440c <matrix_test+0x90c>
    43f8:	000b1603          	lh	a2,0(s6)
    43fc:	000e9703          	lh	a4,0(t4)
    4400:	002b0693          	addi	a3,s6,2
    4404:	008e87b3          	add	a5,t4,s0
    4408:	02e60733          	mul	a4,a2,a4
    440c:	00069603          	lh	a2,0(a3)
    4410:	00079583          	lh	a1,0(a5)
    4414:	00268693          	addi	a3,a3,2
    4418:	008787b3          	add	a5,a5,s0
    441c:	02b60633          	mul	a2,a2,a1
    4420:	00c70733          	add	a4,a4,a2
    4424:	00069603          	lh	a2,0(a3)
    4428:	00079583          	lh	a1,0(a5)
    442c:	00268693          	addi	a3,a3,2
    4430:	008787b3          	add	a5,a5,s0
    4434:	02b60633          	mul	a2,a2,a1
    4438:	00c70733          	add	a4,a4,a2
    443c:	00069603          	lh	a2,0(a3)
    4440:	00079583          	lh	a1,0(a5)
    4444:	00268693          	addi	a3,a3,2
    4448:	008787b3          	add	a5,a5,s0
    444c:	02b60633          	mul	a2,a2,a1
    4450:	00c70733          	add	a4,a4,a2
    4454:	00069603          	lh	a2,0(a3)
    4458:	00079583          	lh	a1,0(a5)
    445c:	00268693          	addi	a3,a3,2
    4460:	008787b3          	add	a5,a5,s0
    4464:	02b60633          	mul	a2,a2,a1
    4468:	00c70733          	add	a4,a4,a2
    446c:	00069603          	lh	a2,0(a3)
    4470:	00079583          	lh	a1,0(a5)
    4474:	00268693          	addi	a3,a3,2
    4478:	008787b3          	add	a5,a5,s0
    447c:	02b60633          	mul	a2,a2,a1
    4480:	00c70733          	add	a4,a4,a2
    4484:	00069603          	lh	a2,0(a3)
    4488:	00079583          	lh	a1,0(a5)
    448c:	00268693          	addi	a3,a3,2
    4490:	008787b3          	add	a5,a5,s0
    4494:	02b60633          	mul	a2,a2,a1
    4498:	00c70733          	add	a4,a4,a2
    449c:	0ada8663          	beq	s5,a3,4548 <matrix_test+0xa48>
    44a0:	00079583          	lh	a1,0(a5)
    44a4:	00069d83          	lh	s11,0(a3)
    44a8:	008787b3          	add	a5,a5,s0
    44ac:	00079603          	lh	a2,0(a5)
    44b0:	00269e03          	lh	t3,2(a3)
    44b4:	008787b3          	add	a5,a5,s0
    44b8:	00469303          	lh	t1,4(a3)
    44bc:	00079d03          	lh	s10,0(a5)
    44c0:	008787b3          	add	a5,a5,s0
    44c4:	02bd8db3          	mul	s11,s11,a1
    44c8:	00669883          	lh	a7,6(a3)
    44cc:	00079c83          	lh	s9,0(a5)
    44d0:	008787b3          	add	a5,a5,s0
    44d4:	00869803          	lh	a6,8(a3)
    44d8:	00079c03          	lh	s8,0(a5)
    44dc:	008787b3          	add	a5,a5,s0
    44e0:	00a69503          	lh	a0,10(a3)
    44e4:	00079083          	lh	ra,0(a5)
    44e8:	008787b3          	add	a5,a5,s0
    44ec:	02ce0e33          	mul	t3,t3,a2
    44f0:	00c69583          	lh	a1,12(a3)
    44f4:	00079383          	lh	t2,0(a5)
    44f8:	008787b3          	add	a5,a5,s0
    44fc:	00e69603          	lh	a2,14(a3)
    4500:	00079283          	lh	t0,0(a5)
    4504:	01b70733          	add	a4,a4,s11
    4508:	01068693          	addi	a3,a3,16
    450c:	008787b3          	add	a5,a5,s0
    4510:	03a30333          	mul	t1,t1,s10
    4514:	01c70733          	add	a4,a4,t3
    4518:	039888b3          	mul	a7,a7,s9
    451c:	00670733          	add	a4,a4,t1
    4520:	03880833          	mul	a6,a6,s8
    4524:	01170733          	add	a4,a4,a7
    4528:	02150533          	mul	a0,a0,ra
    452c:	01070733          	add	a4,a4,a6
    4530:	027585b3          	mul	a1,a1,t2
    4534:	00a70733          	add	a4,a4,a0
    4538:	02560633          	mul	a2,a2,t0
    453c:	00b70733          	add	a4,a4,a1
    4540:	00c70733          	add	a4,a4,a2
    4544:	f4da9ee3          	bne	s5,a3,44a0 <matrix_test+0x9a0>
    4548:	00ef2023          	sw	a4,0(t5)
    454c:	001f8f93          	addi	t6,t6,1
    4550:	004f0f13          	addi	t5,t5,4
    4554:	002e8e93          	addi	t4,t4,2
    4558:	e5fa16e3          	bne	s4,t6,43a4 <matrix_test+0x8a4>
    455c:	00190913          	addi	s2,s2,1
    4560:	008b0b33          	add	s6,s6,s0
    4564:	014b8bb3          	add	s7,s7,s4
    4568:	008a8ab3          	add	s5,s5,s0
    456c:	e12a18e3          	bne	s4,s2,437c <matrix_test+0x87c>
    4570:	00c12783          	lw	a5,12(sp)
    4574:	00412703          	lw	a4,4(sp)
    4578:	00812683          	lw	a3,8(sp)
    457c:	01812483          	lw	s1,24(sp)
    4580:	01c12903          	lw	s2,28(sp)
    4584:	00000513          	li	a0,0
    4588:	00000e13          	li	t3,0
    458c:	00000313          	li	t1,0
    4590:	00000613          	li	a2,0
    4594:	00379813          	slli	a6,a5,0x3
    4598:	00d70733          	add	a4,a4,a3
    459c:	00279593          	slli	a1,a5,0x2
    45a0:	00e588b3          	add	a7,a1,a4
    45a4:	41170eb3          	sub	t4,a4,a7
    45a8:	ffce8e93          	addi	t4,t4,-4
    45ac:	002ede93          	srli	t4,t4,0x2
    45b0:	001e8e93          	addi	t4,t4,1
    45b4:	007efe93          	andi	t4,t4,7
    45b8:	00088693          	mv	a3,a7
    45bc:	2a0e84e3          	beqz	t4,5064 <matrix_test+0x1564>
    45c0:	00100793          	li	a5,1
    45c4:	10fe8263          	beq	t4,a5,46c8 <matrix_test+0xbc8>
    45c8:	00200793          	li	a5,2
    45cc:	0cfe8c63          	beq	t4,a5,46a4 <matrix_test+0xba4>
    45d0:	00300793          	li	a5,3
    45d4:	0afe8663          	beq	t4,a5,4680 <matrix_test+0xb80>
    45d8:	00400793          	li	a5,4
    45dc:	08fe8063          	beq	t4,a5,465c <matrix_test+0xb5c>
    45e0:	00500793          	li	a5,5
    45e4:	04fe8a63          	beq	t4,a5,4638 <matrix_test+0xb38>
    45e8:	00600793          	li	a5,6
    45ec:	02fe8463          	beq	t4,a5,4614 <matrix_test+0xb14>
    45f0:	000e0793          	mv	a5,t3
    45f4:	0008ae03          	lw	t3,0(a7)
    45f8:	01c30333          	add	t1,t1,t3
    45fc:	7264c0e3          	blt	s1,t1,551c <matrix_test+0x1a1c>
    4600:	01c7a7b3          	slt	a5,a5,t3
    4604:	00f507b3          	add	a5,a0,a5
    4608:	01079513          	slli	a0,a5,0x10
    460c:	41055513          	srai	a0,a0,0x10
    4610:	00488693          	addi	a3,a7,4
    4614:	000e0793          	mv	a5,t3
    4618:	0006ae03          	lw	t3,0(a3)
    461c:	01c30333          	add	t1,t1,t3
    4620:	6864c2e3          	blt	s1,t1,54a4 <matrix_test+0x19a4>
    4624:	01c7a7b3          	slt	a5,a5,t3
    4628:	00f507b3          	add	a5,a0,a5
    462c:	01079513          	slli	a0,a5,0x10
    4630:	41055513          	srai	a0,a0,0x10
    4634:	00468693          	addi	a3,a3,4
    4638:	000e0793          	mv	a5,t3
    463c:	0006ae03          	lw	t3,0(a3)
    4640:	01c30333          	add	t1,t1,t3
    4644:	6264c2e3          	blt	s1,t1,5468 <matrix_test+0x1968>
    4648:	01c7a7b3          	slt	a5,a5,t3
    464c:	00f507b3          	add	a5,a0,a5
    4650:	01079513          	slli	a0,a5,0x10
    4654:	41055513          	srai	a0,a0,0x10
    4658:	00468693          	addi	a3,a3,4
    465c:	000e0793          	mv	a5,t3
    4660:	0006ae03          	lw	t3,0(a3)
    4664:	01c30333          	add	t1,t1,t3
    4668:	5a64c8e3          	blt	s1,t1,5418 <matrix_test+0x1918>
    466c:	01c7a7b3          	slt	a5,a5,t3
    4670:	00f507b3          	add	a5,a0,a5
    4674:	01079513          	slli	a0,a5,0x10
    4678:	41055513          	srai	a0,a0,0x10
    467c:	00468693          	addi	a3,a3,4
    4680:	000e0793          	mv	a5,t3
    4684:	0006ae03          	lw	t3,0(a3)
    4688:	01c30333          	add	t1,t1,t3
    468c:	5664c2e3          	blt	s1,t1,53f0 <matrix_test+0x18f0>
    4690:	01c7a7b3          	slt	a5,a5,t3
    4694:	00f507b3          	add	a5,a0,a5
    4698:	01079513          	slli	a0,a5,0x10
    469c:	41055513          	srai	a0,a0,0x10
    46a0:	00468693          	addi	a3,a3,4
    46a4:	000e0793          	mv	a5,t3
    46a8:	0006ae03          	lw	t3,0(a3)
    46ac:	01c30333          	add	t1,t1,t3
    46b0:	4c64c4e3          	blt	s1,t1,5378 <matrix_test+0x1878>
    46b4:	01c7a7b3          	slt	a5,a5,t3
    46b8:	00f507b3          	add	a5,a0,a5
    46bc:	01079513          	slli	a0,a5,0x10
    46c0:	41055513          	srai	a0,a0,0x10
    46c4:	00468693          	addi	a3,a3,4
    46c8:	000e0793          	mv	a5,t3
    46cc:	0006ae03          	lw	t3,0(a3)
    46d0:	01c30333          	add	t1,t1,t3
    46d4:	4664cee3          	blt	s1,t1,5350 <matrix_test+0x1850>
    46d8:	01c7a7b3          	slt	a5,a5,t3
    46dc:	00f507b3          	add	a5,a0,a5
    46e0:	01079513          	slli	a0,a5,0x10
    46e4:	41055513          	srai	a0,a0,0x10
    46e8:	00468693          	addi	a3,a3,4
    46ec:	16d71ce3          	bne	a4,a3,5064 <matrix_test+0x1564>
    46f0:	00160613          	addi	a2,a2,1
    46f4:	41088733          	sub	a4,a7,a6
    46f8:	eaca14e3          	bne	s4,a2,45a0 <matrix_test+0xaa0>
    46fc:	01412583          	lw	a1,20(sp)
    4700:	00000c93          	li	s9,0
    4704:	00000c13          	li	s8,0
    4708:	078040ef          	jal	ra,8780 <crc16>
    470c:	01012783          	lw	a5,16(sp)
    4710:	00412d03          	lw	s10,4(sp)
    4714:	00812d83          	lw	s11,8(sp)
    4718:	00050a93          	mv	s5,a0
    471c:	00078b93          	mv	s7,a5
    4720:	00878b33          	add	s6,a5,s0
    4724:	002c9813          	slli	a6,s9,0x2
    4728:	010d0833          	add	a6,s10,a6
    472c:	00000593          	li	a1,0
    4730:	00080513          	mv	a0,a6
    4734:	000d8613          	mv	a2,s11
    4738:	394040ef          	jal	ra,8acc <memset>
    473c:	00050813          	mv	a6,a0
    4740:	00098593          	mv	a1,s3
    4744:	00000513          	li	a0,0
    4748:	417b06b3          	sub	a3,s6,s7
    474c:	ffe68693          	addi	a3,a3,-2
    4750:	0016d693          	srli	a3,a3,0x1
    4754:	00168693          	addi	a3,a3,1
    4758:	0036f693          	andi	a3,a3,3
    475c:	00058793          	mv	a5,a1
    4760:	000b8613          	mv	a2,s7
    4764:	00000893          	li	a7,0
    4768:	08068c63          	beqz	a3,4800 <matrix_test+0xd00>
    476c:	00100713          	li	a4,1
    4770:	06e68063          	beq	a3,a4,47d0 <matrix_test+0xcd0>
    4774:	00200713          	li	a4,2
    4778:	02e68663          	beq	a3,a4,47a4 <matrix_test+0xca4>
    477c:	00059703          	lh	a4,0(a1)
    4780:	000b9683          	lh	a3,0(s7)
    4784:	002b8613          	addi	a2,s7,2
    4788:	008587b3          	add	a5,a1,s0
    478c:	02e686b3          	mul	a3,a3,a4
    4790:	4026d713          	srai	a4,a3,0x2
    4794:	4056d693          	srai	a3,a3,0x5
    4798:	00f77713          	andi	a4,a4,15
    479c:	07f6f693          	andi	a3,a3,127
    47a0:	02d708b3          	mul	a7,a4,a3
    47a4:	00079683          	lh	a3,0(a5)
    47a8:	00061703          	lh	a4,0(a2)
    47ac:	008787b3          	add	a5,a5,s0
    47b0:	00260613          	addi	a2,a2,2
    47b4:	02d70733          	mul	a4,a4,a3
    47b8:	40275693          	srai	a3,a4,0x2
    47bc:	40575713          	srai	a4,a4,0x5
    47c0:	00f6f693          	andi	a3,a3,15
    47c4:	07f77713          	andi	a4,a4,127
    47c8:	02e68733          	mul	a4,a3,a4
    47cc:	00e888b3          	add	a7,a7,a4
    47d0:	00079683          	lh	a3,0(a5)
    47d4:	00061703          	lh	a4,0(a2)
    47d8:	00260613          	addi	a2,a2,2
    47dc:	008787b3          	add	a5,a5,s0
    47e0:	02d70733          	mul	a4,a4,a3
    47e4:	40275693          	srai	a3,a4,0x2
    47e8:	40575713          	srai	a4,a4,0x5
    47ec:	00f6f693          	andi	a3,a3,15
    47f0:	07f77713          	andi	a4,a4,127
    47f4:	02e68733          	mul	a4,a3,a4
    47f8:	00e888b3          	add	a7,a7,a4
    47fc:	0acb0663          	beq	s6,a2,48a8 <matrix_test+0xda8>
    4800:	00079303          	lh	t1,0(a5)
    4804:	00061683          	lh	a3,0(a2)
    4808:	008787b3          	add	a5,a5,s0
    480c:	00079703          	lh	a4,0(a5)
    4810:	026686b3          	mul	a3,a3,t1
    4814:	00261f03          	lh	t5,2(a2)
    4818:	008787b3          	add	a5,a5,s0
    481c:	00461e83          	lh	t4,4(a2)
    4820:	00079e03          	lh	t3,0(a5)
    4824:	008787b3          	add	a5,a5,s0
    4828:	00661f83          	lh	t6,6(a2)
    482c:	00079303          	lh	t1,0(a5)
    4830:	00860613          	addi	a2,a2,8
    4834:	008787b3          	add	a5,a5,s0
    4838:	02ef0f33          	mul	t5,t5,a4
    483c:	4026d713          	srai	a4,a3,0x2
    4840:	4056d693          	srai	a3,a3,0x5
    4844:	00f77293          	andi	t0,a4,15
    4848:	07f6f713          	andi	a4,a3,127
    484c:	03ce8e33          	mul	t3,t4,t3
    4850:	402f5393          	srai	t2,t5,0x2
    4854:	405f5f13          	srai	t5,t5,0x5
    4858:	00f3f393          	andi	t2,t2,15
    485c:	07ff7f13          	andi	t5,t5,127
    4860:	026f86b3          	mul	a3,t6,t1
    4864:	402e5f93          	srai	t6,t3,0x2
    4868:	405e5e13          	srai	t3,t3,0x5
    486c:	07fe7313          	andi	t1,t3,127
    4870:	00ffff93          	andi	t6,t6,15
    4874:	02e28733          	mul	a4,t0,a4
    4878:	4026de13          	srai	t3,a3,0x2
    487c:	4056d693          	srai	a3,a3,0x5
    4880:	00fe7e13          	andi	t3,t3,15
    4884:	07f6f693          	andi	a3,a3,127
    4888:	03e38f33          	mul	t5,t2,t5
    488c:	00e88733          	add	a4,a7,a4
    4890:	026f8333          	mul	t1,t6,t1
    4894:	01e70733          	add	a4,a4,t5
    4898:	02de06b3          	mul	a3,t3,a3
    489c:	00670733          	add	a4,a4,t1
    48a0:	00d708b3          	add	a7,a4,a3
    48a4:	f4cb1ee3          	bne	s6,a2,4800 <matrix_test+0xd00>
    48a8:	01182023          	sw	a7,0(a6)
    48ac:	00150513          	addi	a0,a0,1
    48b0:	00480813          	addi	a6,a6,4
    48b4:	00258593          	addi	a1,a1,2
    48b8:	e8aa18e3          	bne	s4,a0,4748 <matrix_test+0xc48>
    48bc:	001c0c13          	addi	s8,s8,1
    48c0:	008b8bb3          	add	s7,s7,s0
    48c4:	014c8cb3          	add	s9,s9,s4
    48c8:	008b0b33          	add	s6,s6,s0
    48cc:	e58a1ce3          	bne	s4,s8,4724 <matrix_test+0xc24>
    48d0:	00c12783          	lw	a5,12(sp)
    48d4:	00412703          	lw	a4,4(sp)
    48d8:	00812583          	lw	a1,8(sp)
    48dc:	00000513          	li	a0,0
    48e0:	00000e13          	li	t3,0
    48e4:	00000313          	li	t1,0
    48e8:	00000693          	li	a3,0
    48ec:	00379613          	slli	a2,a5,0x3
    48f0:	00b70733          	add	a4,a4,a1
    48f4:	00279813          	slli	a6,a5,0x2
    48f8:	00e808b3          	add	a7,a6,a4
    48fc:	41170eb3          	sub	t4,a4,a7
    4900:	ffce8e93          	addi	t4,t4,-4
    4904:	002ede93          	srli	t4,t4,0x2
    4908:	001e8e93          	addi	t4,t4,1
    490c:	007efe93          	andi	t4,t4,7
    4910:	00088593          	mv	a1,a7
    4914:	100e8ce3          	beqz	t4,522c <matrix_test+0x172c>
    4918:	00100793          	li	a5,1
    491c:	10fe8263          	beq	t4,a5,4a20 <matrix_test+0xf20>
    4920:	00200793          	li	a5,2
    4924:	0cfe8c63          	beq	t4,a5,49fc <matrix_test+0xefc>
    4928:	00300793          	li	a5,3
    492c:	0afe8663          	beq	t4,a5,49d8 <matrix_test+0xed8>
    4930:	00400793          	li	a5,4
    4934:	08fe8063          	beq	t4,a5,49b4 <matrix_test+0xeb4>
    4938:	00500793          	li	a5,5
    493c:	04fe8a63          	beq	t4,a5,4990 <matrix_test+0xe90>
    4940:	00600793          	li	a5,6
    4944:	02fe8463          	beq	t4,a5,496c <matrix_test+0xe6c>
    4948:	000e0793          	mv	a5,t3
    494c:	0008ae03          	lw	t3,0(a7)
    4950:	01c30333          	add	t1,t1,t3
    4954:	3a64c0e3          	blt	s1,t1,54f4 <matrix_test+0x19f4>
    4958:	01c7a7b3          	slt	a5,a5,t3
    495c:	00f507b3          	add	a5,a0,a5
    4960:	01079513          	slli	a0,a5,0x10
    4964:	41055513          	srai	a0,a0,0x10
    4968:	00488593          	addi	a1,a7,4
    496c:	000e0793          	mv	a5,t3
    4970:	0005ae03          	lw	t3,0(a1)
    4974:	01c30333          	add	t1,t1,t3
    4978:	3464cae3          	blt	s1,t1,54cc <matrix_test+0x19cc>
    497c:	01c7a7b3          	slt	a5,a5,t3
    4980:	00f507b3          	add	a5,a0,a5
    4984:	01079513          	slli	a0,a5,0x10
    4988:	41055513          	srai	a0,a0,0x10
    498c:	00458593          	addi	a1,a1,4
    4990:	000e0793          	mv	a5,t3
    4994:	0005ae03          	lw	t3,0(a1)
    4998:	01c30333          	add	t1,t1,t3
    499c:	2a64cce3          	blt	s1,t1,5454 <matrix_test+0x1954>
    49a0:	01c7a7b3          	slt	a5,a5,t3
    49a4:	00f507b3          	add	a5,a0,a5
    49a8:	01079513          	slli	a0,a5,0x10
    49ac:	41055513          	srai	a0,a0,0x10
    49b0:	00458593          	addi	a1,a1,4
    49b4:	000e0793          	mv	a5,t3
    49b8:	0005ae03          	lw	t3,0(a1)
    49bc:	01c30333          	add	t1,t1,t3
    49c0:	2464c2e3          	blt	s1,t1,5404 <matrix_test+0x1904>
    49c4:	01c7a7b3          	slt	a5,a5,t3
    49c8:	00f507b3          	add	a5,a0,a5
    49cc:	01079513          	slli	a0,a5,0x10
    49d0:	41055513          	srai	a0,a0,0x10
    49d4:	00458593          	addi	a1,a1,4
    49d8:	000e0793          	mv	a5,t3
    49dc:	0005ae03          	lw	t3,0(a1)
    49e0:	01c30333          	add	t1,t1,t3
    49e4:	1e64cce3          	blt	s1,t1,53dc <matrix_test+0x18dc>
    49e8:	01c7a7b3          	slt	a5,a5,t3
    49ec:	00f507b3          	add	a5,a0,a5
    49f0:	01079513          	slli	a0,a5,0x10
    49f4:	41055513          	srai	a0,a0,0x10
    49f8:	00458593          	addi	a1,a1,4
    49fc:	000e0793          	mv	a5,t3
    4a00:	0005ae03          	lw	t3,0(a1)
    4a04:	01c30333          	add	t1,t1,t3
    4a08:	1464cee3          	blt	s1,t1,5364 <matrix_test+0x1864>
    4a0c:	01c7a7b3          	slt	a5,a5,t3
    4a10:	00f507b3          	add	a5,a0,a5
    4a14:	01079513          	slli	a0,a5,0x10
    4a18:	41055513          	srai	a0,a0,0x10
    4a1c:	00458593          	addi	a1,a1,4
    4a20:	000e0793          	mv	a5,t3
    4a24:	0005ae03          	lw	t3,0(a1)
    4a28:	01c30333          	add	t1,t1,t3
    4a2c:	1064c8e3          	blt	s1,t1,533c <matrix_test+0x183c>
    4a30:	01c7a7b3          	slt	a5,a5,t3
    4a34:	00f507b3          	add	a5,a0,a5
    4a38:	01079513          	slli	a0,a5,0x10
    4a3c:	41055513          	srai	a0,a0,0x10
    4a40:	00458593          	addi	a1,a1,4
    4a44:	7eb71463          	bne	a4,a1,522c <matrix_test+0x172c>
    4a48:	00168693          	addi	a3,a3,1
    4a4c:	40c88733          	sub	a4,a7,a2
    4a50:	eada14e3          	bne	s4,a3,48f8 <matrix_test+0xdf8>
    4a54:	000a8593          	mv	a1,s5
    4a58:	529030ef          	jal	ra,8780 <crc16>
    4a5c:	00c12783          	lw	a5,12(sp)
    4a60:	01012703          	lw	a4,16(sp)
    4a64:	00000313          	li	t1,0
    4a68:	00279e13          	slli	t3,a5,0x2
    4a6c:	00050e93          	mv	t4,a0
    4a70:	00870433          	add	s0,a4,s0
    4a74:	00179f93          	slli	t6,a5,0x1
    4a78:	008f86b3          	add	a3,t6,s0
    4a7c:	40d40733          	sub	a4,s0,a3
    4a80:	ffe70713          	addi	a4,a4,-2
    4a84:	00175713          	srli	a4,a4,0x1
    4a88:	00170713          	addi	a4,a4,1
    4a8c:	00777713          	andi	a4,a4,7
    4a90:	00068793          	mv	a5,a3
    4a94:	0a070463          	beqz	a4,4b3c <matrix_test+0x103c>
    4a98:	00100613          	li	a2,1
    4a9c:	08c70663          	beq	a4,a2,4b28 <matrix_test+0x1028>
    4aa0:	00200613          	li	a2,2
    4aa4:	06c70a63          	beq	a4,a2,4b18 <matrix_test+0x1018>
    4aa8:	00300613          	li	a2,3
    4aac:	04c70e63          	beq	a4,a2,4b08 <matrix_test+0x1008>
    4ab0:	00400613          	li	a2,4
    4ab4:	04c70263          	beq	a4,a2,4af8 <matrix_test+0xff8>
    4ab8:	00500613          	li	a2,5
    4abc:	02c70663          	beq	a4,a2,4ae8 <matrix_test+0xfe8>
    4ac0:	00600613          	li	a2,6
    4ac4:	00c70a63          	beq	a4,a2,4ad8 <matrix_test+0xfd8>
    4ac8:	0006d703          	lhu	a4,0(a3)
    4acc:	00268793          	addi	a5,a3,2
    4ad0:	41270733          	sub	a4,a4,s2
    4ad4:	00e69023          	sh	a4,0(a3)
    4ad8:	0007d703          	lhu	a4,0(a5)
    4adc:	00278793          	addi	a5,a5,2
    4ae0:	41270733          	sub	a4,a4,s2
    4ae4:	fee79f23          	sh	a4,-2(a5)
    4ae8:	0007d703          	lhu	a4,0(a5)
    4aec:	00278793          	addi	a5,a5,2
    4af0:	41270733          	sub	a4,a4,s2
    4af4:	fee79f23          	sh	a4,-2(a5)
    4af8:	0007d703          	lhu	a4,0(a5)
    4afc:	00278793          	addi	a5,a5,2
    4b00:	41270733          	sub	a4,a4,s2
    4b04:	fee79f23          	sh	a4,-2(a5)
    4b08:	0007d703          	lhu	a4,0(a5)
    4b0c:	00278793          	addi	a5,a5,2
    4b10:	41270733          	sub	a4,a4,s2
    4b14:	fee79f23          	sh	a4,-2(a5)
    4b18:	0007d703          	lhu	a4,0(a5)
    4b1c:	00278793          	addi	a5,a5,2
    4b20:	41270733          	sub	a4,a4,s2
    4b24:	fee79f23          	sh	a4,-2(a5)
    4b28:	0007d703          	lhu	a4,0(a5)
    4b2c:	00278793          	addi	a5,a5,2
    4b30:	41270733          	sub	a4,a4,s2
    4b34:	fee79f23          	sh	a4,-2(a5)
    4b38:	06878663          	beq	a5,s0,4ba4 <matrix_test+0x10a4>
    4b3c:	0007d283          	lhu	t0,0(a5)
    4b40:	0027df03          	lhu	t5,2(a5)
    4b44:	0047d883          	lhu	a7,4(a5)
    4b48:	0067d803          	lhu	a6,6(a5)
    4b4c:	0087d503          	lhu	a0,8(a5)
    4b50:	00a7d583          	lhu	a1,10(a5)
    4b54:	00c7d603          	lhu	a2,12(a5)
    4b58:	00e7d703          	lhu	a4,14(a5)
    4b5c:	412282b3          	sub	t0,t0,s2
    4b60:	412f0f33          	sub	t5,t5,s2
    4b64:	412888b3          	sub	a7,a7,s2
    4b68:	41280833          	sub	a6,a6,s2
    4b6c:	41250533          	sub	a0,a0,s2
    4b70:	412585b3          	sub	a1,a1,s2
    4b74:	41260633          	sub	a2,a2,s2
    4b78:	41270733          	sub	a4,a4,s2
    4b7c:	00579023          	sh	t0,0(a5)
    4b80:	01e79123          	sh	t5,2(a5)
    4b84:	01179223          	sh	a7,4(a5)
    4b88:	01079323          	sh	a6,6(a5)
    4b8c:	00a79423          	sh	a0,8(a5)
    4b90:	00b79523          	sh	a1,10(a5)
    4b94:	00c79623          	sh	a2,12(a5)
    4b98:	00e79723          	sh	a4,14(a5)
    4b9c:	01078793          	addi	a5,a5,16
    4ba0:	f8879ee3          	bne	a5,s0,4b3c <matrix_test+0x103c>
    4ba4:	00130313          	addi	t1,t1,1
    4ba8:	41c68433          	sub	s0,a3,t3
    4bac:	ec6a16e3          	bne	s4,t1,4a78 <matrix_test+0xf78>
    4bb0:	05c12083          	lw	ra,92(sp)
    4bb4:	05812403          	lw	s0,88(sp)
    4bb8:	010e9513          	slli	a0,t4,0x10
    4bbc:	05412483          	lw	s1,84(sp)
    4bc0:	05012903          	lw	s2,80(sp)
    4bc4:	04c12983          	lw	s3,76(sp)
    4bc8:	04812a03          	lw	s4,72(sp)
    4bcc:	04412a83          	lw	s5,68(sp)
    4bd0:	04012b03          	lw	s6,64(sp)
    4bd4:	03c12b83          	lw	s7,60(sp)
    4bd8:	03812c03          	lw	s8,56(sp)
    4bdc:	03412c83          	lw	s9,52(sp)
    4be0:	03012d03          	lw	s10,48(sp)
    4be4:	02c12d83          	lw	s11,44(sp)
    4be8:	41055513          	srai	a0,a0,0x10
    4bec:	06010113          	addi	sp,sp,96
    4bf0:	00008067          	ret
    4bf4:	0046ae03          	lw	t3,4(a3)
    4bf8:	00a50793          	addi	a5,a0,10
    4bfc:	00000313          	li	t1,0
    4c00:	01079793          	slli	a5,a5,0x10
    4c04:	01c30333          	add	t1,t1,t3
    4c08:	4107d793          	srai	a5,a5,0x10
    4c0c:	00468693          	addi	a3,a3,4
    4c10:	0e64d863          	bge	s1,t1,4d00 <matrix_test+0x1200>
    4c14:	0046a503          	lw	a0,4(a3)
    4c18:	00a78793          	addi	a5,a5,10
    4c1c:	00000313          	li	t1,0
    4c20:	01079793          	slli	a5,a5,0x10
    4c24:	00a30333          	add	t1,t1,a0
    4c28:	4107d793          	srai	a5,a5,0x10
    4c2c:	0e64c863          	blt	s1,t1,4d1c <matrix_test+0x121c>
    4c30:	00ae2e33          	slt	t3,t3,a0
    4c34:	01c787b3          	add	a5,a5,t3
    4c38:	0086ae03          	lw	t3,8(a3)
    4c3c:	01079793          	slli	a5,a5,0x10
    4c40:	4107d793          	srai	a5,a5,0x10
    4c44:	01c30333          	add	t1,t1,t3
    4c48:	0e64c863          	blt	s1,t1,4d38 <matrix_test+0x1238>
    4c4c:	01c52533          	slt	a0,a0,t3
    4c50:	00a787b3          	add	a5,a5,a0
    4c54:	00c6a503          	lw	a0,12(a3)
    4c58:	01079793          	slli	a5,a5,0x10
    4c5c:	4107d793          	srai	a5,a5,0x10
    4c60:	00a30333          	add	t1,t1,a0
    4c64:	0e64c863          	blt	s1,t1,4d54 <matrix_test+0x1254>
    4c68:	00ae2e33          	slt	t3,t3,a0
    4c6c:	01c787b3          	add	a5,a5,t3
    4c70:	0106ae03          	lw	t3,16(a3)
    4c74:	01079793          	slli	a5,a5,0x10
    4c78:	4107d793          	srai	a5,a5,0x10
    4c7c:	01c30333          	add	t1,t1,t3
    4c80:	0e64c863          	blt	s1,t1,4d70 <matrix_test+0x1270>
    4c84:	01c52533          	slt	a0,a0,t3
    4c88:	00a787b3          	add	a5,a5,a0
    4c8c:	0146a503          	lw	a0,20(a3)
    4c90:	01079793          	slli	a5,a5,0x10
    4c94:	4107d793          	srai	a5,a5,0x10
    4c98:	00a30333          	add	t1,t1,a0
    4c9c:	0e64c863          	blt	s1,t1,4d8c <matrix_test+0x128c>
    4ca0:	00ae2e33          	slt	t3,t3,a0
    4ca4:	01c787b3          	add	a5,a5,t3
    4ca8:	0186ae03          	lw	t3,24(a3)
    4cac:	01079793          	slli	a5,a5,0x10
    4cb0:	4107d793          	srai	a5,a5,0x10
    4cb4:	01c30333          	add	t1,t1,t3
    4cb8:	0e64c863          	blt	s1,t1,4da8 <matrix_test+0x12a8>
    4cbc:	01c52533          	slt	a0,a0,t3
    4cc0:	00a787b3          	add	a5,a5,a0
    4cc4:	01079513          	slli	a0,a5,0x10
    4cc8:	41055513          	srai	a0,a0,0x10
    4ccc:	01c68693          	addi	a3,a3,28
    4cd0:	aed70e63          	beq	a4,a3,3fcc <matrix_test+0x4cc>
    4cd4:	0006ae83          	lw	t4,0(a3)
    4cd8:	01d30333          	add	t1,t1,t4
    4cdc:	f064cce3          	blt	s1,t1,4bf4 <matrix_test+0x10f4>
    4ce0:	01de27b3          	slt	a5,t3,t4
    4ce4:	0046ae03          	lw	t3,4(a3)
    4ce8:	00f507b3          	add	a5,a0,a5
    4cec:	01079793          	slli	a5,a5,0x10
    4cf0:	01c30333          	add	t1,t1,t3
    4cf4:	4107d793          	srai	a5,a5,0x10
    4cf8:	00468693          	addi	a3,a3,4
    4cfc:	f064cce3          	blt	s1,t1,4c14 <matrix_test+0x1114>
    4d00:	0046a503          	lw	a0,4(a3)
    4d04:	01ceaeb3          	slt	t4,t4,t3
    4d08:	01d787b3          	add	a5,a5,t4
    4d0c:	01079793          	slli	a5,a5,0x10
    4d10:	00a30333          	add	t1,t1,a0
    4d14:	4107d793          	srai	a5,a5,0x10
    4d18:	f064dce3          	bge	s1,t1,4c30 <matrix_test+0x1130>
    4d1c:	0086ae03          	lw	t3,8(a3)
    4d20:	00a78793          	addi	a5,a5,10
    4d24:	00000313          	li	t1,0
    4d28:	01079793          	slli	a5,a5,0x10
    4d2c:	01c30333          	add	t1,t1,t3
    4d30:	4107d793          	srai	a5,a5,0x10
    4d34:	f064dce3          	bge	s1,t1,4c4c <matrix_test+0x114c>
    4d38:	00c6a503          	lw	a0,12(a3)
    4d3c:	00a78793          	addi	a5,a5,10
    4d40:	00000313          	li	t1,0
    4d44:	01079793          	slli	a5,a5,0x10
    4d48:	00a30333          	add	t1,t1,a0
    4d4c:	4107d793          	srai	a5,a5,0x10
    4d50:	f064dce3          	bge	s1,t1,4c68 <matrix_test+0x1168>
    4d54:	0106ae03          	lw	t3,16(a3)
    4d58:	00a78793          	addi	a5,a5,10
    4d5c:	00000313          	li	t1,0
    4d60:	01079793          	slli	a5,a5,0x10
    4d64:	01c30333          	add	t1,t1,t3
    4d68:	4107d793          	srai	a5,a5,0x10
    4d6c:	f064dce3          	bge	s1,t1,4c84 <matrix_test+0x1184>
    4d70:	0146a503          	lw	a0,20(a3)
    4d74:	00a78793          	addi	a5,a5,10
    4d78:	00000313          	li	t1,0
    4d7c:	01079793          	slli	a5,a5,0x10
    4d80:	00a30333          	add	t1,t1,a0
    4d84:	4107d793          	srai	a5,a5,0x10
    4d88:	f064dce3          	bge	s1,t1,4ca0 <matrix_test+0x11a0>
    4d8c:	0186ae03          	lw	t3,24(a3)
    4d90:	00a78793          	addi	a5,a5,10
    4d94:	00000313          	li	t1,0
    4d98:	01079793          	slli	a5,a5,0x10
    4d9c:	01c30333          	add	t1,t1,t3
    4da0:	4107d793          	srai	a5,a5,0x10
    4da4:	f064dce3          	bge	s1,t1,4cbc <matrix_test+0x11bc>
    4da8:	00a78793          	addi	a5,a5,10
    4dac:	01079513          	slli	a0,a5,0x10
    4db0:	41055513          	srai	a0,a0,0x10
    4db4:	00000313          	li	t1,0
    4db8:	f15ff06f          	j	4ccc <matrix_test+0x11cc>
    4dbc:	0046ae03          	lw	t3,4(a3)
    4dc0:	00a50793          	addi	a5,a0,10
    4dc4:	00000313          	li	t1,0
    4dc8:	01079793          	slli	a5,a5,0x10
    4dcc:	01c30333          	add	t1,t1,t3
    4dd0:	4107d793          	srai	a5,a5,0x10
    4dd4:	00468693          	addi	a3,a3,4
    4dd8:	0e64d863          	bge	s1,t1,4ec8 <matrix_test+0x13c8>
    4ddc:	0046a503          	lw	a0,4(a3)
    4de0:	00a78793          	addi	a5,a5,10
    4de4:	00000313          	li	t1,0
    4de8:	01079793          	slli	a5,a5,0x10
    4dec:	00a30333          	add	t1,t1,a0
    4df0:	4107d793          	srai	a5,a5,0x10
    4df4:	0e64c863          	blt	s1,t1,4ee4 <matrix_test+0x13e4>
    4df8:	00ae2e33          	slt	t3,t3,a0
    4dfc:	01c787b3          	add	a5,a5,t3
    4e00:	0086ae03          	lw	t3,8(a3)
    4e04:	01079793          	slli	a5,a5,0x10
    4e08:	4107d793          	srai	a5,a5,0x10
    4e0c:	01c30333          	add	t1,t1,t3
    4e10:	0e64c863          	blt	s1,t1,4f00 <matrix_test+0x1400>
    4e14:	01c52533          	slt	a0,a0,t3
    4e18:	00a787b3          	add	a5,a5,a0
    4e1c:	00c6a503          	lw	a0,12(a3)
    4e20:	01079793          	slli	a5,a5,0x10
    4e24:	4107d793          	srai	a5,a5,0x10
    4e28:	00a30333          	add	t1,t1,a0
    4e2c:	0e64c863          	blt	s1,t1,4f1c <matrix_test+0x141c>
    4e30:	00ae2e33          	slt	t3,t3,a0
    4e34:	01c787b3          	add	a5,a5,t3
    4e38:	0106ae03          	lw	t3,16(a3)
    4e3c:	01079793          	slli	a5,a5,0x10
    4e40:	4107d793          	srai	a5,a5,0x10
    4e44:	01c30333          	add	t1,t1,t3
    4e48:	0e64c863          	blt	s1,t1,4f38 <matrix_test+0x1438>
    4e4c:	01c52533          	slt	a0,a0,t3
    4e50:	00a787b3          	add	a5,a5,a0
    4e54:	0146a503          	lw	a0,20(a3)
    4e58:	01079793          	slli	a5,a5,0x10
    4e5c:	4107d793          	srai	a5,a5,0x10
    4e60:	00a30333          	add	t1,t1,a0
    4e64:	0e64c863          	blt	s1,t1,4f54 <matrix_test+0x1454>
    4e68:	00ae2e33          	slt	t3,t3,a0
    4e6c:	01c787b3          	add	a5,a5,t3
    4e70:	0186ae03          	lw	t3,24(a3)
    4e74:	01079793          	slli	a5,a5,0x10
    4e78:	4107d793          	srai	a5,a5,0x10
    4e7c:	01c30333          	add	t1,t1,t3
    4e80:	0e64c863          	blt	s1,t1,4f70 <matrix_test+0x1470>
    4e84:	01c52533          	slt	a0,a0,t3
    4e88:	00a787b3          	add	a5,a5,a0
    4e8c:	01079513          	slli	a0,a5,0x10
    4e90:	41055513          	srai	a0,a0,0x10
    4e94:	01c68693          	addi	a3,a3,28
    4e98:	cad70463          	beq	a4,a3,4340 <matrix_test+0x840>
    4e9c:	0006ae83          	lw	t4,0(a3)
    4ea0:	01d30333          	add	t1,t1,t4
    4ea4:	f064cce3          	blt	s1,t1,4dbc <matrix_test+0x12bc>
    4ea8:	01de27b3          	slt	a5,t3,t4
    4eac:	0046ae03          	lw	t3,4(a3)
    4eb0:	00f507b3          	add	a5,a0,a5
    4eb4:	01079793          	slli	a5,a5,0x10
    4eb8:	01c30333          	add	t1,t1,t3
    4ebc:	4107d793          	srai	a5,a5,0x10
    4ec0:	00468693          	addi	a3,a3,4
    4ec4:	f064cce3          	blt	s1,t1,4ddc <matrix_test+0x12dc>
    4ec8:	0046a503          	lw	a0,4(a3)
    4ecc:	01ceaeb3          	slt	t4,t4,t3
    4ed0:	01d787b3          	add	a5,a5,t4
    4ed4:	01079793          	slli	a5,a5,0x10
    4ed8:	00a30333          	add	t1,t1,a0
    4edc:	4107d793          	srai	a5,a5,0x10
    4ee0:	f064dce3          	bge	s1,t1,4df8 <matrix_test+0x12f8>
    4ee4:	0086ae03          	lw	t3,8(a3)
    4ee8:	00a78793          	addi	a5,a5,10
    4eec:	00000313          	li	t1,0
    4ef0:	01079793          	slli	a5,a5,0x10
    4ef4:	01c30333          	add	t1,t1,t3
    4ef8:	4107d793          	srai	a5,a5,0x10
    4efc:	f064dce3          	bge	s1,t1,4e14 <matrix_test+0x1314>
    4f00:	00c6a503          	lw	a0,12(a3)
    4f04:	00a78793          	addi	a5,a5,10
    4f08:	00000313          	li	t1,0
    4f0c:	01079793          	slli	a5,a5,0x10
    4f10:	00a30333          	add	t1,t1,a0
    4f14:	4107d793          	srai	a5,a5,0x10
    4f18:	f064dce3          	bge	s1,t1,4e30 <matrix_test+0x1330>
    4f1c:	0106ae03          	lw	t3,16(a3)
    4f20:	00a78793          	addi	a5,a5,10
    4f24:	00000313          	li	t1,0
    4f28:	01079793          	slli	a5,a5,0x10
    4f2c:	01c30333          	add	t1,t1,t3
    4f30:	4107d793          	srai	a5,a5,0x10
    4f34:	f064dce3          	bge	s1,t1,4e4c <matrix_test+0x134c>
    4f38:	0146a503          	lw	a0,20(a3)
    4f3c:	00a78793          	addi	a5,a5,10
    4f40:	00000313          	li	t1,0
    4f44:	01079793          	slli	a5,a5,0x10
    4f48:	00a30333          	add	t1,t1,a0
    4f4c:	4107d793          	srai	a5,a5,0x10
    4f50:	f064dce3          	bge	s1,t1,4e68 <matrix_test+0x1368>
    4f54:	0186ae03          	lw	t3,24(a3)
    4f58:	00a78793          	addi	a5,a5,10
    4f5c:	00000313          	li	t1,0
    4f60:	01079793          	slli	a5,a5,0x10
    4f64:	01c30333          	add	t1,t1,t3
    4f68:	4107d793          	srai	a5,a5,0x10
    4f6c:	f064dce3          	bge	s1,t1,4e84 <matrix_test+0x1384>
    4f70:	00a78793          	addi	a5,a5,10
    4f74:	01079513          	slli	a0,a5,0x10
    4f78:	41055513          	srai	a0,a0,0x10
    4f7c:	00000313          	li	t1,0
    4f80:	f15ff06f          	j	4e94 <matrix_test+0x1394>
    4f84:	0046ae03          	lw	t3,4(a3)
    4f88:	00a50793          	addi	a5,a0,10
    4f8c:	00000313          	li	t1,0
    4f90:	01079793          	slli	a5,a5,0x10
    4f94:	01c30333          	add	t1,t1,t3
    4f98:	4107d793          	srai	a5,a5,0x10
    4f9c:	00468693          	addi	a3,a3,4
    4fa0:	0e64d863          	bge	s1,t1,5090 <matrix_test+0x1590>
    4fa4:	0046a503          	lw	a0,4(a3)
    4fa8:	00a78793          	addi	a5,a5,10
    4fac:	00000313          	li	t1,0
    4fb0:	01079793          	slli	a5,a5,0x10
    4fb4:	00a30333          	add	t1,t1,a0
    4fb8:	4107d793          	srai	a5,a5,0x10
    4fbc:	0e64c863          	blt	s1,t1,50ac <matrix_test+0x15ac>
    4fc0:	00ae2e33          	slt	t3,t3,a0
    4fc4:	01c787b3          	add	a5,a5,t3
    4fc8:	0086ae03          	lw	t3,8(a3)
    4fcc:	01079793          	slli	a5,a5,0x10
    4fd0:	4107d793          	srai	a5,a5,0x10
    4fd4:	01c30333          	add	t1,t1,t3
    4fd8:	0e64c863          	blt	s1,t1,50c8 <matrix_test+0x15c8>
    4fdc:	01c52533          	slt	a0,a0,t3
    4fe0:	00a787b3          	add	a5,a5,a0
    4fe4:	00c6a503          	lw	a0,12(a3)
    4fe8:	01079793          	slli	a5,a5,0x10
    4fec:	4107d793          	srai	a5,a5,0x10
    4ff0:	00a30333          	add	t1,t1,a0
    4ff4:	0e64c863          	blt	s1,t1,50e4 <matrix_test+0x15e4>
    4ff8:	00ae2e33          	slt	t3,t3,a0
    4ffc:	01c787b3          	add	a5,a5,t3
    5000:	0106ae03          	lw	t3,16(a3)
    5004:	01079793          	slli	a5,a5,0x10
    5008:	4107d793          	srai	a5,a5,0x10
    500c:	01c30333          	add	t1,t1,t3
    5010:	0e64c863          	blt	s1,t1,5100 <matrix_test+0x1600>
    5014:	01c52533          	slt	a0,a0,t3
    5018:	00a787b3          	add	a5,a5,a0
    501c:	0146a503          	lw	a0,20(a3)
    5020:	01079793          	slli	a5,a5,0x10
    5024:	4107d793          	srai	a5,a5,0x10
    5028:	00a30333          	add	t1,t1,a0
    502c:	0e64c863          	blt	s1,t1,511c <matrix_test+0x161c>
    5030:	00ae2e33          	slt	t3,t3,a0
    5034:	01c787b3          	add	a5,a5,t3
    5038:	0186ae03          	lw	t3,24(a3)
    503c:	01079793          	slli	a5,a5,0x10
    5040:	4107d793          	srai	a5,a5,0x10
    5044:	01c30333          	add	t1,t1,t3
    5048:	0e64c863          	blt	s1,t1,5138 <matrix_test+0x1638>
    504c:	01c52533          	slt	a0,a0,t3
    5050:	00a787b3          	add	a5,a5,a0
    5054:	01079513          	slli	a0,a5,0x10
    5058:	41055513          	srai	a0,a0,0x10
    505c:	01c68693          	addi	a3,a3,28
    5060:	e8d70863          	beq	a4,a3,46f0 <matrix_test+0xbf0>
    5064:	0006ae83          	lw	t4,0(a3)
    5068:	01d30333          	add	t1,t1,t4
    506c:	f064cce3          	blt	s1,t1,4f84 <matrix_test+0x1484>
    5070:	01de27b3          	slt	a5,t3,t4
    5074:	0046ae03          	lw	t3,4(a3)
    5078:	00f507b3          	add	a5,a0,a5
    507c:	01079793          	slli	a5,a5,0x10
    5080:	01c30333          	add	t1,t1,t3
    5084:	4107d793          	srai	a5,a5,0x10
    5088:	00468693          	addi	a3,a3,4
    508c:	f064cce3          	blt	s1,t1,4fa4 <matrix_test+0x14a4>
    5090:	0046a503          	lw	a0,4(a3)
    5094:	01ceaeb3          	slt	t4,t4,t3
    5098:	01d787b3          	add	a5,a5,t4
    509c:	01079793          	slli	a5,a5,0x10
    50a0:	00a30333          	add	t1,t1,a0
    50a4:	4107d793          	srai	a5,a5,0x10
    50a8:	f064dce3          	bge	s1,t1,4fc0 <matrix_test+0x14c0>
    50ac:	0086ae03          	lw	t3,8(a3)
    50b0:	00a78793          	addi	a5,a5,10
    50b4:	00000313          	li	t1,0
    50b8:	01079793          	slli	a5,a5,0x10
    50bc:	01c30333          	add	t1,t1,t3
    50c0:	4107d793          	srai	a5,a5,0x10
    50c4:	f064dce3          	bge	s1,t1,4fdc <matrix_test+0x14dc>
    50c8:	00c6a503          	lw	a0,12(a3)
    50cc:	00a78793          	addi	a5,a5,10
    50d0:	00000313          	li	t1,0
    50d4:	01079793          	slli	a5,a5,0x10
    50d8:	00a30333          	add	t1,t1,a0
    50dc:	4107d793          	srai	a5,a5,0x10
    50e0:	f064dce3          	bge	s1,t1,4ff8 <matrix_test+0x14f8>
    50e4:	0106ae03          	lw	t3,16(a3)
    50e8:	00a78793          	addi	a5,a5,10
    50ec:	00000313          	li	t1,0
    50f0:	01079793          	slli	a5,a5,0x10
    50f4:	01c30333          	add	t1,t1,t3
    50f8:	4107d793          	srai	a5,a5,0x10
    50fc:	f064dce3          	bge	s1,t1,5014 <matrix_test+0x1514>
    5100:	0146a503          	lw	a0,20(a3)
    5104:	00a78793          	addi	a5,a5,10
    5108:	00000313          	li	t1,0
    510c:	01079793          	slli	a5,a5,0x10
    5110:	00a30333          	add	t1,t1,a0
    5114:	4107d793          	srai	a5,a5,0x10
    5118:	f064dce3          	bge	s1,t1,5030 <matrix_test+0x1530>
    511c:	0186ae03          	lw	t3,24(a3)
    5120:	00a78793          	addi	a5,a5,10
    5124:	00000313          	li	t1,0
    5128:	01079793          	slli	a5,a5,0x10
    512c:	01c30333          	add	t1,t1,t3
    5130:	4107d793          	srai	a5,a5,0x10
    5134:	f064dce3          	bge	s1,t1,504c <matrix_test+0x154c>
    5138:	00a78793          	addi	a5,a5,10
    513c:	01079513          	slli	a0,a5,0x10
    5140:	41055513          	srai	a0,a0,0x10
    5144:	00000313          	li	t1,0
    5148:	f15ff06f          	j	505c <matrix_test+0x155c>
    514c:	0045ae03          	lw	t3,4(a1)
    5150:	00a50793          	addi	a5,a0,10
    5154:	00000313          	li	t1,0
    5158:	01079793          	slli	a5,a5,0x10
    515c:	01c30333          	add	t1,t1,t3
    5160:	4107d793          	srai	a5,a5,0x10
    5164:	00458593          	addi	a1,a1,4
    5168:	0e64d863          	bge	s1,t1,5258 <matrix_test+0x1758>
    516c:	0045a503          	lw	a0,4(a1)
    5170:	00a78793          	addi	a5,a5,10
    5174:	00000313          	li	t1,0
    5178:	01079793          	slli	a5,a5,0x10
    517c:	00a30333          	add	t1,t1,a0
    5180:	4107d793          	srai	a5,a5,0x10
    5184:	0e64c863          	blt	s1,t1,5274 <matrix_test+0x1774>
    5188:	00ae2e33          	slt	t3,t3,a0
    518c:	01c787b3          	add	a5,a5,t3
    5190:	0085ae03          	lw	t3,8(a1)
    5194:	01079793          	slli	a5,a5,0x10
    5198:	4107d793          	srai	a5,a5,0x10
    519c:	01c30333          	add	t1,t1,t3
    51a0:	0e64c863          	blt	s1,t1,5290 <matrix_test+0x1790>
    51a4:	01c52533          	slt	a0,a0,t3
    51a8:	00a787b3          	add	a5,a5,a0
    51ac:	00c5a503          	lw	a0,12(a1)
    51b0:	01079793          	slli	a5,a5,0x10
    51b4:	4107d793          	srai	a5,a5,0x10
    51b8:	00a30333          	add	t1,t1,a0
    51bc:	0e64c863          	blt	s1,t1,52ac <matrix_test+0x17ac>
    51c0:	00ae2e33          	slt	t3,t3,a0
    51c4:	01c787b3          	add	a5,a5,t3
    51c8:	0105ae03          	lw	t3,16(a1)
    51cc:	01079793          	slli	a5,a5,0x10
    51d0:	4107d793          	srai	a5,a5,0x10
    51d4:	01c30333          	add	t1,t1,t3
    51d8:	0e64c863          	blt	s1,t1,52c8 <matrix_test+0x17c8>
    51dc:	01c52533          	slt	a0,a0,t3
    51e0:	00a787b3          	add	a5,a5,a0
    51e4:	0145a503          	lw	a0,20(a1)
    51e8:	01079793          	slli	a5,a5,0x10
    51ec:	4107d793          	srai	a5,a5,0x10
    51f0:	00a30333          	add	t1,t1,a0
    51f4:	0e64c863          	blt	s1,t1,52e4 <matrix_test+0x17e4>
    51f8:	00ae2e33          	slt	t3,t3,a0
    51fc:	01c787b3          	add	a5,a5,t3
    5200:	0185ae03          	lw	t3,24(a1)
    5204:	01079793          	slli	a5,a5,0x10
    5208:	4107d793          	srai	a5,a5,0x10
    520c:	01c30333          	add	t1,t1,t3
    5210:	0e64c863          	blt	s1,t1,5300 <matrix_test+0x1800>
    5214:	01c52533          	slt	a0,a0,t3
    5218:	00a787b3          	add	a5,a5,a0
    521c:	01079513          	slli	a0,a5,0x10
    5220:	41055513          	srai	a0,a0,0x10
    5224:	01c58593          	addi	a1,a1,28
    5228:	82b700e3          	beq	a4,a1,4a48 <matrix_test+0xf48>
    522c:	0005ae83          	lw	t4,0(a1)
    5230:	01d30333          	add	t1,t1,t4
    5234:	f064cce3          	blt	s1,t1,514c <matrix_test+0x164c>
    5238:	01de27b3          	slt	a5,t3,t4
    523c:	0045ae03          	lw	t3,4(a1)
    5240:	00f507b3          	add	a5,a0,a5
    5244:	01079793          	slli	a5,a5,0x10
    5248:	01c30333          	add	t1,t1,t3
    524c:	4107d793          	srai	a5,a5,0x10
    5250:	00458593          	addi	a1,a1,4
    5254:	f064cce3          	blt	s1,t1,516c <matrix_test+0x166c>
    5258:	0045a503          	lw	a0,4(a1)
    525c:	01ceaeb3          	slt	t4,t4,t3
    5260:	01d787b3          	add	a5,a5,t4
    5264:	01079793          	slli	a5,a5,0x10
    5268:	00a30333          	add	t1,t1,a0
    526c:	4107d793          	srai	a5,a5,0x10
    5270:	f064dce3          	bge	s1,t1,5188 <matrix_test+0x1688>
    5274:	0085ae03          	lw	t3,8(a1)
    5278:	00a78793          	addi	a5,a5,10
    527c:	00000313          	li	t1,0
    5280:	01079793          	slli	a5,a5,0x10
    5284:	01c30333          	add	t1,t1,t3
    5288:	4107d793          	srai	a5,a5,0x10
    528c:	f064dce3          	bge	s1,t1,51a4 <matrix_test+0x16a4>
    5290:	00c5a503          	lw	a0,12(a1)
    5294:	00a78793          	addi	a5,a5,10
    5298:	00000313          	li	t1,0
    529c:	01079793          	slli	a5,a5,0x10
    52a0:	00a30333          	add	t1,t1,a0
    52a4:	4107d793          	srai	a5,a5,0x10
    52a8:	f064dce3          	bge	s1,t1,51c0 <matrix_test+0x16c0>
    52ac:	0105ae03          	lw	t3,16(a1)
    52b0:	00a78793          	addi	a5,a5,10
    52b4:	00000313          	li	t1,0
    52b8:	01079793          	slli	a5,a5,0x10
    52bc:	01c30333          	add	t1,t1,t3
    52c0:	4107d793          	srai	a5,a5,0x10
    52c4:	f064dce3          	bge	s1,t1,51dc <matrix_test+0x16dc>
    52c8:	0145a503          	lw	a0,20(a1)
    52cc:	00a78793          	addi	a5,a5,10
    52d0:	00000313          	li	t1,0
    52d4:	01079793          	slli	a5,a5,0x10
    52d8:	00a30333          	add	t1,t1,a0
    52dc:	4107d793          	srai	a5,a5,0x10
    52e0:	f064dce3          	bge	s1,t1,51f8 <matrix_test+0x16f8>
    52e4:	0185ae03          	lw	t3,24(a1)
    52e8:	00a78793          	addi	a5,a5,10
    52ec:	00000313          	li	t1,0
    52f0:	01079793          	slli	a5,a5,0x10
    52f4:	01c30333          	add	t1,t1,t3
    52f8:	4107d793          	srai	a5,a5,0x10
    52fc:	f064dce3          	bge	s1,t1,5214 <matrix_test+0x1714>
    5300:	00a78793          	addi	a5,a5,10
    5304:	01079513          	slli	a0,a5,0x10
    5308:	41055513          	srai	a0,a0,0x10
    530c:	00000313          	li	t1,0
    5310:	f15ff06f          	j	5224 <matrix_test+0x1724>
    5314:	00a50793          	addi	a5,a0,10
    5318:	01079513          	slli	a0,a5,0x10
    531c:	41055513          	srai	a0,a0,0x10
    5320:	00000313          	li	t1,0
    5324:	ca1fe06f          	j	3fc4 <matrix_test+0x4c4>
    5328:	00a50793          	addi	a5,a0,10
    532c:	01079513          	slli	a0,a5,0x10
    5330:	41055513          	srai	a0,a0,0x10
    5334:	00000313          	li	t1,0
    5338:	800ff06f          	j	4338 <matrix_test+0x838>
    533c:	00a50793          	addi	a5,a0,10
    5340:	01079513          	slli	a0,a5,0x10
    5344:	41055513          	srai	a0,a0,0x10
    5348:	00000313          	li	t1,0
    534c:	ef4ff06f          	j	4a40 <matrix_test+0xf40>
    5350:	00a50793          	addi	a5,a0,10
    5354:	01079513          	slli	a0,a5,0x10
    5358:	41055513          	srai	a0,a0,0x10
    535c:	00000313          	li	t1,0
    5360:	b88ff06f          	j	46e8 <matrix_test+0xbe8>
    5364:	00a50793          	addi	a5,a0,10
    5368:	01079513          	slli	a0,a5,0x10
    536c:	41055513          	srai	a0,a0,0x10
    5370:	00000313          	li	t1,0
    5374:	ea8ff06f          	j	4a1c <matrix_test+0xf1c>
    5378:	00a50793          	addi	a5,a0,10
    537c:	01079513          	slli	a0,a5,0x10
    5380:	41055513          	srai	a0,a0,0x10
    5384:	00000313          	li	t1,0
    5388:	b3cff06f          	j	46c4 <matrix_test+0xbc4>
    538c:	00a50793          	addi	a5,a0,10
    5390:	01079513          	slli	a0,a5,0x10
    5394:	41055513          	srai	a0,a0,0x10
    5398:	00000313          	li	t1,0
    539c:	f75fe06f          	j	4310 <matrix_test+0x810>
    53a0:	00a50793          	addi	a5,a0,10
    53a4:	01079513          	slli	a0,a5,0x10
    53a8:	41055513          	srai	a0,a0,0x10
    53ac:	00000313          	li	t1,0
    53b0:	bedfe06f          	j	3f9c <matrix_test+0x49c>
    53b4:	00a50793          	addi	a5,a0,10
    53b8:	01079513          	slli	a0,a5,0x10
    53bc:	41055513          	srai	a0,a0,0x10
    53c0:	00000313          	li	t1,0
    53c4:	f25fe06f          	j	42e8 <matrix_test+0x7e8>
    53c8:	00a50793          	addi	a5,a0,10
    53cc:	01079513          	slli	a0,a5,0x10
    53d0:	41055513          	srai	a0,a0,0x10
    53d4:	00000313          	li	t1,0
    53d8:	b9dfe06f          	j	3f74 <matrix_test+0x474>
    53dc:	00a50793          	addi	a5,a0,10
    53e0:	01079513          	slli	a0,a5,0x10
    53e4:	41055513          	srai	a0,a0,0x10
    53e8:	00000313          	li	t1,0
    53ec:	e0cff06f          	j	49f8 <matrix_test+0xef8>
    53f0:	00a50793          	addi	a5,a0,10
    53f4:	01079513          	slli	a0,a5,0x10
    53f8:	41055513          	srai	a0,a0,0x10
    53fc:	00000313          	li	t1,0
    5400:	aa0ff06f          	j	46a0 <matrix_test+0xba0>
    5404:	00a50793          	addi	a5,a0,10
    5408:	01079513          	slli	a0,a5,0x10
    540c:	41055513          	srai	a0,a0,0x10
    5410:	00000313          	li	t1,0
    5414:	dc0ff06f          	j	49d4 <matrix_test+0xed4>
    5418:	00a50793          	addi	a5,a0,10
    541c:	01079513          	slli	a0,a5,0x10
    5420:	41055513          	srai	a0,a0,0x10
    5424:	00000313          	li	t1,0
    5428:	a54ff06f          	j	467c <matrix_test+0xb7c>
    542c:	00a50793          	addi	a5,a0,10
    5430:	01079513          	slli	a0,a5,0x10
    5434:	41055513          	srai	a0,a0,0x10
    5438:	00000313          	li	t1,0
    543c:	e85fe06f          	j	42c0 <matrix_test+0x7c0>
    5440:	00a50793          	addi	a5,a0,10
    5444:	01079513          	slli	a0,a5,0x10
    5448:	41055513          	srai	a0,a0,0x10
    544c:	00000313          	li	t1,0
    5450:	afdfe06f          	j	3f4c <matrix_test+0x44c>
    5454:	00a50793          	addi	a5,a0,10
    5458:	01079513          	slli	a0,a5,0x10
    545c:	41055513          	srai	a0,a0,0x10
    5460:	00000313          	li	t1,0
    5464:	d4cff06f          	j	49b0 <matrix_test+0xeb0>
    5468:	00a50793          	addi	a5,a0,10
    546c:	01079513          	slli	a0,a5,0x10
    5470:	41055513          	srai	a0,a0,0x10
    5474:	00000313          	li	t1,0
    5478:	9e0ff06f          	j	4658 <matrix_test+0xb58>
    547c:	00a50793          	addi	a5,a0,10
    5480:	01079513          	slli	a0,a5,0x10
    5484:	41055513          	srai	a0,a0,0x10
    5488:	00000313          	li	t1,0
    548c:	e0dfe06f          	j	4298 <matrix_test+0x798>
    5490:	00a50793          	addi	a5,a0,10
    5494:	01079513          	slli	a0,a5,0x10
    5498:	41055513          	srai	a0,a0,0x10
    549c:	00000313          	li	t1,0
    54a0:	a85fe06f          	j	3f24 <matrix_test+0x424>
    54a4:	00a50793          	addi	a5,a0,10
    54a8:	01079513          	slli	a0,a5,0x10
    54ac:	41055513          	srai	a0,a0,0x10
    54b0:	00000313          	li	t1,0
    54b4:	980ff06f          	j	4634 <matrix_test+0xb34>
    54b8:	00a50793          	addi	a5,a0,10
    54bc:	01079513          	slli	a0,a5,0x10
    54c0:	41055513          	srai	a0,a0,0x10
    54c4:	00000313          	li	t1,0
    54c8:	a35fe06f          	j	3efc <matrix_test+0x3fc>
    54cc:	00a50793          	addi	a5,a0,10
    54d0:	01079513          	slli	a0,a5,0x10
    54d4:	41055513          	srai	a0,a0,0x10
    54d8:	00000313          	li	t1,0
    54dc:	cb0ff06f          	j	498c <matrix_test+0xe8c>
    54e0:	00a50793          	addi	a5,a0,10
    54e4:	01079513          	slli	a0,a5,0x10
    54e8:	41055513          	srai	a0,a0,0x10
    54ec:	00000313          	li	t1,0
    54f0:	d81fe06f          	j	4270 <matrix_test+0x770>
    54f4:	00a50793          	addi	a5,a0,10
    54f8:	01079513          	slli	a0,a5,0x10
    54fc:	41055513          	srai	a0,a0,0x10
    5500:	00000313          	li	t1,0
    5504:	c64ff06f          	j	4968 <matrix_test+0xe68>
    5508:	00a50793          	addi	a5,a0,10
    550c:	01079513          	slli	a0,a5,0x10
    5510:	41055513          	srai	a0,a0,0x10
    5514:	00000313          	li	t1,0
