
dhrystone.elf:     file format elf32-littleriscv


Disassembly of section .text:

00000000 <_start>:
       0:	00015297          	auipc	t0,0x15
       4:	2a028293          	addi	t0,t0,672 # 152a0 <trap_handler>
       8:	30529073          	csrw	mtvec,t0
       c:	3050e073          	csrsi	mtvec,1
      10:	00022297          	auipc	t0,0x22
      14:	df428293          	addi	t0,t0,-524 # 21e04 <Dhrystones_Per_Second>
      18:	00024317          	auipc	t1,0x24
      1c:	63c30313          	addi	t1,t1,1596 # 24654 <_bss_end>

00000020 <_bss_clear>:
      20:	0002a023          	sw	zero,0(t0)
      24:	00428293          	addi	t0,t0,4
      28:	fe62ece3          	bltu	t0,t1,20 <_bss_clear>
      2c:	00040117          	auipc	sp,0x40
      30:	fd410113          	addi	sp,sp,-44 # 40000 <_stack>
      34:	224000ef          	jal	ra,258 <main>
      38:	5781506f          	j	155b0 <exit>

0000003c <Proc_1>:
      3c:	ff010113          	addi	sp,sp,-16
      40:	01212023          	sw	s2,0(sp)
      44:	00022937          	lui	s2,0x22
      48:	e3892783          	lw	a5,-456(s2) # 21e38 <Ptr_Glob>
      4c:	00812423          	sw	s0,8(sp)
      50:	00052403          	lw	s0,0(a0)
      54:	0007a683          	lw	a3,0(a5)
      58:	0047af03          	lw	t5,4(a5)
      5c:	0087ae83          	lw	t4,8(a5)
      60:	0107ae03          	lw	t3,16(a5)
      64:	0147a303          	lw	t1,20(a5)
      68:	0187a883          	lw	a7,24(a5)
      6c:	01c7a803          	lw	a6,28(a5)
      70:	0287a603          	lw	a2,40(a5)
      74:	02c7a703          	lw	a4,44(a5)
      78:	0247a583          	lw	a1,36(a5)
      7c:	00112623          	sw	ra,12(sp)
      80:	00912223          	sw	s1,4(sp)
      84:	00050493          	mv	s1,a0
      88:	0207a503          	lw	a0,32(a5)
      8c:	00d42023          	sw	a3,0(s0)
      90:	0004a683          	lw	a3,0(s1)
      94:	01e42223          	sw	t5,4(s0)
      98:	01d42423          	sw	t4,8(s0)
      9c:	01c42823          	sw	t3,16(s0)
      a0:	00642a23          	sw	t1,20(s0)
      a4:	01142c23          	sw	a7,24(s0)
      a8:	01042e23          	sw	a6,28(s0)
      ac:	02a42023          	sw	a0,32(s0)
      b0:	02c42423          	sw	a2,40(s0)
      b4:	02e42623          	sw	a4,44(s0)
      b8:	02b42223          	sw	a1,36(s0)
      bc:	00500713          	li	a4,5
      c0:	00e4a623          	sw	a4,12(s1)
      c4:	00d42023          	sw	a3,0(s0)
      c8:	0007a783          	lw	a5,0(a5)
      cc:	000226b7          	lui	a3,0x22
      d0:	e306a583          	lw	a1,-464(a3) # 21e30 <Int_Glob>
      d4:	00f42023          	sw	a5,0(s0)
      d8:	e3892603          	lw	a2,-456(s2)
      dc:	00e42623          	sw	a4,12(s0)
      e0:	00a00513          	li	a0,10
      e4:	00c60613          	addi	a2,a2,12
      e8:	1e9000ef          	jal	ra,ad0 <Proc_7>
      ec:	00442783          	lw	a5,4(s0)
      f0:	08078063          	beqz	a5,170 <Proc_1+0x134>
      f4:	0004a783          	lw	a5,0(s1)
      f8:	00c12083          	lw	ra,12(sp)
      fc:	00812403          	lw	s0,8(sp)
     100:	0007af83          	lw	t6,0(a5)
     104:	0047af03          	lw	t5,4(a5)
     108:	0087ae83          	lw	t4,8(a5)
     10c:	00c7ae03          	lw	t3,12(a5)
     110:	0107a303          	lw	t1,16(a5)
     114:	0147a883          	lw	a7,20(a5)
     118:	0187a803          	lw	a6,24(a5)
     11c:	01c7a583          	lw	a1,28(a5)
     120:	0207a603          	lw	a2,32(a5)
     124:	0247a683          	lw	a3,36(a5)
     128:	0287a703          	lw	a4,40(a5)
     12c:	02c7a783          	lw	a5,44(a5)
     130:	01f4a023          	sw	t6,0(s1)
     134:	01e4a223          	sw	t5,4(s1)
     138:	01d4a423          	sw	t4,8(s1)
     13c:	01c4a623          	sw	t3,12(s1)
     140:	0064a823          	sw	t1,16(s1)
     144:	0114aa23          	sw	a7,20(s1)
     148:	0104ac23          	sw	a6,24(s1)
     14c:	00b4ae23          	sw	a1,28(s1)
     150:	02c4a023          	sw	a2,32(s1)
     154:	02d4a223          	sw	a3,36(s1)
     158:	02e4a423          	sw	a4,40(s1)
     15c:	02f4a623          	sw	a5,44(s1)
     160:	00012903          	lw	s2,0(sp)
     164:	00412483          	lw	s1,4(sp)
     168:	01010113          	addi	sp,sp,16
     16c:	00008067          	ret
     170:	0084a503          	lw	a0,8(s1)
     174:	00600793          	li	a5,6
     178:	00840593          	addi	a1,s0,8
     17c:	00f42623          	sw	a5,12(s0)
     180:	0fd000ef          	jal	ra,a7c <Proc_6>
     184:	e3892783          	lw	a5,-456(s2)
     188:	00c42503          	lw	a0,12(s0)
     18c:	00c40613          	addi	a2,s0,12
     190:	0007a783          	lw	a5,0(a5)
     194:	00c12083          	lw	ra,12(sp)
     198:	00412483          	lw	s1,4(sp)
     19c:	00f42023          	sw	a5,0(s0)
     1a0:	00812403          	lw	s0,8(sp)
     1a4:	00012903          	lw	s2,0(sp)
     1a8:	00a00593          	li	a1,10
     1ac:	01010113          	addi	sp,sp,16
     1b0:	1210006f          	j	ad0 <Proc_7>

000001b4 <Proc_2>:
     1b4:	000227b7          	lui	a5,0x22
     1b8:	e297c703          	lbu	a4,-471(a5) # 21e29 <Ch_1_Glob>
     1bc:	04100793          	li	a5,65
     1c0:	00f70463          	beq	a4,a5,1c8 <Proc_2+0x14>
     1c4:	00008067          	ret
     1c8:	00052783          	lw	a5,0(a0)
     1cc:	00022737          	lui	a4,0x22
     1d0:	e3072703          	lw	a4,-464(a4) # 21e30 <Int_Glob>
     1d4:	00978793          	addi	a5,a5,9
     1d8:	40e787b3          	sub	a5,a5,a4
     1dc:	00f52023          	sw	a5,0(a0)
     1e0:	00008067          	ret

000001e4 <Proc_3>:
     1e4:	000227b7          	lui	a5,0x22
     1e8:	e387a603          	lw	a2,-456(a5) # 21e38 <Ptr_Glob>
     1ec:	00060863          	beqz	a2,1fc <Proc_3+0x18>
     1f0:	00062703          	lw	a4,0(a2)
     1f4:	00e52023          	sw	a4,0(a0)
     1f8:	e387a603          	lw	a2,-456(a5)
     1fc:	000227b7          	lui	a5,0x22
     200:	e307a583          	lw	a1,-464(a5) # 21e30 <Int_Glob>
     204:	00c60613          	addi	a2,a2,12
     208:	00a00513          	li	a0,10
     20c:	0c50006f          	j	ad0 <Proc_7>

00000210 <Proc_4>:
     210:	000227b7          	lui	a5,0x22
     214:	e297c783          	lbu	a5,-471(a5) # 21e29 <Ch_1_Glob>
     218:	00022737          	lui	a4,0x22
     21c:	e2c72683          	lw	a3,-468(a4) # 21e2c <Bool_Glob>
     220:	fbf78793          	addi	a5,a5,-65
     224:	0017b793          	seqz	a5,a5
     228:	00d7e7b3          	or	a5,a5,a3
     22c:	e2f72623          	sw	a5,-468(a4)
     230:	000227b7          	lui	a5,0x22
     234:	04200713          	li	a4,66
     238:	e2e78423          	sb	a4,-472(a5) # 21e28 <Ch_2_Glob>
     23c:	00008067          	ret

00000240 <Proc_5>:
     240:	000227b7          	lui	a5,0x22
     244:	04100713          	li	a4,65
     248:	e2e784a3          	sb	a4,-471(a5) # 21e29 <Ch_1_Glob>
     24c:	000227b7          	lui	a5,0x22
     250:	e207a623          	sw	zero,-468(a5) # 21e2c <Bool_Glob>
     254:	00008067          	ret

00000258 <main>:
     258:	f5010113          	addi	sp,sp,-176
     25c:	03000513          	li	a0,48
     260:	0a112623          	sw	ra,172(sp)
     264:	0a812423          	sw	s0,168(sp)
     268:	09612823          	sw	s6,144(sp)
     26c:	09812423          	sw	s8,136(sp)
     270:	0a912223          	sw	s1,164(sp)
     274:	0b212023          	sw	s2,160(sp)
     278:	09312e23          	sw	s3,156(sp)
     27c:	09412c23          	sw	s4,152(sp)
     280:	09512a23          	sw	s5,148(sp)
     284:	09712623          	sw	s7,140(sp)
     288:	09912223          	sw	s9,132(sp)
     28c:	09a12023          	sw	s10,128(sp)
     290:	07b12e23          	sw	s11,124(sp)
     294:	139000ef          	jal	ra,bcc <malloc>
     298:	00050413          	mv	s0,a0
     29c:	000227b7          	lui	a5,0x22
     2a0:	03000513          	li	a0,48
     2a4:	e287aa23          	sw	s0,-460(a5) # 21e34 <Next_Ptr_Glob>
     2a8:	125000ef          	jal	ra,bcc <malloc>
     2ac:	000207b7          	lui	a5,0x20
     2b0:	00020737          	lui	a4,0x20
     2b4:	03c78793          	addi	a5,a5,60 # 2003c <_impure_ptr+0x4>
     2b8:	59c70713          	addi	a4,a4,1436 # 2059c <_impure_ptr+0x564>
     2bc:	0007a383          	lw	t2,0(a5)
     2c0:	0047af03          	lw	t5,4(a5)
     2c4:	0087ae83          	lw	t4,8(a5)
     2c8:	00c7ae03          	lw	t3,12(a5)
     2cc:	0107a303          	lw	t1,16(a5)
     2d0:	00072283          	lw	t0,0(a4)
     2d4:	00472f83          	lw	t6,4(a4)
     2d8:	0147a883          	lw	a7,20(a5)
     2dc:	0187a803          	lw	a6,24(a5)
     2e0:	01c7d583          	lhu	a1,28(a5)
     2e4:	01e7c603          	lbu	a2,30(a5)
     2e8:	00852023          	sw	s0,0(a0)
     2ec:	00050793          	mv	a5,a0
     2f0:	00052223          	sw	zero,4(a0)
     2f4:	00872683          	lw	a3,8(a4)
     2f8:	00200513          	li	a0,2
     2fc:	00a7a423          	sw	a0,8(a5)
     300:	00022b37          	lui	s6,0x22
     304:	02800513          	li	a0,40
     308:	0077a823          	sw	t2,16(a5)
     30c:	01e7aa23          	sw	t5,20(a5)
     310:	01d7ac23          	sw	t4,24(a5)
     314:	01c7ae23          	sw	t3,28(a5)
     318:	0267a023          	sw	t1,32(a5)
     31c:	02512823          	sw	t0,48(sp)
     320:	03f12a23          	sw	t6,52(sp)
     324:	00a7a623          	sw	a0,12(a5)
     328:	0317a223          	sw	a7,36(a5)
     32c:	0307a423          	sw	a6,40(a5)
     330:	02b79623          	sh	a1,44(a5)
     334:	02c78723          	sb	a2,46(a5)
     338:	e2fb2c23          	sw	a5,-456(s6) # 21e38 <Ptr_Glob>
     33c:	00c72883          	lw	a7,12(a4)
     340:	01072803          	lw	a6,16(a4)
     344:	01472583          	lw	a1,20(a4)
     348:	01872603          	lw	a2,24(a4)
     34c:	02d12c23          	sw	a3,56(sp)
     350:	01e74783          	lbu	a5,30(a4)
     354:	01c75683          	lhu	a3,28(a4)
     358:	00022c37          	lui	s8,0x22
     35c:	f1cc0713          	addi	a4,s8,-228 # 21f1c <Arr_2_Glob>
     360:	04f10723          	sb	a5,78(sp)
     364:	00a00793          	li	a5,10
     368:	64f72e23          	sw	a5,1628(a4)
     36c:	00a00513          	li	a0,10
     370:	03112e23          	sw	a7,60(sp)
     374:	05012023          	sw	a6,64(sp)
     378:	04b12223          	sw	a1,68(sp)
     37c:	04c12423          	sw	a2,72(sp)
     380:	04d11623          	sh	a3,76(sp)
     384:	0d4010ef          	jal	ra,1458 <putchar>
     388:	00020537          	lui	a0,0x20
     38c:	05c50513          	addi	a0,a0,92 # 2005c <_impure_ptr+0x24>
     390:	2ec010ef          	jal	ra,167c <puts>
     394:	00a00513          	li	a0,10
     398:	0c0010ef          	jal	ra,1458 <putchar>
     39c:	000227b7          	lui	a5,0x22
     3a0:	e247a783          	lw	a5,-476(a5) # 21e24 <Reg>
     3a4:	6c078063          	beqz	a5,a64 <main+0x80c>
     3a8:	00020537          	lui	a0,0x20
     3ac:	08c50513          	addi	a0,a0,140 # 2008c <_impure_ptr+0x54>
     3b0:	2cc010ef          	jal	ra,167c <puts>
     3b4:	00a00513          	li	a0,10
     3b8:	0a0010ef          	jal	ra,1458 <putchar>
     3bc:	00020537          	lui	a0,0x20
     3c0:	0e850513          	addi	a0,a0,232 # 200e8 <_impure_ptr+0xb0>
     3c4:	03c010ef          	jal	ra,1400 <printf>
     3c8:	00a00513          	li	a0,10
     3cc:	08c010ef          	jal	ra,1458 <putchar>
     3d0:	00020537          	lui	a0,0x20
     3d4:	06400593          	li	a1,100
     3d8:	12050513          	addi	a0,a0,288 # 20120 <_impure_ptr+0xe8>
     3dc:	024010ef          	jal	ra,1400 <printf>
     3e0:	00000513          	li	a0,0
     3e4:	7d8000ef          	jal	ra,bbc <time>
     3e8:	00050793          	mv	a5,a0
     3ec:	00022737          	lui	a4,0x22
     3f0:	00000513          	li	a0,0
     3f4:	e2f72023          	sw	a5,-480(a4) # 21e20 <Begin_Time>
     3f8:	7cc000ef          	jal	ra,bc4 <insn>
     3fc:	000207b7          	lui	a5,0x20
     400:	5bc78793          	addi	a5,a5,1468 # 205bc <_impure_ptr+0x584>
     404:	0047a703          	lw	a4,4(a5)
     408:	0007ad83          	lw	s11,0(a5)
     40c:	00020837          	lui	a6,0x20
     410:	00e12223          	sw	a4,4(sp)
     414:	0087a703          	lw	a4,8(a5)
     418:	00100493          	li	s1,1
     41c:	000229b7          	lui	s3,0x22
     420:	00e12423          	sw	a4,8(sp)
     424:	00c7a703          	lw	a4,12(a5)
     428:	00022a37          	lui	s4,0x22
     42c:	00022437          	lui	s0,0x22
     430:	00e12623          	sw	a4,12(sp)
     434:	0107a703          	lw	a4,16(a5)
     438:	00022bb7          	lui	s7,0x22
     43c:	00022ab7          	lui	s5,0x22
     440:	00e12823          	sw	a4,16(sp)
     444:	0147a703          	lw	a4,20(a5)
     448:	5dc80c93          	addi	s9,a6,1500 # 205dc <_impure_ptr+0x5a4>
     44c:	00e12a23          	sw	a4,20(sp)
     450:	0187a703          	lw	a4,24(a5)
     454:	00e12c23          	sw	a4,24(sp)
     458:	01c7d703          	lhu	a4,28(a5)
     45c:	01e7c783          	lbu	a5,30(a5)
     460:	00e11e23          	sh	a4,28(sp)
     464:	00f10fa3          	sb	a5,31(sp)
     468:	000227b7          	lui	a5,0x22
     46c:	e0a7aa23          	sw	a0,-492(a5) # 21e14 <Begin_Insn>
     470:	04100713          	li	a4,65
     474:	e2e984a3          	sb	a4,-471(s3) # 21e29 <Ch_1_Glob>
     478:	04200713          	li	a4,66
     47c:	e2e40423          	sb	a4,-472(s0) # 21e28 <Ch_2_Glob>
     480:	00412703          	lw	a4,4(sp)
     484:	00100793          	li	a5,1
     488:	05010593          	addi	a1,sp,80
     48c:	04e12a23          	sw	a4,84(sp)
     490:	00812703          	lw	a4,8(sp)
     494:	03010513          	addi	a0,sp,48
     498:	e2fa2623          	sw	a5,-468(s4) # 21e2c <Bool_Glob>
     49c:	04e12c23          	sw	a4,88(sp)
     4a0:	00c12703          	lw	a4,12(sp)
     4a4:	02f12623          	sw	a5,44(sp)
     4a8:	05b12823          	sw	s11,80(sp)
     4ac:	04e12e23          	sw	a4,92(sp)
     4b0:	01012703          	lw	a4,16(sp)
     4b4:	06e12023          	sw	a4,96(sp)
     4b8:	01412703          	lw	a4,20(sp)
     4bc:	06e12223          	sw	a4,100(sp)
     4c0:	01812703          	lw	a4,24(sp)
     4c4:	06e12423          	sw	a4,104(sp)
     4c8:	01c15703          	lhu	a4,28(sp)
     4cc:	06e11623          	sh	a4,108(sp)
     4d0:	01f14703          	lbu	a4,31(sp)
     4d4:	06e10723          	sb	a4,110(sp)
     4d8:	694000ef          	jal	ra,b6c <Func_2>
     4dc:	00153793          	seqz	a5,a0
     4e0:	02810613          	addi	a2,sp,40
     4e4:	00300593          	li	a1,3
     4e8:	e2fa2623          	sw	a5,-468(s4)
     4ec:	00200513          	li	a0,2
     4f0:	00700793          	li	a5,7
     4f4:	02f12423          	sw	a5,40(sp)
     4f8:	5d8000ef          	jal	ra,ad0 <Proc_7>
     4fc:	02812683          	lw	a3,40(sp)
     500:	00300613          	li	a2,3
     504:	f1cc0593          	addi	a1,s8,-228
     508:	e54b8513          	addi	a0,s7,-428 # 21e54 <Arr_1_Glob>
     50c:	5d4000ef          	jal	ra,ae0 <Proc_8>
     510:	e38b2503          	lw	a0,-456(s6)
     514:	b29ff0ef          	jal	ra,3c <Proc_1>
     518:	e2844703          	lbu	a4,-472(s0)
     51c:	04000793          	li	a5,64
     520:	52e7fe63          	bgeu	a5,a4,a5c <main+0x804>
     524:	04100d13          	li	s10,65
     528:	00300913          	li	s2,3
     52c:	000d0513          	mv	a0,s10
     530:	04300593          	li	a1,67
     534:	614000ef          	jal	ra,b48 <Func_1>
     538:	02c12783          	lw	a5,44(sp)
     53c:	001d0713          	addi	a4,s10,1
     540:	4af50663          	beq	a0,a5,9ec <main+0x794>
     544:	e2844783          	lbu	a5,-472(s0)
     548:	0ff77d13          	zext.b	s10,a4
     54c:	ffa7f0e3          	bgeu	a5,s10,52c <main+0x2d4>
     550:	00191793          	slli	a5,s2,0x1
     554:	01278933          	add	s2,a5,s2
     558:	02812883          	lw	a7,40(sp)
     55c:	e299c683          	lbu	a3,-471(s3)
     560:	04100713          	li	a4,65
     564:	03194633          	div	a2,s2,a7
     568:	00060793          	mv	a5,a2
     56c:	00e69863          	bne	a3,a4,57c <main+0x324>
     570:	e30aa703          	lw	a4,-464(s5) # 21e30 <Int_Glob>
     574:	00960793          	addi	a5,a2,9
     578:	40e787b3          	sub	a5,a5,a4
     57c:	00148493          	addi	s1,s1,1
     580:	06500713          	li	a4,101
     584:	eee496e3          	bne	s1,a4,470 <main+0x218>
     588:	00000513          	li	a0,0
     58c:	01112623          	sw	a7,12(sp)
     590:	00c12423          	sw	a2,8(sp)
     594:	00f12223          	sw	a5,4(sp)
     598:	624000ef          	jal	ra,bbc <time>
     59c:	00022737          	lui	a4,0x22
     5a0:	00050693          	mv	a3,a0
     5a4:	00000513          	li	a0,0
     5a8:	e0d72e23          	sw	a3,-484(a4) # 21e1c <End_Time>
     5ac:	618000ef          	jal	ra,bc4 <insn>
     5b0:	00050593          	mv	a1,a0
     5b4:	00020537          	lui	a0,0x20
     5b8:	000226b7          	lui	a3,0x22
     5bc:	15050513          	addi	a0,a0,336 # 20150 <_impure_ptr+0x118>
     5c0:	e0b6a823          	sw	a1,-496(a3) # 21e10 <End_Insn>
     5c4:	0b8010ef          	jal	ra,167c <puts>
     5c8:	00a00513          	li	a0,10
     5cc:	68d000ef          	jal	ra,1458 <putchar>
     5d0:	00020537          	lui	a0,0x20
     5d4:	16050513          	addi	a0,a0,352 # 20160 <_impure_ptr+0x128>
     5d8:	0a4010ef          	jal	ra,167c <puts>
     5dc:	00a00513          	li	a0,10
     5e0:	679000ef          	jal	ra,1458 <putchar>
     5e4:	e30aa583          	lw	a1,-464(s5)
     5e8:	00020537          	lui	a0,0x20
     5ec:	19850513          	addi	a0,a0,408 # 20198 <_impure_ptr+0x160>
     5f0:	000204b7          	lui	s1,0x20
     5f4:	60d000ef          	jal	ra,1400 <printf>
     5f8:	00500593          	li	a1,5
     5fc:	1b448513          	addi	a0,s1,436 # 201b4 <_impure_ptr+0x17c>
     600:	601000ef          	jal	ra,1400 <printf>
     604:	e2ca2583          	lw	a1,-468(s4)
     608:	00020537          	lui	a0,0x20
     60c:	1d050513          	addi	a0,a0,464 # 201d0 <_impure_ptr+0x198>
     610:	5f1000ef          	jal	ra,1400 <printf>
     614:	00100593          	li	a1,1
     618:	1b448513          	addi	a0,s1,436
     61c:	5e5000ef          	jal	ra,1400 <printf>
     620:	e299c583          	lbu	a1,-471(s3)
     624:	00020537          	lui	a0,0x20
     628:	1ec50513          	addi	a0,a0,492 # 201ec <_impure_ptr+0x1b4>
     62c:	5d5000ef          	jal	ra,1400 <printf>
     630:	000209b7          	lui	s3,0x20
     634:	04100593          	li	a1,65
     638:	20898513          	addi	a0,s3,520 # 20208 <_impure_ptr+0x1d0>
     63c:	5c5000ef          	jal	ra,1400 <printf>
     640:	e2844583          	lbu	a1,-472(s0)
     644:	00020537          	lui	a0,0x20
     648:	22450513          	addi	a0,a0,548 # 20224 <_impure_ptr+0x1ec>
     64c:	5b5000ef          	jal	ra,1400 <printf>
     650:	04200593          	li	a1,66
     654:	20898513          	addi	a0,s3,520
     658:	5a9000ef          	jal	ra,1400 <printf>
     65c:	e54b8b93          	addi	s7,s7,-428
     660:	020ba583          	lw	a1,32(s7)
     664:	00020537          	lui	a0,0x20
     668:	24050513          	addi	a0,a0,576 # 20240 <_impure_ptr+0x208>
     66c:	595000ef          	jal	ra,1400 <printf>
     670:	00700593          	li	a1,7
     674:	1b448513          	addi	a0,s1,436
     678:	589000ef          	jal	ra,1400 <printf>
     67c:	000227b7          	lui	a5,0x22
     680:	f1c78793          	addi	a5,a5,-228 # 21f1c <Arr_2_Glob>
     684:	65c7a583          	lw	a1,1628(a5)
     688:	00020537          	lui	a0,0x20
     68c:	25c50513          	addi	a0,a0,604 # 2025c <_impure_ptr+0x224>
     690:	571000ef          	jal	ra,1400 <printf>
     694:	00020537          	lui	a0,0x20
     698:	27850513          	addi	a0,a0,632 # 20278 <_impure_ptr+0x240>
     69c:	7e1000ef          	jal	ra,167c <puts>
     6a0:	00020537          	lui	a0,0x20
     6a4:	2a450513          	addi	a0,a0,676 # 202a4 <_impure_ptr+0x26c>
     6a8:	7d5000ef          	jal	ra,167c <puts>
     6ac:	e38b2583          	lw	a1,-456(s6)
     6b0:	00020837          	lui	a6,0x20
     6b4:	2b080513          	addi	a0,a6,688 # 202b0 <_impure_ptr+0x278>
     6b8:	0005a583          	lw	a1,0(a1)
     6bc:	00020cb7          	lui	s9,0x20
     6c0:	00020c37          	lui	s8,0x20
     6c4:	53d000ef          	jal	ra,1400 <printf>
     6c8:	00020537          	lui	a0,0x20
     6cc:	2cc50513          	addi	a0,a0,716 # 202cc <_impure_ptr+0x294>
     6d0:	7ad000ef          	jal	ra,167c <puts>
     6d4:	e38b2583          	lw	a1,-456(s6)
     6d8:	2fcc8513          	addi	a0,s9,764 # 202fc <_impure_ptr+0x2c4>
     6dc:	00020bb7          	lui	s7,0x20
     6e0:	0045a583          	lw	a1,4(a1)
     6e4:	00020ab7          	lui	s5,0x20
     6e8:	00020a37          	lui	s4,0x20
     6ec:	515000ef          	jal	ra,1400 <printf>
     6f0:	00000593          	li	a1,0
     6f4:	1b448513          	addi	a0,s1,436
     6f8:	509000ef          	jal	ra,1400 <printf>
     6fc:	e38b2583          	lw	a1,-456(s6)
     700:	318c0513          	addi	a0,s8,792 # 20318 <_impure_ptr+0x2e0>
     704:	00022437          	lui	s0,0x22
     708:	0085a583          	lw	a1,8(a1)
     70c:	000229b7          	lui	s3,0x22
     710:	3e800d93          	li	s11,1000
     714:	4ed000ef          	jal	ra,1400 <printf>
     718:	00200593          	li	a1,2
     71c:	1b448513          	addi	a0,s1,436
     720:	4e1000ef          	jal	ra,1400 <printf>
     724:	e38b2583          	lw	a1,-456(s6)
     728:	334b8513          	addi	a0,s7,820 # 20334 <_impure_ptr+0x2fc>
     72c:	00a00d13          	li	s10,10
     730:	00c5a583          	lw	a1,12(a1)
     734:	4cd000ef          	jal	ra,1400 <printf>
     738:	01100593          	li	a1,17
     73c:	1b448513          	addi	a0,s1,436
     740:	4c1000ef          	jal	ra,1400 <printf>
     744:	e38b2583          	lw	a1,-456(s6)
     748:	350a8513          	addi	a0,s5,848 # 20350 <_impure_ptr+0x318>
     74c:	00022b37          	lui	s6,0x22
     750:	01058593          	addi	a1,a1,16
     754:	4ad000ef          	jal	ra,1400 <printf>
     758:	36ca0513          	addi	a0,s4,876 # 2036c <_impure_ptr+0x334>
     75c:	721000ef          	jal	ra,167c <puts>
     760:	00020537          	lui	a0,0x20
     764:	3a050513          	addi	a0,a0,928 # 203a0 <_impure_ptr+0x368>
     768:	715000ef          	jal	ra,167c <puts>
     76c:	e34b2583          	lw	a1,-460(s6) # 21e34 <Next_Ptr_Glob>
     770:	00020837          	lui	a6,0x20
     774:	2b080513          	addi	a0,a6,688 # 202b0 <_impure_ptr+0x278>
     778:	0005a583          	lw	a1,0(a1)
     77c:	485000ef          	jal	ra,1400 <printf>
     780:	00020537          	lui	a0,0x20
     784:	3b050513          	addi	a0,a0,944 # 203b0 <_impure_ptr+0x378>
     788:	6f5000ef          	jal	ra,167c <puts>
     78c:	e34b2583          	lw	a1,-460(s6)
     790:	2fcc8513          	addi	a0,s9,764
     794:	0045a583          	lw	a1,4(a1)
     798:	469000ef          	jal	ra,1400 <printf>
     79c:	00000593          	li	a1,0
     7a0:	1b448513          	addi	a0,s1,436
     7a4:	45d000ef          	jal	ra,1400 <printf>
     7a8:	e34b2583          	lw	a1,-460(s6)
     7ac:	318c0513          	addi	a0,s8,792
     7b0:	0085a583          	lw	a1,8(a1)
     7b4:	44d000ef          	jal	ra,1400 <printf>
     7b8:	00100593          	li	a1,1
     7bc:	1b448513          	addi	a0,s1,436
     7c0:	441000ef          	jal	ra,1400 <printf>
     7c4:	e34b2583          	lw	a1,-460(s6)
     7c8:	334b8513          	addi	a0,s7,820
     7cc:	00c5a583          	lw	a1,12(a1)
     7d0:	431000ef          	jal	ra,1400 <printf>
     7d4:	01200593          	li	a1,18
     7d8:	1b448513          	addi	a0,s1,436
     7dc:	425000ef          	jal	ra,1400 <printf>
     7e0:	e34b2583          	lw	a1,-460(s6)
     7e4:	350a8513          	addi	a0,s5,848
     7e8:	01058593          	addi	a1,a1,16
     7ec:	415000ef          	jal	ra,1400 <printf>
     7f0:	36ca0513          	addi	a0,s4,876
     7f4:	689000ef          	jal	ra,167c <puts>
     7f8:	00412783          	lw	a5,4(sp)
     7fc:	00020537          	lui	a0,0x20
     800:	3f050513          	addi	a0,a0,1008 # 203f0 <_impure_ptr+0x3b8>
     804:	00078593          	mv	a1,a5
     808:	3f9000ef          	jal	ra,1400 <printf>
     80c:	00500593          	li	a1,5
     810:	1b448513          	addi	a0,s1,436
     814:	3ed000ef          	jal	ra,1400 <printf>
     818:	00c12883          	lw	a7,12(sp)
     81c:	00812603          	lw	a2,8(sp)
     820:	00020537          	lui	a0,0x20
     824:	41190933          	sub	s2,s2,a7
     828:	00391793          	slli	a5,s2,0x3
     82c:	41278933          	sub	s2,a5,s2
     830:	40c905b3          	sub	a1,s2,a2
     834:	40c50513          	addi	a0,a0,1036 # 2040c <_impure_ptr+0x3d4>
     838:	3c9000ef          	jal	ra,1400 <printf>
     83c:	00d00593          	li	a1,13
     840:	1b448513          	addi	a0,s1,436
     844:	3bd000ef          	jal	ra,1400 <printf>
     848:	02812583          	lw	a1,40(sp)
     84c:	00020537          	lui	a0,0x20
     850:	42850513          	addi	a0,a0,1064 # 20428 <_impure_ptr+0x3f0>
     854:	3ad000ef          	jal	ra,1400 <printf>
     858:	00700593          	li	a1,7
     85c:	1b448513          	addi	a0,s1,436
     860:	3a1000ef          	jal	ra,1400 <printf>
     864:	02c12583          	lw	a1,44(sp)
     868:	00020537          	lui	a0,0x20
     86c:	44450513          	addi	a0,a0,1092 # 20444 <_impure_ptr+0x40c>
     870:	391000ef          	jal	ra,1400 <printf>
     874:	00100593          	li	a1,1
     878:	1b448513          	addi	a0,s1,436
     87c:	385000ef          	jal	ra,1400 <printf>
     880:	00020537          	lui	a0,0x20
     884:	03010593          	addi	a1,sp,48
     888:	46050513          	addi	a0,a0,1120 # 20460 <_impure_ptr+0x428>
     88c:	375000ef          	jal	ra,1400 <printf>
     890:	00020537          	lui	a0,0x20
     894:	47c50513          	addi	a0,a0,1148 # 2047c <_impure_ptr+0x444>
     898:	5e5000ef          	jal	ra,167c <puts>
     89c:	00020537          	lui	a0,0x20
     8a0:	05010593          	addi	a1,sp,80
     8a4:	4b050513          	addi	a0,a0,1200 # 204b0 <_impure_ptr+0x478>
     8a8:	359000ef          	jal	ra,1400 <printf>
     8ac:	00020537          	lui	a0,0x20
     8b0:	4cc50513          	addi	a0,a0,1228 # 204cc <_impure_ptr+0x494>
     8b4:	5c9000ef          	jal	ra,167c <puts>
     8b8:	00a00513          	li	a0,10
     8bc:	39d000ef          	jal	ra,1458 <putchar>
     8c0:	000227b7          	lui	a5,0x22
     8c4:	000226b7          	lui	a3,0x22
     8c8:	e207a603          	lw	a2,-480(a5) # 21e20 <Begin_Time>
     8cc:	00022737          	lui	a4,0x22
     8d0:	e106a783          	lw	a5,-496(a3) # 21e10 <End_Insn>
     8d4:	000226b7          	lui	a3,0x22
     8d8:	e146a683          	lw	a3,-492(a3) # 21e14 <Begin_Insn>
     8dc:	e1c72703          	lw	a4,-484(a4) # 21e1c <End_Time>
     8e0:	00020537          	lui	a0,0x20
     8e4:	40d787b3          	sub	a5,a5,a3
     8e8:	40c70733          	sub	a4,a4,a2
     8ec:	06400593          	li	a1,100
     8f0:	50050513          	addi	a0,a0,1280 # 20500 <_impure_ptr+0x4c8>
     8f4:	e0e42c23          	sw	a4,-488(s0) # 21e18 <User_Time>
     8f8:	e0f9a623          	sw	a5,-500(s3) # 21e0c <User_Insn>
     8fc:	305000ef          	jal	ra,1400 <printf>
     900:	e0c9a603          	lw	a2,-500(s3)
     904:	e1842583          	lw	a1,-488(s0)
     908:	00020537          	lui	a0,0x20
     90c:	51450513          	addi	a0,a0,1300 # 20514 <_impure_ptr+0x4dc>
     910:	2f1000ef          	jal	ra,1400 <printf>
     914:	e1842583          	lw	a1,-488(s0)
     918:	e0c9a783          	lw	a5,-500(s3)
     91c:	06400613          	li	a2,100
     920:	02bd85b3          	mul	a1,s11,a1
     924:	00020537          	lui	a0,0x20
     928:	53850513          	addi	a0,a0,1336 # 20538 <_impure_ptr+0x500>
     92c:	02f5c5b3          	div	a1,a1,a5
     930:	03a5c6b3          	div	a3,a1,s10
     934:	02c5c633          	div	a2,a1,a2
     938:	03a5e733          	rem	a4,a1,s10
     93c:	03a6e6b3          	rem	a3,a3,s10
     940:	03a66633          	rem	a2,a2,s10
     944:	03b5c5b3          	div	a1,a1,s11
     948:	2b9000ef          	jal	ra,1400 <printf>
     94c:	e1842403          	lw	s0,-488(s0)
     950:	05f5e7b7          	lui	a5,0x5f5e
     954:	10078793          	addi	a5,a5,256 # 5f5e100 <_stack+0x5f1e100>
     958:	0287c433          	div	s0,a5,s0
     95c:	00020537          	lui	a0,0x20
     960:	55c50513          	addi	a0,a0,1372 # 2055c <_impure_ptr+0x524>
     964:	00040593          	mv	a1,s0
     968:	03b40433          	mul	s0,s0,s11
     96c:	295000ef          	jal	ra,1400 <printf>
     970:	6dd00713          	li	a4,1757
     974:	0002b637          	lui	a2,0x2b
     978:	e5460613          	addi	a2,a2,-428 # 2ae54 <_bss_end+0x6800>
     97c:	001ad5b7          	lui	a1,0x1ad
     980:	f4858593          	addi	a1,a1,-184 # 1acf48 <_stack+0x16cf48>
     984:	00020537          	lui	a0,0x20
     988:	58050513          	addi	a0,a0,1408 # 20580 <_impure_ptr+0x548>
     98c:	02e44733          	div	a4,s0,a4
     990:	02c44633          	div	a2,s0,a2
     994:	03a746b3          	div	a3,a4,s10
     998:	03a66633          	rem	a2,a2,s10
     99c:	03a76733          	rem	a4,a4,s10
     9a0:	03a6e6b3          	rem	a3,a3,s10
     9a4:	02b445b3          	div	a1,s0,a1
     9a8:	259000ef          	jal	ra,1400 <printf>
     9ac:	0ac12083          	lw	ra,172(sp)
     9b0:	0a812403          	lw	s0,168(sp)
     9b4:	0a412483          	lw	s1,164(sp)
     9b8:	0a012903          	lw	s2,160(sp)
     9bc:	09c12983          	lw	s3,156(sp)
     9c0:	09812a03          	lw	s4,152(sp)
     9c4:	09412a83          	lw	s5,148(sp)
     9c8:	09012b03          	lw	s6,144(sp)
     9cc:	08c12b83          	lw	s7,140(sp)
     9d0:	08812c03          	lw	s8,136(sp)
     9d4:	08412c83          	lw	s9,132(sp)
     9d8:	08012d03          	lw	s10,128(sp)
     9dc:	07c12d83          	lw	s11,124(sp)
     9e0:	00000513          	li	a0,0
     9e4:	0b010113          	addi	sp,sp,176
     9e8:	00008067          	ret
     9ec:	02c10593          	addi	a1,sp,44
     9f0:	00000513          	li	a0,0
     9f4:	088000ef          	jal	ra,a7c <Proc_6>
     9f8:	000cae03          	lw	t3,0(s9)
     9fc:	004ca303          	lw	t1,4(s9)
     a00:	008ca883          	lw	a7,8(s9)
     a04:	00cca803          	lw	a6,12(s9)
     a08:	010ca503          	lw	a0,16(s9)
     a0c:	014ca583          	lw	a1,20(s9)
     a10:	018ca603          	lw	a2,24(s9)
     a14:	01ccd683          	lhu	a3,28(s9)
     a18:	01ecc703          	lbu	a4,30(s9)
     a1c:	e2844783          	lbu	a5,-472(s0)
     a20:	001d0d13          	addi	s10,s10,1
     a24:	05c12823          	sw	t3,80(sp)
     a28:	04612a23          	sw	t1,84(sp)
     a2c:	05112c23          	sw	a7,88(sp)
     a30:	05012e23          	sw	a6,92(sp)
     a34:	06a12023          	sw	a0,96(sp)
     a38:	06b12223          	sw	a1,100(sp)
     a3c:	06c12423          	sw	a2,104(sp)
     a40:	06d11623          	sh	a3,108(sp)
     a44:	06e10723          	sb	a4,110(sp)
     a48:	e29aa823          	sw	s1,-464(s5)
     a4c:	0ffd7d13          	zext.b	s10,s10
     a50:	00048913          	mv	s2,s1
     a54:	ada7fce3          	bgeu	a5,s10,52c <main+0x2d4>
     a58:	af9ff06f          	j	550 <main+0x2f8>
     a5c:	00900913          	li	s2,9
     a60:	af9ff06f          	j	558 <main+0x300>
     a64:	00020537          	lui	a0,0x20
     a68:	0b850513          	addi	a0,a0,184 # 200b8 <_impure_ptr+0x80>
     a6c:	411000ef          	jal	ra,167c <puts>
     a70:	00a00513          	li	a0,10
     a74:	1e5000ef          	jal	ra,1458 <putchar>
     a78:	945ff06f          	j	3bc <main+0x164>

00000a7c <Proc_6>:
     a7c:	00200713          	li	a4,2
     a80:	04e50263          	beq	a0,a4,ac4 <Proc_6+0x48>
     a84:	00300793          	li	a5,3
     a88:	00f5a023          	sw	a5,0(a1)
     a8c:	00100793          	li	a5,1
     a90:	00f50c63          	beq	a0,a5,aa8 <Proc_6+0x2c>
     a94:	02a7f263          	bgeu	a5,a0,ab8 <Proc_6+0x3c>
     a98:	00400793          	li	a5,4
     a9c:	02f51263          	bne	a0,a5,ac0 <Proc_6+0x44>
     aa0:	00e5a023          	sw	a4,0(a1)
     aa4:	00008067          	ret
     aa8:	000227b7          	lui	a5,0x22
     aac:	e307a703          	lw	a4,-464(a5) # 21e30 <Int_Glob>
     ab0:	06400793          	li	a5,100
     ab4:	fee7d8e3          	bge	a5,a4,aa4 <Proc_6+0x28>
     ab8:	0005a023          	sw	zero,0(a1)
     abc:	00008067          	ret
     ac0:	00008067          	ret
     ac4:	00100793          	li	a5,1
     ac8:	00f5a023          	sw	a5,0(a1)
     acc:	00008067          	ret

00000ad0 <Proc_7>:
     ad0:	00250513          	addi	a0,a0,2
     ad4:	00b505b3          	add	a1,a0,a1
     ad8:	00b62023          	sw	a1,0(a2)
     adc:	00008067          	ret

00000ae0 <Proc_8>:
     ae0:	00560713          	addi	a4,a2,5
     ae4:	0c800813          	li	a6,200
     ae8:	03070833          	mul	a6,a4,a6
     aec:	00261613          	slli	a2,a2,0x2
     af0:	00271793          	slli	a5,a4,0x2
     af4:	00f50533          	add	a0,a0,a5
     af8:	00d52023          	sw	a3,0(a0)
     afc:	06e52c23          	sw	a4,120(a0)
     b00:	00d52223          	sw	a3,4(a0)
     b04:	00c807b3          	add	a5,a6,a2
     b08:	00f587b3          	add	a5,a1,a5
     b0c:	0107a683          	lw	a3,16(a5)
     b10:	00e7aa23          	sw	a4,20(a5)
     b14:	00e7ac23          	sw	a4,24(a5)
     b18:	00168713          	addi	a4,a3,1
     b1c:	00e7a823          	sw	a4,16(a5)
     b20:	00052703          	lw	a4,0(a0)
     b24:	010585b3          	add	a1,a1,a6
     b28:	00c585b3          	add	a1,a1,a2
     b2c:	000017b7          	lui	a5,0x1
     b30:	00b785b3          	add	a1,a5,a1
     b34:	fae5aa23          	sw	a4,-76(a1)
     b38:	000227b7          	lui	a5,0x22
     b3c:	00500713          	li	a4,5
     b40:	e2e7a823          	sw	a4,-464(a5) # 21e30 <Int_Glob>
     b44:	00008067          	ret

00000b48 <Func_1>:
     b48:	0ff57513          	zext.b	a0,a0
     b4c:	0ff5f593          	zext.b	a1,a1
     b50:	00b50663          	beq	a0,a1,b5c <Func_1+0x14>
     b54:	00000513          	li	a0,0
     b58:	00008067          	ret
     b5c:	000227b7          	lui	a5,0x22
     b60:	e2a784a3          	sb	a0,-471(a5) # 21e29 <Ch_1_Glob>
     b64:	00100513          	li	a0,1
     b68:	00008067          	ret

00000b6c <Func_2>:
     b6c:	00254703          	lbu	a4,2(a0)
     b70:	0035c783          	lbu	a5,3(a1)
     b74:	02f70c63          	beq	a4,a5,bac <Func_2+0x40>
     b78:	ff010113          	addi	sp,sp,-16
     b7c:	00112623          	sw	ra,12(sp)
     b80:	365000ef          	jal	ra,16e4 <strcmp>
     b84:	00000793          	li	a5,0
     b88:	00a05a63          	blez	a0,b9c <Func_2+0x30>
     b8c:	000227b7          	lui	a5,0x22
     b90:	00a00713          	li	a4,10
     b94:	e2e7a823          	sw	a4,-464(a5) # 21e30 <Int_Glob>
     b98:	00100793          	li	a5,1
     b9c:	00c12083          	lw	ra,12(sp)
     ba0:	00078513          	mv	a0,a5
     ba4:	01010113          	addi	sp,sp,16
     ba8:	00008067          	ret
     bac:	0000006f          	j	bac <Func_2+0x40>

00000bb0 <Func_3>:
     bb0:	ffe50513          	addi	a0,a0,-2
     bb4:	00153513          	seqz	a0,a0
     bb8:	00008067          	ret

00000bbc <time>:
     bbc:	c0002573          	rdcycle	a0
     bc0:	00008067          	ret

00000bc4 <insn>:
     bc4:	c0202573          	rdinstret	a0
     bc8:	00008067          	ret

00000bcc <malloc>:
     bcc:	00050593          	mv	a1,a0
     bd0:	0001f517          	auipc	a0,0x1f
     bd4:	46852503          	lw	a0,1128(a0) # 20038 <_impure_ptr>
     bd8:	0140006f          	j	bec <_malloc_r>

00000bdc <free>:
     bdc:	00050593          	mv	a1,a0
     be0:	0001f517          	auipc	a0,0x1f
     be4:	45852503          	lw	a0,1112(a0) # 20038 <_impure_ptr>
     be8:	3740406f          	j	4f5c <_free_r>

00000bec <_malloc_r>:
     bec:	fd010113          	addi	sp,sp,-48
     bf0:	03212023          	sw	s2,32(sp)
     bf4:	02112623          	sw	ra,44(sp)
     bf8:	02812423          	sw	s0,40(sp)
     bfc:	02912223          	sw	s1,36(sp)
     c00:	01312e23          	sw	s3,28(sp)
     c04:	01412c23          	sw	s4,24(sp)
     c08:	01512a23          	sw	s5,20(sp)
     c0c:	01612823          	sw	s6,16(sp)
     c10:	01712623          	sw	s7,12(sp)
     c14:	01812423          	sw	s8,8(sp)
     c18:	01912223          	sw	s9,4(sp)
     c1c:	00b58793          	addi	a5,a1,11
     c20:	01600713          	li	a4,22
     c24:	00050913          	mv	s2,a0
     c28:	06f76663          	bltu	a4,a5,c94 <_malloc_r+0xa8>
     c2c:	01000793          	li	a5,16
     c30:	1eb7e863          	bltu	a5,a1,e20 <_malloc_r+0x234>
     c34:	784000ef          	jal	ra,13b8 <__malloc_lock>
     c38:	01000493          	li	s1,16
     c3c:	01800793          	li	a5,24
     c40:	00200613          	li	a2,2
     c44:	00021997          	auipc	s3,0x21
     c48:	82098993          	addi	s3,s3,-2016 # 21464 <__malloc_av_>
     c4c:	00f987b3          	add	a5,s3,a5
     c50:	0047a403          	lw	s0,4(a5)
     c54:	ff878713          	addi	a4,a5,-8
     c58:	20e40c63          	beq	s0,a4,e70 <_malloc_r+0x284>
     c5c:	00442783          	lw	a5,4(s0)
     c60:	00c42683          	lw	a3,12(s0)
     c64:	00842603          	lw	a2,8(s0)
     c68:	ffc7f793          	andi	a5,a5,-4
     c6c:	00f407b3          	add	a5,s0,a5
     c70:	0047a703          	lw	a4,4(a5)
     c74:	00d62623          	sw	a3,12(a2)
     c78:	00c6a423          	sw	a2,8(a3)
     c7c:	00176713          	ori	a4,a4,1
     c80:	00090513          	mv	a0,s2
     c84:	00e7a223          	sw	a4,4(a5)
     c88:	734000ef          	jal	ra,13bc <__malloc_unlock>
     c8c:	00840513          	addi	a0,s0,8
     c90:	19c0006f          	j	e2c <_malloc_r+0x240>
     c94:	ff87f493          	andi	s1,a5,-8
     c98:	1807c463          	bltz	a5,e20 <_malloc_r+0x234>
     c9c:	18b4e263          	bltu	s1,a1,e20 <_malloc_r+0x234>
     ca0:	718000ef          	jal	ra,13b8 <__malloc_lock>
     ca4:	1f700793          	li	a5,503
     ca8:	4897f063          	bgeu	a5,s1,1128 <_malloc_r+0x53c>
     cac:	0094d793          	srli	a5,s1,0x9
     cb0:	1a078863          	beqz	a5,e60 <_malloc_r+0x274>
     cb4:	00400713          	li	a4,4
     cb8:	3ef76663          	bltu	a4,a5,10a4 <_malloc_r+0x4b8>
     cbc:	0064d793          	srli	a5,s1,0x6
     cc0:	03978613          	addi	a2,a5,57
     cc4:	03878513          	addi	a0,a5,56
     cc8:	00361693          	slli	a3,a2,0x3
     ccc:	00020997          	auipc	s3,0x20
     cd0:	79898993          	addi	s3,s3,1944 # 21464 <__malloc_av_>
     cd4:	00d986b3          	add	a3,s3,a3
     cd8:	0046a403          	lw	s0,4(a3)
     cdc:	ff868693          	addi	a3,a3,-8
     ce0:	02868663          	beq	a3,s0,d0c <_malloc_r+0x120>
     ce4:	00f00593          	li	a1,15
     ce8:	0100006f          	j	cf8 <_malloc_r+0x10c>
     cec:	34075663          	bgez	a4,1038 <_malloc_r+0x44c>
     cf0:	00c42403          	lw	s0,12(s0)
     cf4:	00868c63          	beq	a3,s0,d0c <_malloc_r+0x120>
     cf8:	00442783          	lw	a5,4(s0)
     cfc:	ffc7f793          	andi	a5,a5,-4
     d00:	40978733          	sub	a4,a5,s1
     d04:	fee5d4e3          	bge	a1,a4,cec <_malloc_r+0x100>
     d08:	00050613          	mv	a2,a0
     d0c:	0109a403          	lw	s0,16(s3)
     d10:	00020897          	auipc	a7,0x20
     d14:	75c88893          	addi	a7,a7,1884 # 2146c <__malloc_av_+0x8>
     d18:	17140a63          	beq	s0,a7,e8c <_malloc_r+0x2a0>
     d1c:	00442503          	lw	a0,4(s0)
     d20:	00f00693          	li	a3,15
     d24:	ffc57513          	andi	a0,a0,-4
     d28:	409507b3          	sub	a5,a0,s1
     d2c:	42f6c463          	blt	a3,a5,1154 <_malloc_r+0x568>
     d30:	0119aa23          	sw	a7,20(s3)
     d34:	0119a823          	sw	a7,16(s3)
     d38:	3e07de63          	bgez	a5,1134 <_malloc_r+0x548>
     d3c:	1ff00793          	li	a5,511
     d40:	30a7e263          	bltu	a5,a0,1044 <_malloc_r+0x458>
     d44:	ff857793          	andi	a5,a0,-8
     d48:	00878793          	addi	a5,a5,8
     d4c:	0049a583          	lw	a1,4(s3)
     d50:	00f987b3          	add	a5,s3,a5
     d54:	0007a683          	lw	a3,0(a5)
     d58:	00555513          	srli	a0,a0,0x5
     d5c:	00100713          	li	a4,1
     d60:	00a71733          	sll	a4,a4,a0
     d64:	00b76733          	or	a4,a4,a1
     d68:	ff878593          	addi	a1,a5,-8
     d6c:	00b42623          	sw	a1,12(s0)
     d70:	00d42423          	sw	a3,8(s0)
     d74:	00e9a223          	sw	a4,4(s3)
     d78:	0087a023          	sw	s0,0(a5)
     d7c:	0086a623          	sw	s0,12(a3)
     d80:	40265793          	srai	a5,a2,0x2
     d84:	00100593          	li	a1,1
     d88:	00f595b3          	sll	a1,a1,a5
     d8c:	10b76a63          	bltu	a4,a1,ea0 <_malloc_r+0x2b4>
     d90:	00e5f7b3          	and	a5,a1,a4
     d94:	02079463          	bnez	a5,dbc <_malloc_r+0x1d0>
     d98:	00159593          	slli	a1,a1,0x1
     d9c:	ffc67613          	andi	a2,a2,-4
     da0:	00e5f7b3          	and	a5,a1,a4
     da4:	00460613          	addi	a2,a2,4
     da8:	00079a63          	bnez	a5,dbc <_malloc_r+0x1d0>
     dac:	00159593          	slli	a1,a1,0x1
     db0:	00e5f7b3          	and	a5,a1,a4
     db4:	00460613          	addi	a2,a2,4
     db8:	fe078ae3          	beqz	a5,dac <_malloc_r+0x1c0>
     dbc:	00f00813          	li	a6,15
     dc0:	00361313          	slli	t1,a2,0x3
     dc4:	00698333          	add	t1,s3,t1
     dc8:	00030513          	mv	a0,t1
     dcc:	00c52783          	lw	a5,12(a0)
     dd0:	00060e13          	mv	t3,a2
     dd4:	2ef50a63          	beq	a0,a5,10c8 <_malloc_r+0x4dc>
     dd8:	0047a703          	lw	a4,4(a5)
     ddc:	00078413          	mv	s0,a5
     de0:	00c7a783          	lw	a5,12(a5)
     de4:	ffc77713          	andi	a4,a4,-4
     de8:	409706b3          	sub	a3,a4,s1
     dec:	2ed84a63          	blt	a6,a3,10e0 <_malloc_r+0x4f4>
     df0:	fe06c2e3          	bltz	a3,dd4 <_malloc_r+0x1e8>
     df4:	00e40733          	add	a4,s0,a4
     df8:	00472683          	lw	a3,4(a4)
     dfc:	00842603          	lw	a2,8(s0)
     e00:	00090513          	mv	a0,s2
     e04:	0016e693          	ori	a3,a3,1
     e08:	00d72223          	sw	a3,4(a4)
     e0c:	00f62623          	sw	a5,12(a2)
     e10:	00c7a423          	sw	a2,8(a5)
     e14:	5a8000ef          	jal	ra,13bc <__malloc_unlock>
     e18:	00840513          	addi	a0,s0,8
     e1c:	0100006f          	j	e2c <_malloc_r+0x240>
     e20:	00c00793          	li	a5,12
     e24:	00f92023          	sw	a5,0(s2)
     e28:	00000513          	li	a0,0
     e2c:	02c12083          	lw	ra,44(sp)
     e30:	02812403          	lw	s0,40(sp)
     e34:	02412483          	lw	s1,36(sp)
     e38:	02012903          	lw	s2,32(sp)
     e3c:	01c12983          	lw	s3,28(sp)
     e40:	01812a03          	lw	s4,24(sp)
     e44:	01412a83          	lw	s5,20(sp)
     e48:	01012b03          	lw	s6,16(sp)
     e4c:	00c12b83          	lw	s7,12(sp)
     e50:	00812c03          	lw	s8,8(sp)
     e54:	00412c83          	lw	s9,4(sp)
     e58:	03010113          	addi	sp,sp,48
     e5c:	00008067          	ret
     e60:	20000693          	li	a3,512
     e64:	04000613          	li	a2,64
     e68:	03f00513          	li	a0,63
     e6c:	e61ff06f          	j	ccc <_malloc_r+0xe0>
     e70:	00c7a403          	lw	s0,12(a5)
     e74:	00260613          	addi	a2,a2,2
     e78:	de8792e3          	bne	a5,s0,c5c <_malloc_r+0x70>
     e7c:	0109a403          	lw	s0,16(s3)
     e80:	00020897          	auipc	a7,0x20
     e84:	5ec88893          	addi	a7,a7,1516 # 2146c <__malloc_av_+0x8>
     e88:	e9141ae3          	bne	s0,a7,d1c <_malloc_r+0x130>
     e8c:	0049a703          	lw	a4,4(s3)
     e90:	40265793          	srai	a5,a2,0x2
     e94:	00100593          	li	a1,1
     e98:	00f595b3          	sll	a1,a1,a5
     e9c:	eeb77ae3          	bgeu	a4,a1,d90 <_malloc_r+0x1a4>
     ea0:	0089a403          	lw	s0,8(s3)
     ea4:	00442a83          	lw	s5,4(s0)
     ea8:	ffcafb13          	andi	s6,s5,-4
     eac:	009b6863          	bltu	s6,s1,ebc <_malloc_r+0x2d0>
     eb0:	409b07b3          	sub	a5,s6,s1
     eb4:	00f00713          	li	a4,15
     eb8:	14f74c63          	blt	a4,a5,1010 <_malloc_r+0x424>
     ebc:	0001fc97          	auipc	s9,0x1f
     ec0:	174c8c93          	addi	s9,s9,372 # 20030 <__malloc_sbrk_base>
     ec4:	000ca703          	lw	a4,0(s9)
     ec8:	00021a97          	auipc	s5,0x21
     ecc:	f7caaa83          	lw	s5,-132(s5) # 21e44 <__malloc_top_pad>
     ed0:	fff00793          	li	a5,-1
     ed4:	01640a33          	add	s4,s0,s6
     ed8:	01548ab3          	add	s5,s1,s5
     edc:	34f70e63          	beq	a4,a5,1238 <_malloc_r+0x64c>
     ee0:	000017b7          	lui	a5,0x1
     ee4:	00f78793          	addi	a5,a5,15 # 100f <_malloc_r+0x423>
     ee8:	00fa8ab3          	add	s5,s5,a5
     eec:	fffff7b7          	lui	a5,0xfffff
     ef0:	00fafab3          	and	s5,s5,a5
     ef4:	000a8593          	mv	a1,s5
     ef8:	00090513          	mv	a0,s2
     efc:	790000ef          	jal	ra,168c <_sbrk_r>
     f00:	fff00793          	li	a5,-1
     f04:	00050b93          	mv	s7,a0
     f08:	2af50063          	beq	a0,a5,11a8 <_malloc_r+0x5bc>
     f0c:	29456c63          	bltu	a0,s4,11a4 <_malloc_r+0x5b8>
     f10:	00023c17          	auipc	s8,0x23
     f14:	71cc0c13          	addi	s8,s8,1820 # 2462c <__malloc_current_mallinfo>
     f18:	000c2583          	lw	a1,0(s8)
     f1c:	00ba85b3          	add	a1,s5,a1
     f20:	00bc2023          	sw	a1,0(s8)
     f24:	00058793          	mv	a5,a1
     f28:	3aaa0863          	beq	s4,a0,12d8 <_malloc_r+0x6ec>
     f2c:	000ca683          	lw	a3,0(s9)
     f30:	fff00713          	li	a4,-1
     f34:	3ce68063          	beq	a3,a4,12f4 <_malloc_r+0x708>
     f38:	414b8a33          	sub	s4,s7,s4
     f3c:	00fa07b3          	add	a5,s4,a5
     f40:	00fc2023          	sw	a5,0(s8)
     f44:	007bfc93          	andi	s9,s7,7
     f48:	300c8a63          	beqz	s9,125c <_malloc_r+0x670>
     f4c:	000017b7          	lui	a5,0x1
     f50:	419b8bb3          	sub	s7,s7,s9
     f54:	00878593          	addi	a1,a5,8 # 1008 <_malloc_r+0x41c>
     f58:	008b8b93          	addi	s7,s7,8
     f5c:	419585b3          	sub	a1,a1,s9
     f60:	015b8ab3          	add	s5,s7,s5
     f64:	fff78793          	addi	a5,a5,-1
     f68:	415585b3          	sub	a1,a1,s5
     f6c:	00f5fa33          	and	s4,a1,a5
     f70:	000a0593          	mv	a1,s4
     f74:	00090513          	mv	a0,s2
     f78:	714000ef          	jal	ra,168c <_sbrk_r>
     f7c:	fff00793          	li	a5,-1
     f80:	3cf50463          	beq	a0,a5,1348 <_malloc_r+0x75c>
     f84:	41750533          	sub	a0,a0,s7
     f88:	01450ab3          	add	s5,a0,s4
     f8c:	000c2583          	lw	a1,0(s8)
     f90:	0179a423          	sw	s7,8(s3)
     f94:	001aea93          	ori	s5,s5,1
     f98:	00ba05b3          	add	a1,s4,a1
     f9c:	00bc2023          	sw	a1,0(s8)
     fa0:	015ba223          	sw	s5,4(s7)
     fa4:	35340c63          	beq	s0,s3,12fc <_malloc_r+0x710>
     fa8:	00f00693          	li	a3,15
     fac:	3566fc63          	bgeu	a3,s6,1304 <_malloc_r+0x718>
     fb0:	00442703          	lw	a4,4(s0)
     fb4:	ff4b0793          	addi	a5,s6,-12
     fb8:	ff87f793          	andi	a5,a5,-8
     fbc:	00177713          	andi	a4,a4,1
     fc0:	00f76733          	or	a4,a4,a5
     fc4:	00e42223          	sw	a4,4(s0)
     fc8:	00500613          	li	a2,5
     fcc:	00f40733          	add	a4,s0,a5
     fd0:	00c72223          	sw	a2,4(a4)
     fd4:	00c72423          	sw	a2,8(a4)
     fd8:	38f6e263          	bltu	a3,a5,135c <_malloc_r+0x770>
     fdc:	004baa83          	lw	s5,4(s7)
     fe0:	000b8413          	mv	s0,s7
     fe4:	00021797          	auipc	a5,0x21
     fe8:	e5878793          	addi	a5,a5,-424 # 21e3c <__malloc_max_sbrked_mem>
     fec:	0007a703          	lw	a4,0(a5)
     ff0:	00b77463          	bgeu	a4,a1,ff8 <_malloc_r+0x40c>
     ff4:	00b7a023          	sw	a1,0(a5)
     ff8:	00021797          	auipc	a5,0x21
     ffc:	e4878793          	addi	a5,a5,-440 # 21e40 <__malloc_max_total_mem>
    1000:	0007a703          	lw	a4,0(a5)
    1004:	1ab77663          	bgeu	a4,a1,11b0 <_malloc_r+0x5c4>
    1008:	00b7a023          	sw	a1,0(a5)
    100c:	1a40006f          	j	11b0 <_malloc_r+0x5c4>
    1010:	0014e713          	ori	a4,s1,1
    1014:	00e42223          	sw	a4,4(s0)
    1018:	009404b3          	add	s1,s0,s1
    101c:	0099a423          	sw	s1,8(s3)
    1020:	0017e793          	ori	a5,a5,1
    1024:	00090513          	mv	a0,s2
    1028:	00f4a223          	sw	a5,4(s1)
    102c:	390000ef          	jal	ra,13bc <__malloc_unlock>
    1030:	00840513          	addi	a0,s0,8
    1034:	df9ff06f          	j	e2c <_malloc_r+0x240>
    1038:	00c42683          	lw	a3,12(s0)
    103c:	00842603          	lw	a2,8(s0)
    1040:	c2dff06f          	j	c6c <_malloc_r+0x80>
    1044:	00955793          	srli	a5,a0,0x9
    1048:	00400713          	li	a4,4
    104c:	14f77263          	bgeu	a4,a5,1190 <_malloc_r+0x5a4>
    1050:	01400713          	li	a4,20
    1054:	22f76a63          	bltu	a4,a5,1288 <_malloc_r+0x69c>
    1058:	05c78693          	addi	a3,a5,92
    105c:	05b78593          	addi	a1,a5,91
    1060:	00369693          	slli	a3,a3,0x3
    1064:	00d986b3          	add	a3,s3,a3
    1068:	0006a783          	lw	a5,0(a3)
    106c:	ff868693          	addi	a3,a3,-8
    1070:	1cf68863          	beq	a3,a5,1240 <_malloc_r+0x654>
    1074:	0047a703          	lw	a4,4(a5)
    1078:	ffc77713          	andi	a4,a4,-4
    107c:	00e57663          	bgeu	a0,a4,1088 <_malloc_r+0x49c>
    1080:	0087a783          	lw	a5,8(a5)
    1084:	fef698e3          	bne	a3,a5,1074 <_malloc_r+0x488>
    1088:	00c7a683          	lw	a3,12(a5)
    108c:	0049a703          	lw	a4,4(s3)
    1090:	00d42623          	sw	a3,12(s0)
    1094:	00f42423          	sw	a5,8(s0)
    1098:	0086a423          	sw	s0,8(a3)
    109c:	0087a623          	sw	s0,12(a5)
    10a0:	ce1ff06f          	j	d80 <_malloc_r+0x194>
    10a4:	01400713          	li	a4,20
    10a8:	12f77663          	bgeu	a4,a5,11d4 <_malloc_r+0x5e8>
    10ac:	05400713          	li	a4,84
    10b0:	1ef76a63          	bltu	a4,a5,12a4 <_malloc_r+0x6b8>
    10b4:	00c4d793          	srli	a5,s1,0xc
    10b8:	06f78613          	addi	a2,a5,111
    10bc:	06e78513          	addi	a0,a5,110
    10c0:	00361693          	slli	a3,a2,0x3
    10c4:	c09ff06f          	j	ccc <_malloc_r+0xe0>
    10c8:	001e0e13          	addi	t3,t3,1
    10cc:	003e7793          	andi	a5,t3,3
    10d0:	00850513          	addi	a0,a0,8
    10d4:	10078e63          	beqz	a5,11f0 <_malloc_r+0x604>
    10d8:	00c52783          	lw	a5,12(a0)
    10dc:	cf9ff06f          	j	dd4 <_malloc_r+0x1e8>
    10e0:	00842603          	lw	a2,8(s0)
    10e4:	0014e593          	ori	a1,s1,1
    10e8:	00b42223          	sw	a1,4(s0)
    10ec:	00f62623          	sw	a5,12(a2)
    10f0:	00c7a423          	sw	a2,8(a5)
    10f4:	009404b3          	add	s1,s0,s1
    10f8:	0099aa23          	sw	s1,20(s3)
    10fc:	0099a823          	sw	s1,16(s3)
    1100:	0016e793          	ori	a5,a3,1
    1104:	0114a623          	sw	a7,12(s1)
    1108:	0114a423          	sw	a7,8(s1)
    110c:	00f4a223          	sw	a5,4(s1)
    1110:	00e40733          	add	a4,s0,a4
    1114:	00090513          	mv	a0,s2
    1118:	00d72023          	sw	a3,0(a4)
    111c:	2a0000ef          	jal	ra,13bc <__malloc_unlock>
    1120:	00840513          	addi	a0,s0,8
    1124:	d09ff06f          	j	e2c <_malloc_r+0x240>
    1128:	0034d613          	srli	a2,s1,0x3
    112c:	00848793          	addi	a5,s1,8
    1130:	b15ff06f          	j	c44 <_malloc_r+0x58>
    1134:	00a40733          	add	a4,s0,a0
    1138:	00472783          	lw	a5,4(a4)
    113c:	00090513          	mv	a0,s2
    1140:	0017e793          	ori	a5,a5,1
    1144:	00f72223          	sw	a5,4(a4)
    1148:	274000ef          	jal	ra,13bc <__malloc_unlock>
    114c:	00840513          	addi	a0,s0,8
    1150:	cddff06f          	j	e2c <_malloc_r+0x240>
    1154:	0014e713          	ori	a4,s1,1
    1158:	00e42223          	sw	a4,4(s0)
    115c:	009404b3          	add	s1,s0,s1
    1160:	0099aa23          	sw	s1,20(s3)
    1164:	0099a823          	sw	s1,16(s3)
    1168:	0017e713          	ori	a4,a5,1
    116c:	0114a623          	sw	a7,12(s1)
    1170:	0114a423          	sw	a7,8(s1)
    1174:	00e4a223          	sw	a4,4(s1)
    1178:	00a40533          	add	a0,s0,a0
    117c:	00f52023          	sw	a5,0(a0)
    1180:	00090513          	mv	a0,s2
    1184:	238000ef          	jal	ra,13bc <__malloc_unlock>
    1188:	00840513          	addi	a0,s0,8
    118c:	ca1ff06f          	j	e2c <_malloc_r+0x240>
    1190:	00655793          	srli	a5,a0,0x6
    1194:	03978693          	addi	a3,a5,57
    1198:	03878593          	addi	a1,a5,56
    119c:	00369693          	slli	a3,a3,0x3
    11a0:	ec5ff06f          	j	1064 <_malloc_r+0x478>
    11a4:	11340e63          	beq	s0,s3,12c0 <_malloc_r+0x6d4>
    11a8:	0089a403          	lw	s0,8(s3)
    11ac:	00442a83          	lw	s5,4(s0)
    11b0:	ffcafa93          	andi	s5,s5,-4
    11b4:	409a87b3          	sub	a5,s5,s1
    11b8:	009ae663          	bltu	s5,s1,11c4 <_malloc_r+0x5d8>
    11bc:	00f00713          	li	a4,15
    11c0:	e4f748e3          	blt	a4,a5,1010 <_malloc_r+0x424>
    11c4:	00090513          	mv	a0,s2
    11c8:	1f4000ef          	jal	ra,13bc <__malloc_unlock>
    11cc:	00000513          	li	a0,0
    11d0:	c5dff06f          	j	e2c <_malloc_r+0x240>
    11d4:	05c78613          	addi	a2,a5,92
    11d8:	05b78513          	addi	a0,a5,91
    11dc:	00361693          	slli	a3,a2,0x3
    11e0:	aedff06f          	j	ccc <_malloc_r+0xe0>
    11e4:	00832783          	lw	a5,8(t1)
    11e8:	fff60613          	addi	a2,a2,-1
    11ec:	1c679263          	bne	a5,t1,13b0 <_malloc_r+0x7c4>
    11f0:	00367793          	andi	a5,a2,3
    11f4:	ff830313          	addi	t1,t1,-8
    11f8:	fe0796e3          	bnez	a5,11e4 <_malloc_r+0x5f8>
    11fc:	0049a703          	lw	a4,4(s3)
    1200:	fff5c793          	not	a5,a1
    1204:	00e7f7b3          	and	a5,a5,a4
    1208:	00f9a223          	sw	a5,4(s3)
    120c:	00159593          	slli	a1,a1,0x1
    1210:	c8b7e8e3          	bltu	a5,a1,ea0 <_malloc_r+0x2b4>
    1214:	c80586e3          	beqz	a1,ea0 <_malloc_r+0x2b4>
    1218:	00f5f733          	and	a4,a1,a5
    121c:	00071a63          	bnez	a4,1230 <_malloc_r+0x644>
    1220:	00159593          	slli	a1,a1,0x1
    1224:	00f5f733          	and	a4,a1,a5
    1228:	004e0e13          	addi	t3,t3,4
    122c:	fe070ae3          	beqz	a4,1220 <_malloc_r+0x634>
    1230:	000e0613          	mv	a2,t3
    1234:	b8dff06f          	j	dc0 <_malloc_r+0x1d4>
    1238:	010a8a93          	addi	s5,s5,16
    123c:	cb9ff06f          	j	ef4 <_malloc_r+0x308>
    1240:	0049a503          	lw	a0,4(s3)
    1244:	4025d593          	srai	a1,a1,0x2
    1248:	00100713          	li	a4,1
    124c:	00b71733          	sll	a4,a4,a1
    1250:	00a76733          	or	a4,a4,a0
    1254:	00e9a223          	sw	a4,4(s3)
    1258:	e39ff06f          	j	1090 <_malloc_r+0x4a4>
    125c:	015b85b3          	add	a1,s7,s5
    1260:	40b005b3          	neg	a1,a1
    1264:	01459593          	slli	a1,a1,0x14
    1268:	0145da13          	srli	s4,a1,0x14
    126c:	000a0593          	mv	a1,s4
    1270:	00090513          	mv	a0,s2
    1274:	418000ef          	jal	ra,168c <_sbrk_r>
    1278:	fff00793          	li	a5,-1
    127c:	d0f514e3          	bne	a0,a5,f84 <_malloc_r+0x398>
    1280:	00000a13          	li	s4,0
    1284:	d09ff06f          	j	f8c <_malloc_r+0x3a0>
    1288:	05400713          	li	a4,84
    128c:	08f76263          	bltu	a4,a5,1310 <_malloc_r+0x724>
    1290:	00c55793          	srli	a5,a0,0xc
    1294:	06f78693          	addi	a3,a5,111
    1298:	06e78593          	addi	a1,a5,110
    129c:	00369693          	slli	a3,a3,0x3
    12a0:	dc5ff06f          	j	1064 <_malloc_r+0x478>
    12a4:	15400713          	li	a4,340
    12a8:	08f76263          	bltu	a4,a5,132c <_malloc_r+0x740>
    12ac:	00f4d793          	srli	a5,s1,0xf
    12b0:	07878613          	addi	a2,a5,120
    12b4:	07778513          	addi	a0,a5,119
    12b8:	00361693          	slli	a3,a2,0x3
    12bc:	a11ff06f          	j	ccc <_malloc_r+0xe0>
    12c0:	00023c17          	auipc	s8,0x23
    12c4:	36cc0c13          	addi	s8,s8,876 # 2462c <__malloc_current_mallinfo>
    12c8:	000c2783          	lw	a5,0(s8)
    12cc:	00fa87b3          	add	a5,s5,a5
    12d0:	00fc2023          	sw	a5,0(s8)
    12d4:	c59ff06f          	j	f2c <_malloc_r+0x340>
    12d8:	014a1713          	slli	a4,s4,0x14
    12dc:	c40718e3          	bnez	a4,f2c <_malloc_r+0x340>
    12e0:	0089a403          	lw	s0,8(s3)
    12e4:	015b0ab3          	add	s5,s6,s5
    12e8:	001aea93          	ori	s5,s5,1
    12ec:	01542223          	sw	s5,4(s0)
    12f0:	cf5ff06f          	j	fe4 <_malloc_r+0x3f8>
    12f4:	017ca023          	sw	s7,0(s9)
    12f8:	c4dff06f          	j	f44 <_malloc_r+0x358>
    12fc:	000b8413          	mv	s0,s7
    1300:	ce5ff06f          	j	fe4 <_malloc_r+0x3f8>
    1304:	00100793          	li	a5,1
    1308:	00fba223          	sw	a5,4(s7)
    130c:	eb9ff06f          	j	11c4 <_malloc_r+0x5d8>
    1310:	15400713          	li	a4,340
    1314:	06f76263          	bltu	a4,a5,1378 <_malloc_r+0x78c>
    1318:	00f55793          	srli	a5,a0,0xf
    131c:	07878693          	addi	a3,a5,120
    1320:	07778593          	addi	a1,a5,119
    1324:	00369693          	slli	a3,a3,0x3
    1328:	d3dff06f          	j	1064 <_malloc_r+0x478>
    132c:	55400713          	li	a4,1364
    1330:	06f76263          	bltu	a4,a5,1394 <_malloc_r+0x7a8>
    1334:	0124d793          	srli	a5,s1,0x12
    1338:	07d78613          	addi	a2,a5,125
    133c:	07c78513          	addi	a0,a5,124
    1340:	00361693          	slli	a3,a2,0x3
    1344:	989ff06f          	j	ccc <_malloc_r+0xe0>
    1348:	ff8c8c93          	addi	s9,s9,-8
    134c:	019a8ab3          	add	s5,s5,s9
    1350:	417a8ab3          	sub	s5,s5,s7
    1354:	00000a13          	li	s4,0
    1358:	c35ff06f          	j	f8c <_malloc_r+0x3a0>
    135c:	00840593          	addi	a1,s0,8
    1360:	00090513          	mv	a0,s2
    1364:	3f9030ef          	jal	ra,4f5c <_free_r>
    1368:	0089a403          	lw	s0,8(s3)
    136c:	000c2583          	lw	a1,0(s8)
    1370:	00442a83          	lw	s5,4(s0)
    1374:	c71ff06f          	j	fe4 <_malloc_r+0x3f8>
    1378:	55400713          	li	a4,1364
    137c:	02f76463          	bltu	a4,a5,13a4 <_malloc_r+0x7b8>
    1380:	01255793          	srli	a5,a0,0x12
    1384:	07d78693          	addi	a3,a5,125
    1388:	07c78593          	addi	a1,a5,124
    138c:	00369693          	slli	a3,a3,0x3
    1390:	cd5ff06f          	j	1064 <_malloc_r+0x478>
    1394:	3f800693          	li	a3,1016
    1398:	07f00613          	li	a2,127
    139c:	07e00513          	li	a0,126
    13a0:	92dff06f          	j	ccc <_malloc_r+0xe0>
    13a4:	3f800693          	li	a3,1016
    13a8:	07e00593          	li	a1,126
    13ac:	cb9ff06f          	j	1064 <_malloc_r+0x478>
    13b0:	0049a783          	lw	a5,4(s3)
    13b4:	e59ff06f          	j	120c <_malloc_r+0x620>

000013b8 <__malloc_lock>:
    13b8:	00008067          	ret

000013bc <__malloc_unlock>:
    13bc:	00008067          	ret

000013c0 <_printf_r>:
    13c0:	fc010113          	addi	sp,sp,-64
    13c4:	02c12423          	sw	a2,40(sp)
    13c8:	02d12623          	sw	a3,44(sp)
    13cc:	02e12823          	sw	a4,48(sp)
    13d0:	02f12a23          	sw	a5,52(sp)
    13d4:	03012c23          	sw	a6,56(sp)
    13d8:	03112e23          	sw	a7,60(sp)
    13dc:	00058613          	mv	a2,a1
    13e0:	00852583          	lw	a1,8(a0)
    13e4:	02810693          	addi	a3,sp,40
    13e8:	00112e23          	sw	ra,28(sp)
    13ec:	00d12623          	sw	a3,12(sp)
    13f0:	4fc000ef          	jal	ra,18ec <_vfprintf_r>
    13f4:	01c12083          	lw	ra,28(sp)
    13f8:	04010113          	addi	sp,sp,64
    13fc:	00008067          	ret

00001400 <printf>:
    1400:	fc010113          	addi	sp,sp,-64
    1404:	02c12423          	sw	a2,40(sp)
    1408:	02d12623          	sw	a3,44(sp)
    140c:	0001f317          	auipc	t1,0x1f
    1410:	c2c32303          	lw	t1,-980(t1) # 20038 <_impure_ptr>
    1414:	02b12223          	sw	a1,36(sp)
    1418:	02e12823          	sw	a4,48(sp)
    141c:	02f12a23          	sw	a5,52(sp)
    1420:	03012c23          	sw	a6,56(sp)
    1424:	03112e23          	sw	a7,60(sp)
    1428:	00832583          	lw	a1,8(t1)
    142c:	02410693          	addi	a3,sp,36
    1430:	00050613          	mv	a2,a0
    1434:	00030513          	mv	a0,t1
    1438:	00112e23          	sw	ra,28(sp)
    143c:	00d12623          	sw	a3,12(sp)
    1440:	4ac000ef          	jal	ra,18ec <_vfprintf_r>
    1444:	01c12083          	lw	ra,28(sp)
    1448:	04010113          	addi	sp,sp,64
    144c:	00008067          	ret

00001450 <_putchar_r>:
    1450:	00852603          	lw	a2,8(a0)
    1454:	01c0006f          	j	1470 <_putc_r>

00001458 <putchar>:
    1458:	0001f797          	auipc	a5,0x1f
    145c:	be07a783          	lw	a5,-1056(a5) # 20038 <_impure_ptr>
    1460:	0087a603          	lw	a2,8(a5)
    1464:	00050593          	mv	a1,a0
    1468:	00078513          	mv	a0,a5
    146c:	0040006f          	j	1470 <_putc_r>

00001470 <_putc_r>:
    1470:	fe010113          	addi	sp,sp,-32
    1474:	01212c23          	sw	s2,24(sp)
    1478:	00112e23          	sw	ra,28(sp)
    147c:	00050913          	mv	s2,a0
    1480:	00050663          	beqz	a0,148c <_putc_r+0x1c>
    1484:	03852783          	lw	a5,56(a0)
    1488:	04078663          	beqz	a5,14d4 <_putc_r+0x64>
    148c:	00862783          	lw	a5,8(a2)
    1490:	fff78793          	addi	a5,a5,-1
    1494:	00f62423          	sw	a5,8(a2)
    1498:	0007dc63          	bgez	a5,14b0 <_putc_r+0x40>
    149c:	01862703          	lw	a4,24(a2)
    14a0:	04e7c663          	blt	a5,a4,14ec <_putc_r+0x7c>
    14a4:	0ff5f793          	zext.b	a5,a1
    14a8:	00a00713          	li	a4,10
    14ac:	04e78063          	beq	a5,a4,14ec <_putc_r+0x7c>
    14b0:	00062783          	lw	a5,0(a2)
    14b4:	0ff5f513          	zext.b	a0,a1
    14b8:	00178713          	addi	a4,a5,1
    14bc:	00e62023          	sw	a4,0(a2)
    14c0:	00b78023          	sb	a1,0(a5)
    14c4:	01c12083          	lw	ra,28(sp)
    14c8:	01812903          	lw	s2,24(sp)
    14cc:	02010113          	addi	sp,sp,32
    14d0:	00008067          	ret
    14d4:	00c12623          	sw	a2,12(sp)
    14d8:	00b12423          	sw	a1,8(sp)
    14dc:	0f9030ef          	jal	ra,4dd4 <__sinit>
    14e0:	00c12603          	lw	a2,12(sp)
    14e4:	00812583          	lw	a1,8(sp)
    14e8:	fa5ff06f          	j	148c <_putc_r+0x1c>
    14ec:	01c12083          	lw	ra,28(sp)
    14f0:	00090513          	mv	a0,s2
    14f4:	01812903          	lw	s2,24(sp)
    14f8:	02010113          	addi	sp,sp,32
    14fc:	7310206f          	j	442c <__swbuf_r>

00001500 <putc>:
    1500:	ff010113          	addi	sp,sp,-16
    1504:	00812423          	sw	s0,8(sp)
    1508:	00912223          	sw	s1,4(sp)
    150c:	01212023          	sw	s2,0(sp)
    1510:	00112623          	sw	ra,12(sp)
    1514:	0001f917          	auipc	s2,0x1f
    1518:	b2492903          	lw	s2,-1244(s2) # 20038 <_impure_ptr>
    151c:	00050493          	mv	s1,a0
    1520:	00058413          	mv	s0,a1
    1524:	00090663          	beqz	s2,1530 <putc+0x30>
    1528:	03892783          	lw	a5,56(s2)
    152c:	04078a63          	beqz	a5,1580 <putc+0x80>
    1530:	00842783          	lw	a5,8(s0)
    1534:	fff78793          	addi	a5,a5,-1
    1538:	00f42423          	sw	a5,8(s0)
    153c:	0007dc63          	bgez	a5,1554 <putc+0x54>
    1540:	01842703          	lw	a4,24(s0)
    1544:	04e7c463          	blt	a5,a4,158c <putc+0x8c>
    1548:	0ff4f793          	zext.b	a5,s1
    154c:	00a00713          	li	a4,10
    1550:	02e78e63          	beq	a5,a4,158c <putc+0x8c>
    1554:	00042783          	lw	a5,0(s0)
    1558:	0ff4f513          	zext.b	a0,s1
    155c:	00178713          	addi	a4,a5,1
    1560:	00e42023          	sw	a4,0(s0)
    1564:	00978023          	sb	s1,0(a5)
    1568:	00c12083          	lw	ra,12(sp)
    156c:	00812403          	lw	s0,8(sp)
    1570:	00412483          	lw	s1,4(sp)
    1574:	00012903          	lw	s2,0(sp)
    1578:	01010113          	addi	sp,sp,16
    157c:	00008067          	ret
    1580:	00090513          	mv	a0,s2
    1584:	051030ef          	jal	ra,4dd4 <__sinit>
    1588:	fa9ff06f          	j	1530 <putc+0x30>
    158c:	00040613          	mv	a2,s0
    1590:	00812403          	lw	s0,8(sp)
    1594:	00c12083          	lw	ra,12(sp)
    1598:	00048593          	mv	a1,s1
    159c:	00090513          	mv	a0,s2
    15a0:	00412483          	lw	s1,4(sp)
    15a4:	00012903          	lw	s2,0(sp)
    15a8:	01010113          	addi	sp,sp,16
    15ac:	6810206f          	j	442c <__swbuf_r>

000015b0 <_puts_r>:
    15b0:	fc010113          	addi	sp,sp,-64
    15b4:	02812c23          	sw	s0,56(sp)
    15b8:	00050413          	mv	s0,a0
    15bc:	00058513          	mv	a0,a1
    15c0:	02912a23          	sw	s1,52(sp)
    15c4:	02112e23          	sw	ra,60(sp)
    15c8:	00058493          	mv	s1,a1
    15cc:	294000ef          	jal	ra,1860 <strlen>
    15d0:	00150713          	addi	a4,a0,1
    15d4:	0001f697          	auipc	a3,0x1f
    15d8:	fc468693          	addi	a3,a3,-60 # 20598 <_impure_ptr+0x560>
    15dc:	00e12e23          	sw	a4,28(sp)
    15e0:	03842783          	lw	a5,56(s0)
    15e4:	02010713          	addi	a4,sp,32
    15e8:	02d12423          	sw	a3,40(sp)
    15ec:	00e12a23          	sw	a4,20(sp)
    15f0:	00100693          	li	a3,1
    15f4:	00200713          	li	a4,2
    15f8:	02912023          	sw	s1,32(sp)
    15fc:	02a12223          	sw	a0,36(sp)
    1600:	02d12623          	sw	a3,44(sp)
    1604:	00e12c23          	sw	a4,24(sp)
    1608:	00842583          	lw	a1,8(s0)
    160c:	04078e63          	beqz	a5,1668 <_puts_r+0xb8>
    1610:	00c59783          	lh	a5,12(a1)
    1614:	01279713          	slli	a4,a5,0x12
    1618:	02074263          	bltz	a4,163c <_puts_r+0x8c>
    161c:	0645a703          	lw	a4,100(a1)
    1620:	000026b7          	lui	a3,0x2
    1624:	00d7e7b3          	or	a5,a5,a3
    1628:	ffffe6b7          	lui	a3,0xffffe
    162c:	fff68693          	addi	a3,a3,-1 # ffffdfff <_stack+0xfffbdfff>
    1630:	00d77733          	and	a4,a4,a3
    1634:	00f59623          	sh	a5,12(a1)
    1638:	06e5a223          	sw	a4,100(a1)
    163c:	01410613          	addi	a2,sp,20
    1640:	00040513          	mv	a0,s0
    1644:	42d030ef          	jal	ra,5270 <__sfvwrite_r>
    1648:	03c12083          	lw	ra,60(sp)
    164c:	03812403          	lw	s0,56(sp)
    1650:	00a03533          	snez	a0,a0
    1654:	40a00533          	neg	a0,a0
    1658:	03412483          	lw	s1,52(sp)
    165c:	00a56513          	ori	a0,a0,10
    1660:	04010113          	addi	sp,sp,64
    1664:	00008067          	ret
    1668:	00040513          	mv	a0,s0
    166c:	00b12623          	sw	a1,12(sp)
    1670:	764030ef          	jal	ra,4dd4 <__sinit>
    1674:	00c12583          	lw	a1,12(sp)
    1678:	f99ff06f          	j	1610 <_puts_r+0x60>

0000167c <puts>:
    167c:	00050593          	mv	a1,a0
    1680:	0001f517          	auipc	a0,0x1f
    1684:	9b852503          	lw	a0,-1608(a0) # 20038 <_impure_ptr>
    1688:	f29ff06f          	j	15b0 <_puts_r>

0000168c <_sbrk_r>:
    168c:	ff010113          	addi	sp,sp,-16
    1690:	00812423          	sw	s0,8(sp)
    1694:	00050413          	mv	s0,a0
    1698:	00058513          	mv	a0,a1
    169c:	00020797          	auipc	a5,0x20
    16a0:	7a07a823          	sw	zero,1968(a5) # 21e4c <errno>
    16a4:	00112623          	sw	ra,12(sp)
    16a8:	721130ef          	jal	ra,155c8 <_sbrk>
    16ac:	fff00793          	li	a5,-1
    16b0:	00f50a63          	beq	a0,a5,16c4 <_sbrk_r+0x38>
    16b4:	00c12083          	lw	ra,12(sp)
    16b8:	00812403          	lw	s0,8(sp)
    16bc:	01010113          	addi	sp,sp,16
    16c0:	00008067          	ret
    16c4:	00020797          	auipc	a5,0x20
    16c8:	7887a783          	lw	a5,1928(a5) # 21e4c <errno>
    16cc:	fe0784e3          	beqz	a5,16b4 <_sbrk_r+0x28>
    16d0:	00c12083          	lw	ra,12(sp)
    16d4:	00f42023          	sw	a5,0(s0)
    16d8:	00812403          	lw	s0,8(sp)
    16dc:	01010113          	addi	sp,sp,16
    16e0:	00008067          	ret

000016e4 <strcmp>:
    16e4:	00b56733          	or	a4,a0,a1
    16e8:	fff00393          	li	t2,-1
    16ec:	00377713          	andi	a4,a4,3
    16f0:	10071063          	bnez	a4,17f0 <strcmp+0x10c>
    16f4:	7f7f87b7          	lui	a5,0x7f7f8
    16f8:	f7f78793          	addi	a5,a5,-129 # 7f7f7f7f <_stack+0x7f7b7f7f>
    16fc:	00052603          	lw	a2,0(a0)
    1700:	0005a683          	lw	a3,0(a1)
    1704:	00f672b3          	and	t0,a2,a5
    1708:	00f66333          	or	t1,a2,a5
    170c:	00f282b3          	add	t0,t0,a5
    1710:	0062e2b3          	or	t0,t0,t1
    1714:	10729263          	bne	t0,t2,1818 <strcmp+0x134>
    1718:	08d61663          	bne	a2,a3,17a4 <strcmp+0xc0>
    171c:	00452603          	lw	a2,4(a0)
    1720:	0045a683          	lw	a3,4(a1)
    1724:	00f672b3          	and	t0,a2,a5
    1728:	00f66333          	or	t1,a2,a5
    172c:	00f282b3          	add	t0,t0,a5
    1730:	0062e2b3          	or	t0,t0,t1
    1734:	0c729e63          	bne	t0,t2,1810 <strcmp+0x12c>
    1738:	06d61663          	bne	a2,a3,17a4 <strcmp+0xc0>
    173c:	00852603          	lw	a2,8(a0)
    1740:	0085a683          	lw	a3,8(a1)
    1744:	00f672b3          	and	t0,a2,a5
    1748:	00f66333          	or	t1,a2,a5
    174c:	00f282b3          	add	t0,t0,a5
    1750:	0062e2b3          	or	t0,t0,t1
    1754:	0c729863          	bne	t0,t2,1824 <strcmp+0x140>
    1758:	04d61663          	bne	a2,a3,17a4 <strcmp+0xc0>
    175c:	00c52603          	lw	a2,12(a0)
    1760:	00c5a683          	lw	a3,12(a1)
    1764:	00f672b3          	and	t0,a2,a5
    1768:	00f66333          	or	t1,a2,a5
    176c:	00f282b3          	add	t0,t0,a5
    1770:	0062e2b3          	or	t0,t0,t1
    1774:	0c729263          	bne	t0,t2,1838 <strcmp+0x154>
    1778:	02d61663          	bne	a2,a3,17a4 <strcmp+0xc0>
    177c:	01052603          	lw	a2,16(a0)
    1780:	0105a683          	lw	a3,16(a1)
    1784:	00f672b3          	and	t0,a2,a5
    1788:	00f66333          	or	t1,a2,a5
    178c:	00f282b3          	add	t0,t0,a5
    1790:	0062e2b3          	or	t0,t0,t1
    1794:	0a729c63          	bne	t0,t2,184c <strcmp+0x168>
    1798:	01450513          	addi	a0,a0,20
    179c:	01458593          	addi	a1,a1,20
    17a0:	f4d60ee3          	beq	a2,a3,16fc <strcmp+0x18>
    17a4:	01061713          	slli	a4,a2,0x10
    17a8:	01069793          	slli	a5,a3,0x10
    17ac:	00f71e63          	bne	a4,a5,17c8 <strcmp+0xe4>
    17b0:	01065713          	srli	a4,a2,0x10
    17b4:	0106d793          	srli	a5,a3,0x10
    17b8:	40f70533          	sub	a0,a4,a5
    17bc:	0ff57593          	zext.b	a1,a0
    17c0:	02059063          	bnez	a1,17e0 <strcmp+0xfc>
    17c4:	00008067          	ret
    17c8:	01075713          	srli	a4,a4,0x10
    17cc:	0107d793          	srli	a5,a5,0x10
    17d0:	40f70533          	sub	a0,a4,a5
    17d4:	0ff57593          	zext.b	a1,a0
    17d8:	00059463          	bnez	a1,17e0 <strcmp+0xfc>
    17dc:	00008067          	ret
    17e0:	0ff77713          	zext.b	a4,a4
    17e4:	0ff7f793          	zext.b	a5,a5
    17e8:	40f70533          	sub	a0,a4,a5
    17ec:	00008067          	ret
    17f0:	00054603          	lbu	a2,0(a0)
    17f4:	0005c683          	lbu	a3,0(a1)
    17f8:	00150513          	addi	a0,a0,1
    17fc:	00158593          	addi	a1,a1,1
    1800:	00d61463          	bne	a2,a3,1808 <strcmp+0x124>
    1804:	fe0616e3          	bnez	a2,17f0 <strcmp+0x10c>
    1808:	40d60533          	sub	a0,a2,a3
    180c:	00008067          	ret
    1810:	00450513          	addi	a0,a0,4
    1814:	00458593          	addi	a1,a1,4
    1818:	fcd61ce3          	bne	a2,a3,17f0 <strcmp+0x10c>
    181c:	00000513          	li	a0,0
    1820:	00008067          	ret
    1824:	00850513          	addi	a0,a0,8
    1828:	00858593          	addi	a1,a1,8
    182c:	fcd612e3          	bne	a2,a3,17f0 <strcmp+0x10c>
    1830:	00000513          	li	a0,0
    1834:	00008067          	ret
    1838:	00c50513          	addi	a0,a0,12
    183c:	00c58593          	addi	a1,a1,12
    1840:	fad618e3          	bne	a2,a3,17f0 <strcmp+0x10c>
    1844:	00000513          	li	a0,0
    1848:	00008067          	ret
    184c:	01050513          	addi	a0,a0,16
    1850:	01058593          	addi	a1,a1,16
    1854:	f8d61ee3          	bne	a2,a3,17f0 <strcmp+0x10c>
    1858:	00000513          	li	a0,0
    185c:	00008067          	ret

00001860 <strlen>:
    1860:	00357793          	andi	a5,a0,3
    1864:	00050713          	mv	a4,a0
    1868:	04079c63          	bnez	a5,18c0 <strlen+0x60>
    186c:	7f7f86b7          	lui	a3,0x7f7f8
    1870:	f7f68693          	addi	a3,a3,-129 # 7f7f7f7f <_stack+0x7f7b7f7f>
    1874:	fff00593          	li	a1,-1
    1878:	00072603          	lw	a2,0(a4)
    187c:	00470713          	addi	a4,a4,4
    1880:	00d677b3          	and	a5,a2,a3
    1884:	00d787b3          	add	a5,a5,a3
    1888:	00c7e7b3          	or	a5,a5,a2
    188c:	00d7e7b3          	or	a5,a5,a3
    1890:	feb784e3          	beq	a5,a1,1878 <strlen+0x18>
    1894:	ffc74683          	lbu	a3,-4(a4)
    1898:	ffd74603          	lbu	a2,-3(a4)
    189c:	ffe74783          	lbu	a5,-2(a4)
    18a0:	40a70733          	sub	a4,a4,a0
    18a4:	04068063          	beqz	a3,18e4 <strlen+0x84>
    18a8:	02060a63          	beqz	a2,18dc <strlen+0x7c>
    18ac:	00f03533          	snez	a0,a5
    18b0:	00e50533          	add	a0,a0,a4
    18b4:	ffe50513          	addi	a0,a0,-2
    18b8:	00008067          	ret
    18bc:	fa0688e3          	beqz	a3,186c <strlen+0xc>
    18c0:	00074783          	lbu	a5,0(a4)
    18c4:	00170713          	addi	a4,a4,1
    18c8:	00377693          	andi	a3,a4,3
    18cc:	fe0798e3          	bnez	a5,18bc <strlen+0x5c>
    18d0:	40a70733          	sub	a4,a4,a0
    18d4:	fff70513          	addi	a0,a4,-1
    18d8:	00008067          	ret
    18dc:	ffd70513          	addi	a0,a4,-3
    18e0:	00008067          	ret
    18e4:	ffc70513          	addi	a0,a4,-4
    18e8:	00008067          	ret

000018ec <_vfprintf_r>:
    18ec:	e0010113          	addi	sp,sp,-512
    18f0:	1e112e23          	sw	ra,508(sp)
    18f4:	1f212823          	sw	s2,496(sp)
    18f8:	1d812c23          	sw	s8,472(sp)
    18fc:	1da12823          	sw	s10,464(sp)
    1900:	00058c13          	mv	s8,a1
    1904:	00060913          	mv	s2,a2
    1908:	00d12a23          	sw	a3,20(sp)
    190c:	1e812c23          	sw	s0,504(sp)
    1910:	1e912a23          	sw	s1,500(sp)
    1914:	1f312623          	sw	s3,492(sp)
    1918:	1f412423          	sw	s4,488(sp)
    191c:	1f512223          	sw	s5,484(sp)
    1920:	1f612023          	sw	s6,480(sp)
    1924:	1d712e23          	sw	s7,476(sp)
    1928:	1d912a23          	sw	s9,468(sp)
    192c:	1db12623          	sw	s11,460(sp)
    1930:	00050d13          	mv	s10,a0
    1934:	315060ef          	jal	ra,8448 <_localeconv_r>
    1938:	00052783          	lw	a5,0(a0)
    193c:	00078513          	mv	a0,a5
    1940:	02f12623          	sw	a5,44(sp)
    1944:	f1dff0ef          	jal	ra,1860 <strlen>
    1948:	02a12423          	sw	a0,40(sp)
    194c:	10012023          	sw	zero,256(sp)
    1950:	10012223          	sw	zero,260(sp)
    1954:	10012423          	sw	zero,264(sp)
    1958:	10012623          	sw	zero,268(sp)
    195c:	000d0663          	beqz	s10,1968 <_vfprintf_r+0x7c>
    1960:	038d2783          	lw	a5,56(s10)
    1964:	0e0788e3          	beqz	a5,2254 <_vfprintf_r+0x968>
    1968:	00cc1703          	lh	a4,12(s8)
    196c:	000026b7          	lui	a3,0x2
    1970:	01071793          	slli	a5,a4,0x10
    1974:	0107d793          	srli	a5,a5,0x10
    1978:	00d7f633          	and	a2,a5,a3
    197c:	02061863          	bnez	a2,19ac <_vfprintf_r+0xc0>
    1980:	064c2603          	lw	a2,100(s8)
    1984:	00d767b3          	or	a5,a4,a3
    1988:	01079793          	slli	a5,a5,0x10
    198c:	ffffe737          	lui	a4,0xffffe
    1990:	4107d793          	srai	a5,a5,0x10
    1994:	fff70713          	addi	a4,a4,-1 # ffffdfff <_stack+0xfffbdfff>
    1998:	00e67733          	and	a4,a2,a4
    199c:	00fc1623          	sh	a5,12(s8)
    19a0:	01079793          	slli	a5,a5,0x10
    19a4:	06ec2223          	sw	a4,100(s8)
    19a8:	0107d793          	srli	a5,a5,0x10
    19ac:	0087f713          	andi	a4,a5,8
    19b0:	2e070063          	beqz	a4,1c90 <_vfprintf_r+0x3a4>
    19b4:	010c2703          	lw	a4,16(s8)
    19b8:	2c070c63          	beqz	a4,1c90 <_vfprintf_r+0x3a4>
    19bc:	01a7f793          	andi	a5,a5,26
    19c0:	00a00713          	li	a4,10
    19c4:	2ee78863          	beq	a5,a4,1cb4 <_vfprintf_r+0x3c8>
    19c8:	11c10793          	addi	a5,sp,284
    19cc:	00090b93          	mv	s7,s2
    19d0:	0ef12a23          	sw	a5,244(sp)
    19d4:	00078893          	mv	a7,a5
    19d8:	000bc783          	lbu	a5,0(s7)
    19dc:	0e012e23          	sw	zero,252(sp)
    19e0:	0e012c23          	sw	zero,248(sp)
    19e4:	00012e23          	sw	zero,28(sp)
    19e8:	02012823          	sw	zero,48(sp)
    19ec:	02012a23          	sw	zero,52(sp)
    19f0:	02012c23          	sw	zero,56(sp)
    19f4:	04012223          	sw	zero,68(sp)
    19f8:	04012423          	sw	zero,72(sp)
    19fc:	00012623          	sw	zero,12(sp)
    1a00:	01000a13          	li	s4,16
    1a04:	22078863          	beqz	a5,1c34 <_vfprintf_r+0x348>
    1a08:	000b8413          	mv	s0,s7
    1a0c:	02500713          	li	a4,37
    1a10:	30e78c63          	beq	a5,a4,1d28 <_vfprintf_r+0x43c>
    1a14:	00144783          	lbu	a5,1(s0)
    1a18:	00140413          	addi	s0,s0,1
    1a1c:	fe079ae3          	bnez	a5,1a10 <_vfprintf_r+0x124>
    1a20:	417404b3          	sub	s1,s0,s7
    1a24:	21740863          	beq	s0,s7,1c34 <_vfprintf_r+0x348>
    1a28:	0fc12703          	lw	a4,252(sp)
    1a2c:	0f812783          	lw	a5,248(sp)
    1a30:	0178a023          	sw	s7,0(a7)
    1a34:	00970733          	add	a4,a4,s1
    1a38:	00178793          	addi	a5,a5,1
    1a3c:	0098a223          	sw	s1,4(a7)
    1a40:	0ee12e23          	sw	a4,252(sp)
    1a44:	0ef12c23          	sw	a5,248(sp)
    1a48:	00700713          	li	a4,7
    1a4c:	00888893          	addi	a7,a7,8
    1a50:	2ef74463          	blt	a4,a5,1d38 <_vfprintf_r+0x44c>
    1a54:	00c12703          	lw	a4,12(sp)
    1a58:	00044783          	lbu	a5,0(s0)
    1a5c:	00970733          	add	a4,a4,s1
    1a60:	00e12623          	sw	a4,12(sp)
    1a64:	1c078863          	beqz	a5,1c34 <_vfprintf_r+0x348>
    1a68:	00144483          	lbu	s1,1(s0)
    1a6c:	0c010ba3          	sb	zero,215(sp)
    1a70:	00140413          	addi	s0,s0,1
    1a74:	fff00c93          	li	s9,-1
    1a78:	00000993          	li	s3,0
    1a7c:	00000a93          	li	s5,0
    1a80:	00900913          	li	s2,9
    1a84:	02a00b13          	li	s6,42
    1a88:	00088d93          	mv	s11,a7
    1a8c:	00140413          	addi	s0,s0,1
    1a90:	05a00713          	li	a4,90
    1a94:	fe048793          	addi	a5,s1,-32
    1a98:	04f76863          	bltu	a4,a5,1ae8 <_vfprintf_r+0x1fc>
    1a9c:	0001f697          	auipc	a3,0x1f
    1aa0:	ba468693          	addi	a3,a3,-1116 # 20640 <_impure_ptr+0x608>
    1aa4:	00279793          	slli	a5,a5,0x2
    1aa8:	00d787b3          	add	a5,a5,a3
    1aac:	0007a783          	lw	a5,0(a5)
    1ab0:	00d787b3          	add	a5,a5,a3
    1ab4:	00078067          	jr	a5
    1ab8:	00000993          	li	s3,0
    1abc:	fd048613          	addi	a2,s1,-48
    1ac0:	00044483          	lbu	s1,0(s0)
    1ac4:	00299793          	slli	a5,s3,0x2
    1ac8:	013787b3          	add	a5,a5,s3
    1acc:	00179793          	slli	a5,a5,0x1
    1ad0:	00f609b3          	add	s3,a2,a5
    1ad4:	fd048613          	addi	a2,s1,-48
    1ad8:	00140413          	addi	s0,s0,1
    1adc:	fec972e3          	bgeu	s2,a2,1ac0 <_vfprintf_r+0x1d4>
    1ae0:	fe048793          	addi	a5,s1,-32
    1ae4:	faf77ce3          	bgeu	a4,a5,1a9c <_vfprintf_r+0x1b0>
    1ae8:	000d8893          	mv	a7,s11
    1aec:	14048463          	beqz	s1,1c34 <_vfprintf_r+0x348>
    1af0:	14910e23          	sb	s1,348(sp)
    1af4:	0c010ba3          	sb	zero,215(sp)
    1af8:	00100b13          	li	s6,1
    1afc:	00100913          	li	s2,1
    1b00:	15c10b93          	addi	s7,sp,348
    1b04:	00012823          	sw	zero,16(sp)
    1b08:	00000c93          	li	s9,0
    1b0c:	02012223          	sw	zero,36(sp)
    1b10:	02012023          	sw	zero,32(sp)
    1b14:	00012c23          	sw	zero,24(sp)
    1b18:	002aff13          	andi	t5,s5,2
    1b1c:	000f0463          	beqz	t5,1b24 <_vfprintf_r+0x238>
    1b20:	002b0b13          	addi	s6,s6,2
    1b24:	084afe93          	andi	t4,s5,132
    1b28:	0fc12783          	lw	a5,252(sp)
    1b2c:	000e9663          	bnez	t4,1b38 <_vfprintf_r+0x24c>
    1b30:	416986b3          	sub	a3,s3,s6
    1b34:	62d048e3          	bgtz	a3,2964 <_vfprintf_r+0x1078>
    1b38:	0d714703          	lbu	a4,215(sp)
    1b3c:	02070a63          	beqz	a4,1b70 <_vfprintf_r+0x284>
    1b40:	0f812703          	lw	a4,248(sp)
    1b44:	0d710693          	addi	a3,sp,215
    1b48:	00d8a023          	sw	a3,0(a7)
    1b4c:	00178793          	addi	a5,a5,1
    1b50:	00100693          	li	a3,1
    1b54:	00170713          	addi	a4,a4,1
    1b58:	00d8a223          	sw	a3,4(a7)
    1b5c:	0ef12e23          	sw	a5,252(sp)
    1b60:	0ee12c23          	sw	a4,248(sp)
    1b64:	00700693          	li	a3,7
    1b68:	00888893          	addi	a7,a7,8
    1b6c:	4ee6c063          	blt	a3,a4,204c <_vfprintf_r+0x760>
    1b70:	020f0a63          	beqz	t5,1ba4 <_vfprintf_r+0x2b8>
    1b74:	0f812703          	lw	a4,248(sp)
    1b78:	0d810693          	addi	a3,sp,216
    1b7c:	00d8a023          	sw	a3,0(a7)
    1b80:	00278793          	addi	a5,a5,2
    1b84:	00200693          	li	a3,2
    1b88:	00170713          	addi	a4,a4,1
    1b8c:	00d8a223          	sw	a3,4(a7)
    1b90:	0ef12e23          	sw	a5,252(sp)
    1b94:	0ee12c23          	sw	a4,248(sp)
    1b98:	00700693          	li	a3,7
    1b9c:	00888893          	addi	a7,a7,8
    1ba0:	6ee6c6e3          	blt	a3,a4,2a8c <_vfprintf_r+0x11a0>
    1ba4:	08000713          	li	a4,128
    1ba8:	42ee80e3          	beq	t4,a4,27c8 <_vfprintf_r+0xedc>
    1bac:	412c8cb3          	sub	s9,s9,s2
    1bb0:	4d904ce3          	bgtz	s9,2888 <_vfprintf_r+0xf9c>
    1bb4:	100af713          	andi	a4,s5,256
    1bb8:	2c071ce3          	bnez	a4,2690 <_vfprintf_r+0xda4>
    1bbc:	0f812703          	lw	a4,248(sp)
    1bc0:	012787b3          	add	a5,a5,s2
    1bc4:	0178a023          	sw	s7,0(a7)
    1bc8:	00170713          	addi	a4,a4,1
    1bcc:	0128a223          	sw	s2,4(a7)
    1bd0:	0ef12e23          	sw	a5,252(sp)
    1bd4:	0ee12c23          	sw	a4,248(sp)
    1bd8:	00700693          	li	a3,7
    1bdc:	5ae6ca63          	blt	a3,a4,2190 <_vfprintf_r+0x8a4>
    1be0:	00888893          	addi	a7,a7,8
    1be4:	004afa93          	andi	s5,s5,4
    1be8:	000a8663          	beqz	s5,1bf4 <_vfprintf_r+0x308>
    1bec:	416984b3          	sub	s1,s3,s6
    1bf0:	5c904063          	bgtz	s1,21b0 <_vfprintf_r+0x8c4>
    1bf4:	0169d463          	bge	s3,s6,1bfc <_vfprintf_r+0x310>
    1bf8:	000b0993          	mv	s3,s6
    1bfc:	00c12703          	lw	a4,12(sp)
    1c00:	01370733          	add	a4,a4,s3
    1c04:	00e12623          	sw	a4,12(sp)
    1c08:	52079ae3          	bnez	a5,293c <_vfprintf_r+0x1050>
    1c0c:	01012783          	lw	a5,16(sp)
    1c10:	0e012c23          	sw	zero,248(sp)
    1c14:	00078863          	beqz	a5,1c24 <_vfprintf_r+0x338>
    1c18:	01012583          	lw	a1,16(sp)
    1c1c:	000d0513          	mv	a0,s10
    1c20:	33c030ef          	jal	ra,4f5c <_free_r>
    1c24:	11c10893          	addi	a7,sp,284
    1c28:	00040b93          	mv	s7,s0
    1c2c:	000bc783          	lbu	a5,0(s7)
    1c30:	dc079ce3          	bnez	a5,1a08 <_vfprintf_r+0x11c>
    1c34:	0fc12783          	lw	a5,252(sp)
    1c38:	00078463          	beqz	a5,1c40 <_vfprintf_r+0x354>
    1c3c:	3010106f          	j	373c <_vfprintf_r+0x1e50>
    1c40:	00cc5783          	lhu	a5,12(s8)
    1c44:	0407f793          	andi	a5,a5,64
    1c48:	00078463          	beqz	a5,1c50 <_vfprintf_r+0x364>
    1c4c:	2e40206f          	j	3f30 <_vfprintf_r+0x2644>
    1c50:	1fc12083          	lw	ra,508(sp)
    1c54:	1f812403          	lw	s0,504(sp)
    1c58:	00c12503          	lw	a0,12(sp)
    1c5c:	1f412483          	lw	s1,500(sp)
    1c60:	1f012903          	lw	s2,496(sp)
    1c64:	1ec12983          	lw	s3,492(sp)
    1c68:	1e812a03          	lw	s4,488(sp)
    1c6c:	1e412a83          	lw	s5,484(sp)
    1c70:	1e012b03          	lw	s6,480(sp)
    1c74:	1dc12b83          	lw	s7,476(sp)
    1c78:	1d812c03          	lw	s8,472(sp)
    1c7c:	1d412c83          	lw	s9,468(sp)
    1c80:	1d012d03          	lw	s10,464(sp)
    1c84:	1cc12d83          	lw	s11,460(sp)
    1c88:	20010113          	addi	sp,sp,512
    1c8c:	00008067          	ret
    1c90:	000c0593          	mv	a1,s8
    1c94:	000d0513          	mv	a0,s10
    1c98:	131020ef          	jal	ra,45c8 <__swsetup_r>
    1c9c:	00050463          	beqz	a0,1ca4 <_vfprintf_r+0x3b8>
    1ca0:	2900206f          	j	3f30 <_vfprintf_r+0x2644>
    1ca4:	00cc5783          	lhu	a5,12(s8)
    1ca8:	00a00713          	li	a4,10
    1cac:	01a7f793          	andi	a5,a5,26
    1cb0:	d0e79ce3          	bne	a5,a4,19c8 <_vfprintf_r+0xdc>
    1cb4:	00ec1783          	lh	a5,14(s8)
    1cb8:	d007c8e3          	bltz	a5,19c8 <_vfprintf_r+0xdc>
    1cbc:	01412683          	lw	a3,20(sp)
    1cc0:	00090613          	mv	a2,s2
    1cc4:	000c0593          	mv	a1,s8
    1cc8:	000d0513          	mv	a0,s10
    1ccc:	6a0020ef          	jal	ra,436c <__sbprintf>
    1cd0:	00a12623          	sw	a0,12(sp)
    1cd4:	f7dff06f          	j	1c50 <_vfprintf_r+0x364>
    1cd8:	000d0513          	mv	a0,s10
    1cdc:	76c060ef          	jal	ra,8448 <_localeconv_r>
    1ce0:	00452783          	lw	a5,4(a0)
    1ce4:	00078513          	mv	a0,a5
    1ce8:	04f12423          	sw	a5,72(sp)
    1cec:	b75ff0ef          	jal	ra,1860 <strlen>
    1cf0:	00050793          	mv	a5,a0
    1cf4:	000d0513          	mv	a0,s10
    1cf8:	00078493          	mv	s1,a5
    1cfc:	04f12223          	sw	a5,68(sp)
    1d00:	748060ef          	jal	ra,8448 <_localeconv_r>
    1d04:	00852783          	lw	a5,8(a0)
    1d08:	02f12c23          	sw	a5,56(sp)
    1d0c:	00048463          	beqz	s1,1d14 <_vfprintf_r+0x428>
    1d10:	08c0106f          	j	2d9c <_vfprintf_r+0x14b0>
    1d14:	00044483          	lbu	s1,0(s0)
    1d18:	d75ff06f          	j	1a8c <_vfprintf_r+0x1a0>
    1d1c:	00044483          	lbu	s1,0(s0)
    1d20:	020aea93          	ori	s5,s5,32
    1d24:	d69ff06f          	j	1a8c <_vfprintf_r+0x1a0>
    1d28:	417404b3          	sub	s1,s0,s7
    1d2c:	cf741ee3          	bne	s0,s7,1a28 <_vfprintf_r+0x13c>
    1d30:	00044783          	lbu	a5,0(s0)
    1d34:	d31ff06f          	j	1a64 <_vfprintf_r+0x178>
    1d38:	0f410613          	addi	a2,sp,244
    1d3c:	000c0593          	mv	a1,s8
    1d40:	000d0513          	mv	a0,s10
    1d44:	7780b0ef          	jal	ra,d4bc <__sprint_r>
    1d48:	ee051ce3          	bnez	a0,1c40 <_vfprintf_r+0x354>
    1d4c:	11c10893          	addi	a7,sp,284
    1d50:	d05ff06f          	j	1a54 <_vfprintf_r+0x168>
    1d54:	008af793          	andi	a5,s5,8
    1d58:	000d8893          	mv	a7,s11
    1d5c:	00078463          	beqz	a5,1d64 <_vfprintf_r+0x478>
    1d60:	0780106f          	j	2dd8 <_vfprintf_r+0x14ec>
    1d64:	01412783          	lw	a5,20(sp)
    1d68:	0c010513          	addi	a0,sp,192
    1d6c:	01b12823          	sw	s11,16(sp)
    1d70:	00778793          	addi	a5,a5,7
    1d74:	ff87f793          	andi	a5,a5,-8
    1d78:	0007a583          	lw	a1,0(a5)
    1d7c:	0047a603          	lw	a2,4(a5)
    1d80:	00878793          	addi	a5,a5,8
    1d84:	00f12a23          	sw	a5,20(sp)
    1d88:	735120ef          	jal	ra,14cbc <__extenddftf2>
    1d8c:	0c012783          	lw	a5,192(sp)
    1d90:	01012883          	lw	a7,16(sp)
    1d94:	10f12023          	sw	a5,256(sp)
    1d98:	0c412783          	lw	a5,196(sp)
    1d9c:	10f12223          	sw	a5,260(sp)
    1da0:	0c812783          	lw	a5,200(sp)
    1da4:	10f12423          	sw	a5,264(sp)
    1da8:	0cc12783          	lw	a5,204(sp)
    1dac:	10f12623          	sw	a5,268(sp)
    1db0:	10010513          	addi	a0,sp,256
    1db4:	01112823          	sw	a7,16(sp)
    1db8:	610060ef          	jal	ra,83c8 <_ldcheck>
    1dbc:	0ca12e23          	sw	a0,220(sp)
    1dc0:	00200793          	li	a5,2
    1dc4:	01012883          	lw	a7,16(sp)
    1dc8:	00f51463          	bne	a0,a5,1dd0 <_vfprintf_r+0x4e4>
    1dcc:	4540106f          	j	3220 <_vfprintf_r+0x1934>
    1dd0:	00100793          	li	a5,1
    1dd4:	00f51463          	bne	a0,a5,1ddc <_vfprintf_r+0x4f0>
    1dd8:	5f80106f          	j	33d0 <_vfprintf_r+0x1ae4>
    1ddc:	06100793          	li	a5,97
    1de0:	00f49463          	bne	s1,a5,1de8 <_vfprintf_r+0x4fc>
    1de4:	2740206f          	j	4058 <_vfprintf_r+0x276c>
    1de8:	04100793          	li	a5,65
    1dec:	00f49463          	bne	s1,a5,1df4 <_vfprintf_r+0x508>
    1df0:	1890106f          	j	3778 <_vfprintf_r+0x1e8c>
    1df4:	fdf4f713          	andi	a4,s1,-33
    1df8:	fff00793          	li	a5,-1
    1dfc:	02e12e23          	sw	a4,60(sp)
    1e00:	00fc9463          	bne	s9,a5,1e08 <_vfprintf_r+0x51c>
    1e04:	29c0206f          	j	40a0 <_vfprintf_r+0x27b4>
    1e08:	04700793          	li	a5,71
    1e0c:	00f71463          	bne	a4,a5,1e14 <_vfprintf_r+0x528>
    1e10:	2980206f          	j	40a8 <_vfprintf_r+0x27bc>
    1e14:	10c12e03          	lw	t3,268(sp)
    1e18:	05512823          	sw	s5,80(sp)
    1e1c:	10012e83          	lw	t4,256(sp)
    1e20:	10412f03          	lw	t5,260(sp)
    1e24:	10812f83          	lw	t6,264(sp)
    1e28:	100ae793          	ori	a5,s5,256
    1e2c:	000e5463          	bgez	t3,1e34 <_vfprintf_r+0x548>
    1e30:	6190106f          	j	3c48 <_vfprintf_r+0x235c>
    1e34:	06012423          	sw	zero,104(sp)
    1e38:	00078a93          	mv	s5,a5
    1e3c:	00012823          	sw	zero,16(sp)
    1e40:	03c12703          	lw	a4,60(sp)
    1e44:	04600793          	li	a5,70
    1e48:	00f71463          	bne	a4,a5,1e50 <_vfprintf_r+0x564>
    1e4c:	6410106f          	j	3c8c <_vfprintf_r+0x23a0>
    1e50:	04500793          	li	a5,69
    1e54:	05112023          	sw	a7,64(sp)
    1e58:	00f71463          	bne	a4,a5,1e60 <_vfprintf_r+0x574>
    1e5c:	0e00206f          	j	3f3c <_vfprintf_r+0x2650>
    1e60:	0c010b13          	addi	s6,sp,192
    1e64:	0e010793          	addi	a5,sp,224
    1e68:	0dc10713          	addi	a4,sp,220
    1e6c:	0ec10813          	addi	a6,sp,236
    1e70:	000c8693          	mv	a3,s9
    1e74:	00200613          	li	a2,2
    1e78:	000b0593          	mv	a1,s6
    1e7c:	000d0513          	mv	a0,s10
    1e80:	0dd12023          	sw	t4,192(sp)
    1e84:	03d12223          	sw	t4,36(sp)
    1e88:	0de12223          	sw	t5,196(sp)
    1e8c:	03e12023          	sw	t5,32(sp)
    1e90:	0df12423          	sw	t6,200(sp)
    1e94:	01f12e23          	sw	t6,28(sp)
    1e98:	0dc12623          	sw	t3,204(sp)
    1e9c:	01c12c23          	sw	t3,24(sp)
    1ea0:	2a8050ef          	jal	ra,7148 <_ldtoa_r>
    1ea4:	03c12703          	lw	a4,60(sp)
    1ea8:	04700793          	li	a5,71
    1eac:	01812e03          	lw	t3,24(sp)
    1eb0:	01c12f83          	lw	t6,28(sp)
    1eb4:	02012f03          	lw	t5,32(sp)
    1eb8:	02412e83          	lw	t4,36(sp)
    1ebc:	04012883          	lw	a7,64(sp)
    1ec0:	00050b93          	mv	s7,a0
    1ec4:	00f70463          	beq	a4,a5,1ecc <_vfprintf_r+0x5e0>
    1ec8:	45c0206f          	j	4324 <_vfprintf_r+0x2a38>
    1ecc:	05012783          	lw	a5,80(sp)
    1ed0:	0017f793          	andi	a5,a5,1
    1ed4:	00078463          	beqz	a5,1edc <_vfprintf_r+0x5f0>
    1ed8:	1bc0206f          	j	4094 <_vfprintf_r+0x27a8>
    1edc:	0ec12783          	lw	a5,236(sp)
    1ee0:	417787b3          	sub	a5,a5,s7
    1ee4:	00f12e23          	sw	a5,28(sp)
    1ee8:	0dc12703          	lw	a4,220(sp)
    1eec:	04700793          	li	a5,71
    1ef0:	00e12c23          	sw	a4,24(sp)
    1ef4:	03c12703          	lw	a4,60(sp)
    1ef8:	00f71463          	bne	a4,a5,1f00 <_vfprintf_r+0x614>
    1efc:	4bd0106f          	j	3bb8 <_vfprintf_r+0x22cc>
    1f00:	03c12703          	lw	a4,60(sp)
    1f04:	04600793          	li	a5,70
    1f08:	00f71463          	bne	a4,a5,1f10 <_vfprintf_r+0x624>
    1f0c:	7950106f          	j	3ea0 <_vfprintf_r+0x25b4>
    1f10:	01812783          	lw	a5,24(sp)
    1f14:	03c12583          	lw	a1,60(sp)
    1f18:	04100613          	li	a2,65
    1f1c:	fff78793          	addi	a5,a5,-1
    1f20:	0cf12e23          	sw	a5,220(sp)
    1f24:	0ff4f713          	zext.b	a4,s1
    1f28:	00000693          	li	a3,0
    1f2c:	00c59863          	bne	a1,a2,1f3c <_vfprintf_r+0x650>
    1f30:	00f70713          	addi	a4,a4,15
    1f34:	0ff77713          	zext.b	a4,a4
    1f38:	00100693          	li	a3,1
    1f3c:	0ee10223          	sb	a4,228(sp)
    1f40:	02b00713          	li	a4,43
    1f44:	0007da63          	bgez	a5,1f58 <_vfprintf_r+0x66c>
    1f48:	01812703          	lw	a4,24(sp)
    1f4c:	00100793          	li	a5,1
    1f50:	40e787b3          	sub	a5,a5,a4
    1f54:	02d00713          	li	a4,45
    1f58:	0ee102a3          	sb	a4,229(sp)
    1f5c:	00900713          	li	a4,9
    1f60:	00f74463          	blt	a4,a5,1f68 <_vfprintf_r+0x67c>
    1f64:	1e80206f          	j	414c <_vfprintf_r+0x2860>
    1f68:	0f310513          	addi	a0,sp,243
    1f6c:	00050593          	mv	a1,a0
    1f70:	00a00693          	li	a3,10
    1f74:	06300e13          	li	t3,99
    1f78:	02d7e733          	rem	a4,a5,a3
    1f7c:	00058613          	mv	a2,a1
    1f80:	00078813          	mv	a6,a5
    1f84:	fff58593          	addi	a1,a1,-1
    1f88:	03070713          	addi	a4,a4,48
    1f8c:	fee60fa3          	sb	a4,-1(a2)
    1f90:	02d7c7b3          	div	a5,a5,a3
    1f94:	ff0e42e3          	blt	t3,a6,1f78 <_vfprintf_r+0x68c>
    1f98:	03078793          	addi	a5,a5,48
    1f9c:	0ff7f693          	zext.b	a3,a5
    1fa0:	fed58fa3          	sb	a3,-1(a1)
    1fa4:	ffe60793          	addi	a5,a2,-2
    1fa8:	00a7e463          	bltu	a5,a0,1fb0 <_vfprintf_r+0x6c4>
    1fac:	3900206f          	j	433c <_vfprintf_r+0x2a50>
    1fb0:	0e610713          	addi	a4,sp,230
    1fb4:	0080006f          	j	1fbc <_vfprintf_r+0x6d0>
    1fb8:	0007c683          	lbu	a3,0(a5)
    1fbc:	00d70023          	sb	a3,0(a4)
    1fc0:	00178793          	addi	a5,a5,1
    1fc4:	00170713          	addi	a4,a4,1
    1fc8:	fea798e3          	bne	a5,a0,1fb8 <_vfprintf_r+0x6cc>
    1fcc:	0f510793          	addi	a5,sp,245
    1fd0:	0e610713          	addi	a4,sp,230
    1fd4:	40c787b3          	sub	a5,a5,a2
    1fd8:	00f707b3          	add	a5,a4,a5
    1fdc:	0e410713          	addi	a4,sp,228
    1fe0:	40e787b3          	sub	a5,a5,a4
    1fe4:	02f12a23          	sw	a5,52(sp)
    1fe8:	03412683          	lw	a3,52(sp)
    1fec:	01c12703          	lw	a4,28(sp)
    1ff0:	00100793          	li	a5,1
    1ff4:	00e68933          	add	s2,a3,a4
    1ff8:	00e7c463          	blt	a5,a4,2000 <_vfprintf_r+0x714>
    1ffc:	2b40206f          	j	42b0 <_vfprintf_r+0x29c4>
    2000:	02812783          	lw	a5,40(sp)
    2004:	00f90933          	add	s2,s2,a5
    2008:	05012783          	lw	a5,80(sp)
    200c:	fff94b13          	not	s6,s2
    2010:	41fb5b13          	srai	s6,s6,0x1f
    2014:	bff7fa93          	andi	s5,a5,-1025
    2018:	100aea93          	ori	s5,s5,256
    201c:	01697b33          	and	s6,s2,s6
    2020:	02012223          	sw	zero,36(sp)
    2024:	02012023          	sw	zero,32(sp)
    2028:	00012c23          	sw	zero,24(sp)
    202c:	06812783          	lw	a5,104(sp)
    2030:	00079463          	bnez	a5,2038 <_vfprintf_r+0x74c>
    2034:	3f90106f          	j	3c2c <_vfprintf_r+0x2340>
    2038:	02d00793          	li	a5,45
    203c:	0cf10ba3          	sb	a5,215(sp)
    2040:	00000c93          	li	s9,0
    2044:	001b0b13          	addi	s6,s6,1
    2048:	ad1ff06f          	j	1b18 <_vfprintf_r+0x22c>
    204c:	0f410613          	addi	a2,sp,244
    2050:	000c0593          	mv	a1,s8
    2054:	000d0513          	mv	a0,s10
    2058:	05d12023          	sw	t4,64(sp)
    205c:	03e12e23          	sw	t5,60(sp)
    2060:	45c0b0ef          	jal	ra,d4bc <__sprint_r>
    2064:	0e0516e3          	bnez	a0,2950 <_vfprintf_r+0x1064>
    2068:	0fc12783          	lw	a5,252(sp)
    206c:	04012e83          	lw	t4,64(sp)
    2070:	03c12f03          	lw	t5,60(sp)
    2074:	11c10893          	addi	a7,sp,284
    2078:	af9ff06f          	j	1b70 <_vfprintf_r+0x284>
    207c:	0f812703          	lw	a4,248(sp)
    2080:	00178c93          	addi	s9,a5,1
    2084:	01c12783          	lw	a5,28(sp)
    2088:	00100693          	li	a3,1
    208c:	0178a023          	sw	s7,0(a7)
    2090:	00170493          	addi	s1,a4,1
    2094:	00888913          	addi	s2,a7,8
    2098:	38f6dce3          	bge	a3,a5,2c30 <_vfprintf_r+0x1344>
    209c:	00100793          	li	a5,1
    20a0:	00f8a223          	sw	a5,4(a7)
    20a4:	0f912e23          	sw	s9,252(sp)
    20a8:	0e912c23          	sw	s1,248(sp)
    20ac:	00700793          	li	a5,7
    20b0:	7697c2e3          	blt	a5,s1,3014 <_vfprintf_r+0x1728>
    20b4:	02812783          	lw	a5,40(sp)
    20b8:	02c12703          	lw	a4,44(sp)
    20bc:	00148493          	addi	s1,s1,1
    20c0:	00fc8cb3          	add	s9,s9,a5
    20c4:	00f92223          	sw	a5,4(s2)
    20c8:	00e92023          	sw	a4,0(s2)
    20cc:	0f912e23          	sw	s9,252(sp)
    20d0:	0e912c23          	sw	s1,248(sp)
    20d4:	00700793          	li	a5,7
    20d8:	00890913          	addi	s2,s2,8
    20dc:	7497cee3          	blt	a5,s1,3038 <_vfprintf_r+0x174c>
    20e0:	10012783          	lw	a5,256(sp)
    20e4:	00148693          	addi	a3,s1,1
    20e8:	0b010593          	addi	a1,sp,176
    20ec:	0cf12023          	sw	a5,192(sp)
    20f0:	10412783          	lw	a5,260(sp)
    20f4:	0c010513          	addi	a0,sp,192
    20f8:	00d12c23          	sw	a3,24(sp)
    20fc:	0cf12223          	sw	a5,196(sp)
    2100:	10812783          	lw	a5,264(sp)
    2104:	0a012823          	sw	zero,176(sp)
    2108:	0a012a23          	sw	zero,180(sp)
    210c:	0cf12423          	sw	a5,200(sp)
    2110:	10c12783          	lw	a5,268(sp)
    2114:	0a012c23          	sw	zero,184(sp)
    2118:	0a012e23          	sw	zero,188(sp)
    211c:	0cf12623          	sw	a5,204(sp)
    2120:	7010f0ef          	jal	ra,12020 <__eqtf2>
    2124:	01812683          	lw	a3,24(sp)
    2128:	01c12783          	lw	a5,28(sp)
    212c:	00890893          	addi	a7,s2,8
    2130:	00068713          	mv	a4,a3
    2134:	fff78d93          	addi	s11,a5,-1
    2138:	320500e3          	beqz	a0,2c58 <_vfprintf_r+0x136c>
    213c:	001b8813          	addi	a6,s7,1
    2140:	01bc8cb3          	add	s9,s9,s11
    2144:	01092023          	sw	a6,0(s2)
    2148:	01b92223          	sw	s11,4(s2)
    214c:	0f912e23          	sw	s9,252(sp)
    2150:	0ed12c23          	sw	a3,248(sp)
    2154:	00700793          	li	a5,7
    2158:	52d7c2e3          	blt	a5,a3,2e7c <_vfprintf_r+0x1590>
    215c:	01090793          	addi	a5,s2,16
    2160:	00248713          	addi	a4,s1,2
    2164:	00088913          	mv	s2,a7
    2168:	00078893          	mv	a7,a5
    216c:	03412603          	lw	a2,52(sp)
    2170:	0e410693          	addi	a3,sp,228
    2174:	00d92023          	sw	a3,0(s2)
    2178:	019607b3          	add	a5,a2,s9
    217c:	00c92223          	sw	a2,4(s2)
    2180:	0ef12e23          	sw	a5,252(sp)
    2184:	0ee12c23          	sw	a4,248(sp)
    2188:	00700693          	li	a3,7
    218c:	a4e6dce3          	bge	a3,a4,1be4 <_vfprintf_r+0x2f8>
    2190:	0f410613          	addi	a2,sp,244
    2194:	000c0593          	mv	a1,s8
    2198:	000d0513          	mv	a0,s10
    219c:	3200b0ef          	jal	ra,d4bc <__sprint_r>
    21a0:	7a051863          	bnez	a0,2950 <_vfprintf_r+0x1064>
    21a4:	0fc12783          	lw	a5,252(sp)
    21a8:	11c10893          	addi	a7,sp,284
    21ac:	a39ff06f          	j	1be4 <_vfprintf_r+0x2f8>
    21b0:	0f812703          	lw	a4,248(sp)
    21b4:	0001ed97          	auipc	s11,0x1e
    21b8:	62cd8d93          	addi	s11,s11,1580 # 207e0 <blanks.1>
    21bc:	00700913          	li	s2,7
    21c0:	009a4863          	blt	s4,s1,21d0 <_vfprintf_r+0x8e4>
    21c4:	0540006f          	j	2218 <_vfprintf_r+0x92c>
    21c8:	ff048493          	addi	s1,s1,-16
    21cc:	049a5663          	bge	s4,s1,2218 <_vfprintf_r+0x92c>
    21d0:	01078793          	addi	a5,a5,16
    21d4:	00170713          	addi	a4,a4,1
    21d8:	01b8a023          	sw	s11,0(a7)
    21dc:	0148a223          	sw	s4,4(a7)
    21e0:	0ef12e23          	sw	a5,252(sp)
    21e4:	0ee12c23          	sw	a4,248(sp)
    21e8:	00888893          	addi	a7,a7,8
    21ec:	fce95ee3          	bge	s2,a4,21c8 <_vfprintf_r+0x8dc>
    21f0:	0f410613          	addi	a2,sp,244
    21f4:	000c0593          	mv	a1,s8
    21f8:	000d0513          	mv	a0,s10
    21fc:	2c00b0ef          	jal	ra,d4bc <__sprint_r>
    2200:	74051863          	bnez	a0,2950 <_vfprintf_r+0x1064>
    2204:	ff048493          	addi	s1,s1,-16
    2208:	0fc12783          	lw	a5,252(sp)
    220c:	0f812703          	lw	a4,248(sp)
    2210:	11c10893          	addi	a7,sp,284
    2214:	fa9a4ee3          	blt	s4,s1,21d0 <_vfprintf_r+0x8e4>
    2218:	009787b3          	add	a5,a5,s1
    221c:	00170713          	addi	a4,a4,1
    2220:	01b8a023          	sw	s11,0(a7)
    2224:	0098a223          	sw	s1,4(a7)
    2228:	0ef12e23          	sw	a5,252(sp)
    222c:	0ee12c23          	sw	a4,248(sp)
    2230:	00700693          	li	a3,7
    2234:	9ce6d0e3          	bge	a3,a4,1bf4 <_vfprintf_r+0x308>
    2238:	0f410613          	addi	a2,sp,244
    223c:	000c0593          	mv	a1,s8
    2240:	000d0513          	mv	a0,s10
    2244:	2780b0ef          	jal	ra,d4bc <__sprint_r>
    2248:	70051463          	bnez	a0,2950 <_vfprintf_r+0x1064>
    224c:	0fc12783          	lw	a5,252(sp)
    2250:	9a5ff06f          	j	1bf4 <_vfprintf_r+0x308>
    2254:	000d0513          	mv	a0,s10
    2258:	37d020ef          	jal	ra,4dd4 <__sinit>
    225c:	f0cff06f          	j	1968 <_vfprintf_r+0x7c>
    2260:	01412703          	lw	a4,20(sp)
    2264:	000d8893          	mv	a7,s11
    2268:	0c010ba3          	sb	zero,215(sp)
    226c:	00072783          	lw	a5,0(a4)
    2270:	00470713          	addi	a4,a4,4
    2274:	00e12a23          	sw	a4,20(sp)
    2278:	14f10e23          	sb	a5,348(sp)
    227c:	00100b13          	li	s6,1
    2280:	00100913          	li	s2,1
    2284:	15c10b93          	addi	s7,sp,348
    2288:	87dff06f          	j	1b04 <_vfprintf_r+0x218>
    228c:	01412783          	lw	a5,20(sp)
    2290:	0c010ba3          	sb	zero,215(sp)
    2294:	000d8893          	mv	a7,s11
    2298:	0007ab83          	lw	s7,0(a5)
    229c:	00478d93          	addi	s11,a5,4
    22a0:	4c0b88e3          	beqz	s7,2f70 <_vfprintf_r+0x1684>
    22a4:	fff00793          	li	a5,-1
    22a8:	00fc9463          	bne	s9,a5,22b0 <_vfprintf_r+0x9c4>
    22ac:	0640106f          	j	3310 <_vfprintf_r+0x1a24>
    22b0:	000c8613          	mv	a2,s9
    22b4:	00000593          	li	a1,0
    22b8:	000b8513          	mv	a0,s7
    22bc:	01112a23          	sw	a7,20(sp)
    22c0:	578060ef          	jal	ra,8838 <memchr>
    22c4:	00a12823          	sw	a0,16(sp)
    22c8:	01412883          	lw	a7,20(sp)
    22cc:	00051463          	bnez	a0,22d4 <_vfprintf_r+0x9e8>
    22d0:	3410106f          	j	3e10 <_vfprintf_r+0x2524>
    22d4:	01012783          	lw	a5,16(sp)
    22d8:	01b12a23          	sw	s11,20(sp)
    22dc:	00012823          	sw	zero,16(sp)
    22e0:	41778933          	sub	s2,a5,s7
    22e4:	0d714783          	lbu	a5,215(sp)
    22e8:	fff94b13          	not	s6,s2
    22ec:	41fb5b13          	srai	s6,s6,0x1f
    22f0:	02012223          	sw	zero,36(sp)
    22f4:	02012023          	sw	zero,32(sp)
    22f8:	00012c23          	sw	zero,24(sp)
    22fc:	01697b33          	and	s6,s2,s6
    2300:	00000c93          	li	s9,0
    2304:	80078ae3          	beqz	a5,1b18 <_vfprintf_r+0x22c>
    2308:	001b0b13          	addi	s6,s6,1
    230c:	80dff06f          	j	1b18 <_vfprintf_r+0x22c>
    2310:	00044483          	lbu	s1,0(s0)
    2314:	06800793          	li	a5,104
    2318:	3ef48ee3          	beq	s1,a5,2f14 <_vfprintf_r+0x1628>
    231c:	040aea93          	ori	s5,s5,64
    2320:	f6cff06f          	j	1a8c <_vfprintf_r+0x1a0>
    2324:	01412683          	lw	a3,20(sp)
    2328:	020af793          	andi	a5,s5,32
    232c:	000d8893          	mv	a7,s11
    2330:	0006a703          	lw	a4,0(a3)
    2334:	00468693          	addi	a3,a3,4
    2338:	00d12a23          	sw	a3,20(sp)
    233c:	280792e3          	bnez	a5,2dc0 <_vfprintf_r+0x14d4>
    2340:	010af793          	andi	a5,s5,16
    2344:	74079ee3          	bnez	a5,32a0 <_vfprintf_r+0x19b4>
    2348:	040af793          	andi	a5,s5,64
    234c:	00078463          	beqz	a5,2354 <_vfprintf_r+0xa68>
    2350:	3780106f          	j	36c8 <_vfprintf_r+0x1ddc>
    2354:	200afa93          	andi	s5,s5,512
    2358:	740a84e3          	beqz	s5,32a0 <_vfprintf_r+0x19b4>
    235c:	00c12783          	lw	a5,12(sp)
    2360:	00040b93          	mv	s7,s0
    2364:	00f70023          	sb	a5,0(a4)
    2368:	8c5ff06f          	j	1c2c <_vfprintf_r+0x340>
    236c:	00044483          	lbu	s1,0(s0)
    2370:	06c00793          	li	a5,108
    2374:	3ef486e3          	beq	s1,a5,2f60 <_vfprintf_r+0x1674>
    2378:	010aea93          	ori	s5,s5,16
    237c:	f10ff06f          	j	1a8c <_vfprintf_r+0x1a0>
    2380:	01412703          	lw	a4,20(sp)
    2384:	ffff87b7          	lui	a5,0xffff8
    2388:	8307c793          	xori	a5,a5,-2000
    238c:	000d8893          	mv	a7,s11
    2390:	0cf11c23          	sh	a5,216(sp)
    2394:	00072d83          	lw	s11,0(a4)
    2398:	00470793          	addi	a5,a4,4
    239c:	00f12a23          	sw	a5,20(sp)
    23a0:	0001e797          	auipc	a5,0x1e
    23a4:	26c78793          	addi	a5,a5,620 # 2060c <_impure_ptr+0x5d4>
    23a8:	02f12823          	sw	a5,48(sp)
    23ac:	00000913          	li	s2,0
    23b0:	002aeb13          	ori	s6,s5,2
    23b4:	00200793          	li	a5,2
    23b8:	07800493          	li	s1,120
    23bc:	0c010ba3          	sb	zero,215(sp)
    23c0:	fff00693          	li	a3,-1
    23c4:	20dc8263          	beq	s9,a3,25c8 <_vfprintf_r+0xcdc>
    23c8:	012de6b3          	or	a3,s11,s2
    23cc:	f7fb7a93          	andi	s5,s6,-129
    23d0:	1e069a63          	bnez	a3,25c4 <_vfprintf_r+0xcd8>
    23d4:	260c9063          	bnez	s9,2634 <_vfprintf_r+0xd48>
    23d8:	10079863          	bnez	a5,24e8 <_vfprintf_r+0xbfc>
    23dc:	001b7913          	andi	s2,s6,1
    23e0:	1c010b93          	addi	s7,sp,448
    23e4:	1a0914e3          	bnez	s2,2d8c <_vfprintf_r+0x14a0>
    23e8:	0d714783          	lbu	a5,215(sp)
    23ec:	000c8b13          	mv	s6,s9
    23f0:	012cd463          	bge	s9,s2,23f8 <_vfprintf_r+0xb0c>
    23f4:	00090b13          	mv	s6,s2
    23f8:	00012823          	sw	zero,16(sp)
    23fc:	02012223          	sw	zero,36(sp)
    2400:	02012023          	sw	zero,32(sp)
    2404:	00012c23          	sw	zero,24(sp)
    2408:	f00790e3          	bnez	a5,2308 <_vfprintf_r+0xa1c>
    240c:	f0cff06f          	j	1b18 <_vfprintf_r+0x22c>
    2410:	000d8893          	mv	a7,s11
    2414:	010aea93          	ori	s5,s5,16
    2418:	020af793          	andi	a5,s5,32
    241c:	0a0784e3          	beqz	a5,2cc4 <_vfprintf_r+0x13d8>
    2420:	01412783          	lw	a5,20(sp)
    2424:	00778b93          	addi	s7,a5,7
    2428:	ff8bfb93          	andi	s7,s7,-8
    242c:	000bad83          	lw	s11,0(s7)
    2430:	004ba903          	lw	s2,4(s7)
    2434:	008b8793          	addi	a5,s7,8
    2438:	00f12a23          	sw	a5,20(sp)
    243c:	bffafb13          	andi	s6,s5,-1025
    2440:	00000793          	li	a5,0
    2444:	f79ff06f          	j	23bc <_vfprintf_r+0xad0>
    2448:	000d8893          	mv	a7,s11
    244c:	010aeb13          	ori	s6,s5,16
    2450:	020b7793          	andi	a5,s6,32
    2454:	0e0788e3          	beqz	a5,2d44 <_vfprintf_r+0x1458>
    2458:	01412783          	lw	a5,20(sp)
    245c:	00778b93          	addi	s7,a5,7
    2460:	ff8bfb93          	andi	s7,s7,-8
    2464:	008b8793          	addi	a5,s7,8
    2468:	00f12a23          	sw	a5,20(sp)
    246c:	000bad83          	lw	s11,0(s7)
    2470:	004ba903          	lw	s2,4(s7)
    2474:	00100793          	li	a5,1
    2478:	f45ff06f          	j	23bc <_vfprintf_r+0xad0>
    247c:	00044483          	lbu	s1,0(s0)
    2480:	080aea93          	ori	s5,s5,128
    2484:	e08ff06f          	j	1a8c <_vfprintf_r+0x1a0>
    2488:	00044483          	lbu	s1,0(s0)
    248c:	008aea93          	ori	s5,s5,8
    2490:	dfcff06f          	j	1a8c <_vfprintf_r+0x1a0>
    2494:	000d8893          	mv	a7,s11
    2498:	010aea93          	ori	s5,s5,16
    249c:	020af793          	andi	a5,s5,32
    24a0:	040788e3          	beqz	a5,2cf0 <_vfprintf_r+0x1404>
    24a4:	01412783          	lw	a5,20(sp)
    24a8:	00778b93          	addi	s7,a5,7
    24ac:	ff8bfb93          	andi	s7,s7,-8
    24b0:	004ba783          	lw	a5,4(s7)
    24b4:	000bad83          	lw	s11,0(s7)
    24b8:	008b8713          	addi	a4,s7,8
    24bc:	00e12a23          	sw	a4,20(sp)
    24c0:	00078913          	mv	s2,a5
    24c4:	0407cee3          	bltz	a5,2d20 <_vfprintf_r+0x1434>
    24c8:	fff00793          	li	a5,-1
    24cc:	000a8b13          	mv	s6,s5
    24d0:	02fc8463          	beq	s9,a5,24f8 <_vfprintf_r+0xc0c>
    24d4:	012de7b3          	or	a5,s11,s2
    24d8:	f7fafb13          	andi	s6,s5,-129
    24dc:	00079e63          	bnez	a5,24f8 <_vfprintf_r+0xc0c>
    24e0:	020c9263          	bnez	s9,2504 <_vfprintf_r+0xc18>
    24e4:	000b0a93          	mv	s5,s6
    24e8:	00000c93          	li	s9,0
    24ec:	00000913          	li	s2,0
    24f0:	1c010b93          	addi	s7,sp,448
    24f4:	ef5ff06f          	j	23e8 <_vfprintf_r+0xafc>
    24f8:	360912e3          	bnez	s2,305c <_vfprintf_r+0x1770>
    24fc:	00900793          	li	a5,9
    2500:	35b7eee3          	bltu	a5,s11,305c <_vfprintf_r+0x1770>
    2504:	030d8d93          	addi	s11,s11,48
    2508:	1bb10fa3          	sb	s11,447(sp)
    250c:	000b0a93          	mv	s5,s6
    2510:	00100913          	li	s2,1
    2514:	1bf10b93          	addi	s7,sp,447
    2518:	ed1ff06f          	j	23e8 <_vfprintf_r+0xafc>
    251c:	01412783          	lw	a5,20(sp)
    2520:	00044483          	lbu	s1,0(s0)
    2524:	0007a983          	lw	s3,0(a5)
    2528:	00478793          	addi	a5,a5,4
    252c:	00f12a23          	sw	a5,20(sp)
    2530:	d409de63          	bgez	s3,1a8c <_vfprintf_r+0x1a0>
    2534:	413009b3          	neg	s3,s3
    2538:	004aea93          	ori	s5,s5,4
    253c:	d50ff06f          	j	1a8c <_vfprintf_r+0x1a0>
    2540:	00044483          	lbu	s1,0(s0)
    2544:	001aea93          	ori	s5,s5,1
    2548:	d44ff06f          	j	1a8c <_vfprintf_r+0x1a0>
    254c:	0d714783          	lbu	a5,215(sp)
    2550:	00044483          	lbu	s1,0(s0)
    2554:	d2079c63          	bnez	a5,1a8c <_vfprintf_r+0x1a0>
    2558:	02000793          	li	a5,32
    255c:	0cf10ba3          	sb	a5,215(sp)
    2560:	d2cff06f          	j	1a8c <_vfprintf_r+0x1a0>
    2564:	00044483          	lbu	s1,0(s0)
    2568:	004aea93          	ori	s5,s5,4
    256c:	d20ff06f          	j	1a8c <_vfprintf_r+0x1a0>
    2570:	02b00793          	li	a5,43
    2574:	00044483          	lbu	s1,0(s0)
    2578:	0cf10ba3          	sb	a5,215(sp)
    257c:	d10ff06f          	j	1a8c <_vfprintf_r+0x1a0>
    2580:	00044483          	lbu	s1,0(s0)
    2584:	00140693          	addi	a3,s0,1
    2588:	01649463          	bne	s1,s6,2590 <_vfprintf_r+0xca4>
    258c:	5750106f          	j	4300 <_vfprintf_r+0x2a14>
    2590:	fd048613          	addi	a2,s1,-48
    2594:	00068413          	mv	s0,a3
    2598:	00000c93          	li	s9,0
    259c:	cec96c63          	bltu	s2,a2,1a94 <_vfprintf_r+0x1a8>
    25a0:	00044483          	lbu	s1,0(s0)
    25a4:	002c9793          	slli	a5,s9,0x2
    25a8:	019787b3          	add	a5,a5,s9
    25ac:	00179793          	slli	a5,a5,0x1
    25b0:	00c78cb3          	add	s9,a5,a2
    25b4:	fd048613          	addi	a2,s1,-48
    25b8:	00140413          	addi	s0,s0,1
    25bc:	fec972e3          	bgeu	s2,a2,25a0 <_vfprintf_r+0xcb4>
    25c0:	cd4ff06f          	j	1a94 <_vfprintf_r+0x1a8>
    25c4:	000a8b13          	mv	s6,s5
    25c8:	00100693          	li	a3,1
    25cc:	f2d786e3          	beq	a5,a3,24f8 <_vfprintf_r+0xc0c>
    25d0:	00200693          	li	a3,2
    25d4:	06d78c63          	beq	a5,a3,264c <_vfprintf_r+0xd60>
    25d8:	1c010b93          	addi	s7,sp,448
    25dc:	01d91713          	slli	a4,s2,0x1d
    25e0:	007df793          	andi	a5,s11,7
    25e4:	003ddd93          	srli	s11,s11,0x3
    25e8:	03078793          	addi	a5,a5,48
    25ec:	01b76db3          	or	s11,a4,s11
    25f0:	00395913          	srli	s2,s2,0x3
    25f4:	fefb8fa3          	sb	a5,-1(s7)
    25f8:	012de733          	or	a4,s11,s2
    25fc:	000b8613          	mv	a2,s7
    2600:	fffb8b93          	addi	s7,s7,-1
    2604:	fc071ce3          	bnez	a4,25dc <_vfprintf_r+0xcf0>
    2608:	001b7693          	andi	a3,s6,1
    260c:	06068a63          	beqz	a3,2680 <_vfprintf_r+0xd94>
    2610:	03000693          	li	a3,48
    2614:	06d78663          	beq	a5,a3,2680 <_vfprintf_r+0xd94>
    2618:	ffe60613          	addi	a2,a2,-2
    261c:	1c010793          	addi	a5,sp,448
    2620:	fedb8fa3          	sb	a3,-1(s7)
    2624:	40c78933          	sub	s2,a5,a2
    2628:	000b0a93          	mv	s5,s6
    262c:	00060b93          	mv	s7,a2
    2630:	db9ff06f          	j	23e8 <_vfprintf_r+0xafc>
    2634:	00100713          	li	a4,1
    2638:	00e79463          	bne	a5,a4,2640 <_vfprintf_r+0xd54>
    263c:	22d0106f          	j	4068 <_vfprintf_r+0x277c>
    2640:	00200713          	li	a4,2
    2644:	000a8b13          	mv	s6,s5
    2648:	f8e798e3          	bne	a5,a4,25d8 <_vfprintf_r+0xcec>
    264c:	03012683          	lw	a3,48(sp)
    2650:	1c010b93          	addi	s7,sp,448
    2654:	00fdf793          	andi	a5,s11,15
    2658:	00f687b3          	add	a5,a3,a5
    265c:	0007c703          	lbu	a4,0(a5)
    2660:	004ddd93          	srli	s11,s11,0x4
    2664:	01c91793          	slli	a5,s2,0x1c
    2668:	01b7edb3          	or	s11,a5,s11
    266c:	00495913          	srli	s2,s2,0x4
    2670:	feeb8fa3          	sb	a4,-1(s7)
    2674:	012de7b3          	or	a5,s11,s2
    2678:	fffb8b93          	addi	s7,s7,-1
    267c:	fc079ce3          	bnez	a5,2654 <_vfprintf_r+0xd68>
    2680:	1c010793          	addi	a5,sp,448
    2684:	41778933          	sub	s2,a5,s7
    2688:	000b0a93          	mv	s5,s6
    268c:	d5dff06f          	j	23e8 <_vfprintf_r+0xafc>
    2690:	06500713          	li	a4,101
    2694:	9e9754e3          	bge	a4,s1,207c <_vfprintf_r+0x790>
    2698:	10012703          	lw	a4,256(sp)
    269c:	0b010593          	addi	a1,sp,176
    26a0:	0c010513          	addi	a0,sp,192
    26a4:	0ce12023          	sw	a4,192(sp)
    26a8:	10412703          	lw	a4,260(sp)
    26ac:	05112023          	sw	a7,64(sp)
    26b0:	02f12e23          	sw	a5,60(sp)
    26b4:	0ce12223          	sw	a4,196(sp)
    26b8:	10812703          	lw	a4,264(sp)
    26bc:	0a012823          	sw	zero,176(sp)
    26c0:	0a012a23          	sw	zero,180(sp)
    26c4:	0ce12423          	sw	a4,200(sp)
    26c8:	10c12703          	lw	a4,268(sp)
    26cc:	0a012c23          	sw	zero,184(sp)
    26d0:	0a012e23          	sw	zero,188(sp)
    26d4:	0ce12623          	sw	a4,204(sp)
    26d8:	1490f0ef          	jal	ra,12020 <__eqtf2>
    26dc:	03c12783          	lw	a5,60(sp)
    26e0:	04012883          	lw	a7,64(sp)
    26e4:	3c051863          	bnez	a0,2ab4 <_vfprintf_r+0x11c8>
    26e8:	0f812703          	lw	a4,248(sp)
    26ec:	0001e697          	auipc	a3,0x1e
    26f0:	f5068693          	addi	a3,a3,-176 # 2063c <_impure_ptr+0x604>
    26f4:	00d8a023          	sw	a3,0(a7)
    26f8:	00178793          	addi	a5,a5,1
    26fc:	00100693          	li	a3,1
    2700:	00170713          	addi	a4,a4,1
    2704:	00d8a223          	sw	a3,4(a7)
    2708:	0ef12e23          	sw	a5,252(sp)
    270c:	0ee12c23          	sw	a4,248(sp)
    2710:	00700693          	li	a3,7
    2714:	00888893          	addi	a7,a7,8
    2718:	2ae6cce3          	blt	a3,a4,31d0 <_vfprintf_r+0x18e4>
    271c:	0dc12703          	lw	a4,220(sp)
    2720:	01c12683          	lw	a3,28(sp)
    2724:	64d75863          	bge	a4,a3,2d74 <_vfprintf_r+0x1488>
    2728:	02c12703          	lw	a4,44(sp)
    272c:	02812683          	lw	a3,40(sp)
    2730:	00888893          	addi	a7,a7,8
    2734:	fee8ac23          	sw	a4,-8(a7)
    2738:	0f812703          	lw	a4,248(sp)
    273c:	00d787b3          	add	a5,a5,a3
    2740:	fed8ae23          	sw	a3,-4(a7)
    2744:	00170713          	addi	a4,a4,1
    2748:	0ef12e23          	sw	a5,252(sp)
    274c:	0ee12c23          	sw	a4,248(sp)
    2750:	00700693          	li	a3,7
    2754:	7ee6c663          	blt	a3,a4,2f40 <_vfprintf_r+0x1654>
    2758:	01c12703          	lw	a4,28(sp)
    275c:	fff70493          	addi	s1,a4,-1
    2760:	c8905263          	blez	s1,1be4 <_vfprintf_r+0x2f8>
    2764:	0f812703          	lw	a4,248(sp)
    2768:	289a54e3          	bge	s4,s1,31f0 <_vfprintf_r+0x1904>
    276c:	00700913          	li	s2,7
    2770:	00c0006f          	j	277c <_vfprintf_r+0xe90>
    2774:	ff048493          	addi	s1,s1,-16
    2778:	269a5ce3          	bge	s4,s1,31f0 <_vfprintf_r+0x1904>
    277c:	01078793          	addi	a5,a5,16
    2780:	00170713          	addi	a4,a4,1
    2784:	0001e697          	auipc	a3,0x1e
    2788:	06c68693          	addi	a3,a3,108 # 207f0 <zeroes.0>
    278c:	00d8a023          	sw	a3,0(a7)
    2790:	0148a223          	sw	s4,4(a7)
    2794:	0ef12e23          	sw	a5,252(sp)
    2798:	0ee12c23          	sw	a4,248(sp)
    279c:	00888893          	addi	a7,a7,8
    27a0:	fce95ae3          	bge	s2,a4,2774 <_vfprintf_r+0xe88>
    27a4:	0f410613          	addi	a2,sp,244
    27a8:	000c0593          	mv	a1,s8
    27ac:	000d0513          	mv	a0,s10
    27b0:	50d0a0ef          	jal	ra,d4bc <__sprint_r>
    27b4:	18051e63          	bnez	a0,2950 <_vfprintf_r+0x1064>
    27b8:	0fc12783          	lw	a5,252(sp)
    27bc:	0f812703          	lw	a4,248(sp)
    27c0:	11c10893          	addi	a7,sp,284
    27c4:	fb1ff06f          	j	2774 <_vfprintf_r+0xe88>
    27c8:	41698db3          	sub	s11,s3,s6
    27cc:	bfb05063          	blez	s11,1bac <_vfprintf_r+0x2c0>
    27d0:	0f812703          	lw	a4,248(sp)
    27d4:	07ba5463          	bge	s4,s11,283c <_vfprintf_r+0xf50>
    27d8:	00700e13          	li	t3,7
    27dc:	00c0006f          	j	27e8 <_vfprintf_r+0xefc>
    27e0:	ff0d8d93          	addi	s11,s11,-16
    27e4:	05ba5c63          	bge	s4,s11,283c <_vfprintf_r+0xf50>
    27e8:	01078793          	addi	a5,a5,16
    27ec:	00170713          	addi	a4,a4,1
    27f0:	0001e697          	auipc	a3,0x1e
    27f4:	00068693          	mv	a3,a3
    27f8:	00d8a023          	sw	a3,0(a7)
    27fc:	0148a223          	sw	s4,4(a7)
    2800:	0ef12e23          	sw	a5,252(sp)
    2804:	0ee12c23          	sw	a4,248(sp)
    2808:	00888893          	addi	a7,a7,8
    280c:	fcee5ae3          	bge	t3,a4,27e0 <_vfprintf_r+0xef4>
    2810:	0f410613          	addi	a2,sp,244
    2814:	000c0593          	mv	a1,s8
    2818:	000d0513          	mv	a0,s10
    281c:	4a10a0ef          	jal	ra,d4bc <__sprint_r>
    2820:	12051863          	bnez	a0,2950 <_vfprintf_r+0x1064>
    2824:	ff0d8d93          	addi	s11,s11,-16
    2828:	0fc12783          	lw	a5,252(sp)
    282c:	0f812703          	lw	a4,248(sp)
    2830:	11c10893          	addi	a7,sp,284
    2834:	00700e13          	li	t3,7
    2838:	fbba48e3          	blt	s4,s11,27e8 <_vfprintf_r+0xefc>
    283c:	0001e697          	auipc	a3,0x1e
    2840:	fb468693          	addi	a3,a3,-76 # 207f0 <zeroes.0>
    2844:	01b787b3          	add	a5,a5,s11
    2848:	00170713          	addi	a4,a4,1
    284c:	00d8a023          	sw	a3,0(a7)
    2850:	01b8a223          	sw	s11,4(a7)
    2854:	0ef12e23          	sw	a5,252(sp)
    2858:	0ee12c23          	sw	a4,248(sp)
    285c:	00700693          	li	a3,7
    2860:	00888893          	addi	a7,a7,8
    2864:	b4e6d463          	bge	a3,a4,1bac <_vfprintf_r+0x2c0>
    2868:	0f410613          	addi	a2,sp,244
    286c:	000c0593          	mv	a1,s8
    2870:	000d0513          	mv	a0,s10
    2874:	4490a0ef          	jal	ra,d4bc <__sprint_r>
    2878:	0c051c63          	bnez	a0,2950 <_vfprintf_r+0x1064>
    287c:	0fc12783          	lw	a5,252(sp)
    2880:	11c10893          	addi	a7,sp,284
    2884:	b28ff06f          	j	1bac <_vfprintf_r+0x2c0>
    2888:	0f812703          	lw	a4,248(sp)
    288c:	079a5263          	bge	s4,s9,28f0 <_vfprintf_r+0x1004>
    2890:	00700d93          	li	s11,7
    2894:	00c0006f          	j	28a0 <_vfprintf_r+0xfb4>
    2898:	ff0c8c93          	addi	s9,s9,-16
    289c:	059a5a63          	bge	s4,s9,28f0 <_vfprintf_r+0x1004>
    28a0:	01078793          	addi	a5,a5,16
    28a4:	00170713          	addi	a4,a4,1
    28a8:	0001e697          	auipc	a3,0x1e
    28ac:	f4868693          	addi	a3,a3,-184 # 207f0 <zeroes.0>
    28b0:	00d8a023          	sw	a3,0(a7)
    28b4:	0148a223          	sw	s4,4(a7)
    28b8:	0ef12e23          	sw	a5,252(sp)
    28bc:	0ee12c23          	sw	a4,248(sp)
    28c0:	00888893          	addi	a7,a7,8
    28c4:	fceddae3          	bge	s11,a4,2898 <_vfprintf_r+0xfac>
    28c8:	0f410613          	addi	a2,sp,244
    28cc:	000c0593          	mv	a1,s8
    28d0:	000d0513          	mv	a0,s10
    28d4:	3e90a0ef          	jal	ra,d4bc <__sprint_r>
    28d8:	06051c63          	bnez	a0,2950 <_vfprintf_r+0x1064>
    28dc:	ff0c8c93          	addi	s9,s9,-16
    28e0:	0fc12783          	lw	a5,252(sp)
    28e4:	0f812703          	lw	a4,248(sp)
    28e8:	11c10893          	addi	a7,sp,284
    28ec:	fb9a4ae3          	blt	s4,s9,28a0 <_vfprintf_r+0xfb4>
    28f0:	0001e697          	auipc	a3,0x1e
    28f4:	f0068693          	addi	a3,a3,-256 # 207f0 <zeroes.0>
    28f8:	019787b3          	add	a5,a5,s9
    28fc:	00170713          	addi	a4,a4,1
    2900:	00d8a023          	sw	a3,0(a7)
    2904:	0198a223          	sw	s9,4(a7)
    2908:	0ef12e23          	sw	a5,252(sp)
    290c:	0ee12c23          	sw	a4,248(sp)
    2910:	00700693          	li	a3,7
    2914:	00888893          	addi	a7,a7,8
    2918:	a8e6de63          	bge	a3,a4,1bb4 <_vfprintf_r+0x2c8>
    291c:	0f410613          	addi	a2,sp,244
    2920:	000c0593          	mv	a1,s8
    2924:	000d0513          	mv	a0,s10
    2928:	3950a0ef          	jal	ra,d4bc <__sprint_r>
    292c:	02051263          	bnez	a0,2950 <_vfprintf_r+0x1064>
    2930:	0fc12783          	lw	a5,252(sp)
    2934:	11c10893          	addi	a7,sp,284
    2938:	a7cff06f          	j	1bb4 <_vfprintf_r+0x2c8>
    293c:	0f410613          	addi	a2,sp,244
    2940:	000c0593          	mv	a1,s8
    2944:	000d0513          	mv	a0,s10
    2948:	3750a0ef          	jal	ra,d4bc <__sprint_r>
    294c:	ac050063          	beqz	a0,1c0c <_vfprintf_r+0x320>
    2950:	01012583          	lw	a1,16(sp)
    2954:	ae058663          	beqz	a1,1c40 <_vfprintf_r+0x354>
    2958:	000d0513          	mv	a0,s10
    295c:	600020ef          	jal	ra,4f5c <_free_r>
    2960:	ae0ff06f          	j	1c40 <_vfprintf_r+0x354>
    2964:	0f812703          	lw	a4,248(sp)
    2968:	0001ed97          	auipc	s11,0x1e
    296c:	e78d8d93          	addi	s11,s11,-392 # 207e0 <blanks.1>
    2970:	0cda5463          	bge	s4,a3,2a38 <_vfprintf_r+0x114c>
    2974:	04812623          	sw	s0,76(sp)
    2978:	000d0413          	mv	s0,s10
    297c:	00068d13          	mv	s10,a3
    2980:	000d8693          	mv	a3,s11
    2984:	00700f93          	li	t6,7
    2988:	000b0d93          	mv	s11,s6
    298c:	03e12e23          	sw	t5,60(sp)
    2990:	00098b13          	mv	s6,s3
    2994:	05d12023          	sw	t4,64(sp)
    2998:	00048993          	mv	s3,s1
    299c:	000c0493          	mv	s1,s8
    29a0:	000b8c13          	mv	s8,s7
    29a4:	00090b93          	mv	s7,s2
    29a8:	00068913          	mv	s2,a3
    29ac:	00c0006f          	j	29b8 <_vfprintf_r+0x10cc>
    29b0:	ff0d0d13          	addi	s10,s10,-16
    29b4:	05aa5863          	bge	s4,s10,2a04 <_vfprintf_r+0x1118>
    29b8:	01078793          	addi	a5,a5,16
    29bc:	00170713          	addi	a4,a4,1
    29c0:	0128a023          	sw	s2,0(a7)
    29c4:	0148a223          	sw	s4,4(a7)
    29c8:	0ef12e23          	sw	a5,252(sp)
    29cc:	0ee12c23          	sw	a4,248(sp)
    29d0:	00888893          	addi	a7,a7,8
    29d4:	fcefdee3          	bge	t6,a4,29b0 <_vfprintf_r+0x10c4>
    29d8:	0f410613          	addi	a2,sp,244
    29dc:	00048593          	mv	a1,s1
    29e0:	00040513          	mv	a0,s0
    29e4:	2d90a0ef          	jal	ra,d4bc <__sprint_r>
    29e8:	7c051063          	bnez	a0,31a8 <_vfprintf_r+0x18bc>
    29ec:	ff0d0d13          	addi	s10,s10,-16
    29f0:	0fc12783          	lw	a5,252(sp)
    29f4:	0f812703          	lw	a4,248(sp)
    29f8:	11c10893          	addi	a7,sp,284
    29fc:	00700f93          	li	t6,7
    2a00:	fbaa4ce3          	blt	s4,s10,29b8 <_vfprintf_r+0x10cc>
    2a04:	000d0693          	mv	a3,s10
    2a08:	03c12f03          	lw	t5,60(sp)
    2a0c:	00040d13          	mv	s10,s0
    2a10:	04012e83          	lw	t4,64(sp)
    2a14:	04c12403          	lw	s0,76(sp)
    2a18:	00090613          	mv	a2,s2
    2a1c:	000b8913          	mv	s2,s7
    2a20:	000c0b93          	mv	s7,s8
    2a24:	00048c13          	mv	s8,s1
    2a28:	00098493          	mv	s1,s3
    2a2c:	000b0993          	mv	s3,s6
    2a30:	000d8b13          	mv	s6,s11
    2a34:	00060d93          	mv	s11,a2
    2a38:	00d787b3          	add	a5,a5,a3
    2a3c:	00170713          	addi	a4,a4,1
    2a40:	00d8a223          	sw	a3,4(a7)
    2a44:	01b8a023          	sw	s11,0(a7)
    2a48:	0ef12e23          	sw	a5,252(sp)
    2a4c:	0ee12c23          	sw	a4,248(sp)
    2a50:	00700693          	li	a3,7
    2a54:	00888893          	addi	a7,a7,8
    2a58:	8ee6d063          	bge	a3,a4,1b38 <_vfprintf_r+0x24c>
    2a5c:	0f410613          	addi	a2,sp,244
    2a60:	000c0593          	mv	a1,s8
    2a64:	000d0513          	mv	a0,s10
    2a68:	05d12023          	sw	t4,64(sp)
    2a6c:	03e12e23          	sw	t5,60(sp)
    2a70:	24d0a0ef          	jal	ra,d4bc <__sprint_r>
    2a74:	ec051ee3          	bnez	a0,2950 <_vfprintf_r+0x1064>
    2a78:	0fc12783          	lw	a5,252(sp)
    2a7c:	04012e83          	lw	t4,64(sp)
    2a80:	03c12f03          	lw	t5,60(sp)
    2a84:	11c10893          	addi	a7,sp,284
    2a88:	8b0ff06f          	j	1b38 <_vfprintf_r+0x24c>
    2a8c:	0f410613          	addi	a2,sp,244
    2a90:	000c0593          	mv	a1,s8
    2a94:	000d0513          	mv	a0,s10
    2a98:	03d12e23          	sw	t4,60(sp)
    2a9c:	2210a0ef          	jal	ra,d4bc <__sprint_r>
    2aa0:	ea0518e3          	bnez	a0,2950 <_vfprintf_r+0x1064>
    2aa4:	0fc12783          	lw	a5,252(sp)
    2aa8:	03c12e83          	lw	t4,60(sp)
    2aac:	11c10893          	addi	a7,sp,284
    2ab0:	8f4ff06f          	j	1ba4 <_vfprintf_r+0x2b8>
    2ab4:	0dc12683          	lw	a3,220(sp)
    2ab8:	66d05863          	blez	a3,3128 <_vfprintf_r+0x183c>
    2abc:	01812703          	lw	a4,24(sp)
    2ac0:	01c12683          	lw	a3,28(sp)
    2ac4:	00070493          	mv	s1,a4
    2ac8:	36e6ce63          	blt	a3,a4,2e44 <_vfprintf_r+0x1558>
    2acc:	02905663          	blez	s1,2af8 <_vfprintf_r+0x120c>
    2ad0:	0f812703          	lw	a4,248(sp)
    2ad4:	009787b3          	add	a5,a5,s1
    2ad8:	0178a023          	sw	s7,0(a7)
    2adc:	00170713          	addi	a4,a4,1
    2ae0:	0098a223          	sw	s1,4(a7)
    2ae4:	0ef12e23          	sw	a5,252(sp)
    2ae8:	0ee12c23          	sw	a4,248(sp)
    2aec:	00700693          	li	a3,7
    2af0:	00888893          	addi	a7,a7,8
    2af4:	38e6c6e3          	blt	a3,a4,3680 <_vfprintf_r+0x1d94>
    2af8:	fff4c713          	not	a4,s1
    2afc:	41f75713          	srai	a4,a4,0x1f
    2b00:	00e4f4b3          	and	s1,s1,a4
    2b04:	01812703          	lw	a4,24(sp)
    2b08:	409704b3          	sub	s1,a4,s1
    2b0c:	48904263          	bgtz	s1,2f90 <_vfprintf_r+0x16a4>
    2b10:	01812683          	lw	a3,24(sp)
    2b14:	400af713          	andi	a4,s5,1024
    2b18:	00db84b3          	add	s1,s7,a3
    2b1c:	120714e3          	bnez	a4,3444 <_vfprintf_r+0x1b58>
    2b20:	0dc12683          	lw	a3,220(sp)
    2b24:	01c12703          	lw	a4,28(sp)
    2b28:	00e6c663          	blt	a3,a4,2b34 <_vfprintf_r+0x1248>
    2b2c:	001af713          	andi	a4,s5,1
    2b30:	36070ce3          	beqz	a4,36a8 <_vfprintf_r+0x1dbc>
    2b34:	02c12703          	lw	a4,44(sp)
    2b38:	02812603          	lw	a2,40(sp)
    2b3c:	00888893          	addi	a7,a7,8
    2b40:	fee8ac23          	sw	a4,-8(a7)
    2b44:	0f812703          	lw	a4,248(sp)
    2b48:	00c787b3          	add	a5,a5,a2
    2b4c:	fec8ae23          	sw	a2,-4(a7)
    2b50:	00170713          	addi	a4,a4,1
    2b54:	0ef12e23          	sw	a5,252(sp)
    2b58:	0ee12c23          	sw	a4,248(sp)
    2b5c:	00700613          	li	a2,7
    2b60:	00e65463          	bge	a2,a4,2b68 <_vfprintf_r+0x127c>
    2b64:	2780106f          	j	3ddc <_vfprintf_r+0x24f0>
    2b68:	01c12603          	lw	a2,28(sp)
    2b6c:	00cb8733          	add	a4,s7,a2
    2b70:	40970733          	sub	a4,a4,s1
    2b74:	40d60633          	sub	a2,a2,a3
    2b78:	00060913          	mv	s2,a2
    2b7c:	00c75463          	bge	a4,a2,2b84 <_vfprintf_r+0x1298>
    2b80:	00070913          	mv	s2,a4
    2b84:	03205863          	blez	s2,2bb4 <_vfprintf_r+0x12c8>
    2b88:	0f812703          	lw	a4,248(sp)
    2b8c:	012787b3          	add	a5,a5,s2
    2b90:	0098a023          	sw	s1,0(a7)
    2b94:	00170713          	addi	a4,a4,1
    2b98:	0128a223          	sw	s2,4(a7)
    2b9c:	0ef12e23          	sw	a5,252(sp)
    2ba0:	0ee12c23          	sw	a4,248(sp)
    2ba4:	00700693          	li	a3,7
    2ba8:	00888893          	addi	a7,a7,8
    2bac:	00e6d463          	bge	a3,a4,2bb4 <_vfprintf_r+0x12c8>
    2bb0:	28c0106f          	j	3e3c <_vfprintf_r+0x2550>
    2bb4:	fff94713          	not	a4,s2
    2bb8:	41f75713          	srai	a4,a4,0x1f
    2bbc:	00e97733          	and	a4,s2,a4
    2bc0:	40e604b3          	sub	s1,a2,a4
    2bc4:	00904463          	bgtz	s1,2bcc <_vfprintf_r+0x12e0>
    2bc8:	81cff06f          	j	1be4 <_vfprintf_r+0x2f8>
    2bcc:	0f812703          	lw	a4,248(sp)
    2bd0:	629a5063          	bge	s4,s1,31f0 <_vfprintf_r+0x1904>
    2bd4:	00700913          	li	s2,7
    2bd8:	00c0006f          	j	2be4 <_vfprintf_r+0x12f8>
    2bdc:	ff048493          	addi	s1,s1,-16
    2be0:	609a5863          	bge	s4,s1,31f0 <_vfprintf_r+0x1904>
    2be4:	01078793          	addi	a5,a5,16
    2be8:	00170713          	addi	a4,a4,1
    2bec:	0001e697          	auipc	a3,0x1e
    2bf0:	c0468693          	addi	a3,a3,-1020 # 207f0 <zeroes.0>
    2bf4:	00d8a023          	sw	a3,0(a7)
    2bf8:	0148a223          	sw	s4,4(a7)
    2bfc:	0ef12e23          	sw	a5,252(sp)
    2c00:	0ee12c23          	sw	a4,248(sp)
    2c04:	00888893          	addi	a7,a7,8
    2c08:	fce95ae3          	bge	s2,a4,2bdc <_vfprintf_r+0x12f0>
    2c0c:	0f410613          	addi	a2,sp,244
    2c10:	000c0593          	mv	a1,s8
    2c14:	000d0513          	mv	a0,s10
    2c18:	0a50a0ef          	jal	ra,d4bc <__sprint_r>
    2c1c:	d2051ae3          	bnez	a0,2950 <_vfprintf_r+0x1064>
    2c20:	0fc12783          	lw	a5,252(sp)
    2c24:	0f812703          	lw	a4,248(sp)
    2c28:	11c10893          	addi	a7,sp,284
    2c2c:	fb1ff06f          	j	2bdc <_vfprintf_r+0x12f0>
    2c30:	001af793          	andi	a5,s5,1
    2c34:	c6079463          	bnez	a5,209c <_vfprintf_r+0x7b0>
    2c38:	00d8a223          	sw	a3,4(a7)
    2c3c:	0f912e23          	sw	s9,252(sp)
    2c40:	0e912c23          	sw	s1,248(sp)
    2c44:	00700793          	li	a5,7
    2c48:	2297ca63          	blt	a5,s1,2e7c <_vfprintf_r+0x1590>
    2c4c:	00270713          	addi	a4,a4,2
    2c50:	01088893          	addi	a7,a7,16
    2c54:	d18ff06f          	j	216c <_vfprintf_r+0x880>
    2c58:	d1b05a63          	blez	s11,216c <_vfprintf_r+0x880>
    2c5c:	01ba4463          	blt	s4,s11,2c64 <_vfprintf_r+0x1378>
    2c60:	6980106f          	j	42f8 <_vfprintf_r+0x2a0c>
    2c64:	00700b93          	li	s7,7
    2c68:	00068493          	mv	s1,a3
    2c6c:	0100006f          	j	2c7c <_vfprintf_r+0x1390>
    2c70:	ff0d8d93          	addi	s11,s11,-16
    2c74:	1dba5e63          	bge	s4,s11,2e50 <_vfprintf_r+0x1564>
    2c78:	00148493          	addi	s1,s1,1
    2c7c:	010c8c93          	addi	s9,s9,16
    2c80:	0001e797          	auipc	a5,0x1e
    2c84:	b7078793          	addi	a5,a5,-1168 # 207f0 <zeroes.0>
    2c88:	00f92023          	sw	a5,0(s2)
    2c8c:	01492223          	sw	s4,4(s2)
    2c90:	0f912e23          	sw	s9,252(sp)
    2c94:	0e912c23          	sw	s1,248(sp)
    2c98:	00890913          	addi	s2,s2,8
    2c9c:	fc9bdae3          	bge	s7,s1,2c70 <_vfprintf_r+0x1384>
    2ca0:	0f410613          	addi	a2,sp,244
    2ca4:	000c0593          	mv	a1,s8
    2ca8:	000d0513          	mv	a0,s10
    2cac:	0110a0ef          	jal	ra,d4bc <__sprint_r>
    2cb0:	ca0510e3          	bnez	a0,2950 <_vfprintf_r+0x1064>
    2cb4:	0fc12c83          	lw	s9,252(sp)
    2cb8:	0f812483          	lw	s1,248(sp)
    2cbc:	11c10913          	addi	s2,sp,284
    2cc0:	fb1ff06f          	j	2c70 <_vfprintf_r+0x1384>
    2cc4:	01412683          	lw	a3,20(sp)
    2cc8:	010af793          	andi	a5,s5,16
    2ccc:	00468713          	addi	a4,a3,4
    2cd0:	16079263          	bnez	a5,2e34 <_vfprintf_r+0x1548>
    2cd4:	040af793          	andi	a5,s5,64
    2cd8:	68078063          	beqz	a5,3358 <_vfprintf_r+0x1a6c>
    2cdc:	01412783          	lw	a5,20(sp)
    2ce0:	00000913          	li	s2,0
    2ce4:	00e12a23          	sw	a4,20(sp)
    2ce8:	0007dd83          	lhu	s11,0(a5)
    2cec:	f50ff06f          	j	243c <_vfprintf_r+0xb50>
    2cf0:	01412683          	lw	a3,20(sp)
    2cf4:	010af793          	andi	a5,s5,16
    2cf8:	00468713          	addi	a4,a3,4
    2cfc:	12079263          	bnez	a5,2e20 <_vfprintf_r+0x1534>
    2d00:	040af793          	andi	a5,s5,64
    2d04:	6a078663          	beqz	a5,33b0 <_vfprintf_r+0x1ac4>
    2d08:	01412783          	lw	a5,20(sp)
    2d0c:	00e12a23          	sw	a4,20(sp)
    2d10:	00079d83          	lh	s11,0(a5)
    2d14:	41fdd913          	srai	s2,s11,0x1f
    2d18:	00090793          	mv	a5,s2
    2d1c:	fa07d663          	bgez	a5,24c8 <_vfprintf_r+0xbdc>
    2d20:	01b037b3          	snez	a5,s11
    2d24:	41200933          	neg	s2,s2
    2d28:	40f90933          	sub	s2,s2,a5
    2d2c:	02d00793          	li	a5,45
    2d30:	0cf10ba3          	sb	a5,215(sp)
    2d34:	41b00db3          	neg	s11,s11
    2d38:	000a8b13          	mv	s6,s5
    2d3c:	00100793          	li	a5,1
    2d40:	e80ff06f          	j	23c0 <_vfprintf_r+0xad4>
    2d44:	01412703          	lw	a4,20(sp)
    2d48:	010b7793          	andi	a5,s6,16
    2d4c:	00470693          	addi	a3,a4,4
    2d50:	0a079e63          	bnez	a5,2e0c <_vfprintf_r+0x1520>
    2d54:	040b7793          	andi	a5,s6,64
    2d58:	62078c63          	beqz	a5,3390 <_vfprintf_r+0x1aa4>
    2d5c:	01412783          	lw	a5,20(sp)
    2d60:	00000913          	li	s2,0
    2d64:	00d12a23          	sw	a3,20(sp)
    2d68:	0007dd83          	lhu	s11,0(a5)
    2d6c:	00100793          	li	a5,1
    2d70:	e4cff06f          	j	23bc <_vfprintf_r+0xad0>
    2d74:	001af713          	andi	a4,s5,1
    2d78:	00071463          	bnez	a4,2d80 <_vfprintf_r+0x1494>
    2d7c:	e69fe06f          	j	1be4 <_vfprintf_r+0x2f8>
    2d80:	9a9ff06f          	j	2728 <_vfprintf_r+0xe3c>
    2d84:	000d8893          	mv	a7,s11
    2d88:	f14ff06f          	j	249c <_vfprintf_r+0xbb0>
    2d8c:	03000793          	li	a5,48
    2d90:	1af10fa3          	sb	a5,447(sp)
    2d94:	1bf10b93          	addi	s7,sp,447
    2d98:	e50ff06f          	j	23e8 <_vfprintf_r+0xafc>
    2d9c:	03812783          	lw	a5,56(sp)
    2da0:	00044483          	lbu	s1,0(s0)
    2da4:	00079463          	bnez	a5,2dac <_vfprintf_r+0x14c0>
    2da8:	ce5fe06f          	j	1a8c <_vfprintf_r+0x1a0>
    2dac:	0007c783          	lbu	a5,0(a5)
    2db0:	00079463          	bnez	a5,2db8 <_vfprintf_r+0x14cc>
    2db4:	cd9fe06f          	j	1a8c <_vfprintf_r+0x1a0>
    2db8:	400aea93          	ori	s5,s5,1024
    2dbc:	cd1fe06f          	j	1a8c <_vfprintf_r+0x1a0>
    2dc0:	00c12683          	lw	a3,12(sp)
    2dc4:	00040b93          	mv	s7,s0
    2dc8:	41f6d793          	srai	a5,a3,0x1f
    2dcc:	00d72023          	sw	a3,0(a4)
    2dd0:	00f72223          	sw	a5,4(a4)
    2dd4:	e59fe06f          	j	1c2c <_vfprintf_r+0x340>
    2dd8:	01412703          	lw	a4,20(sp)
    2ddc:	00072783          	lw	a5,0(a4)
    2de0:	00470713          	addi	a4,a4,4
    2de4:	00e12a23          	sw	a4,20(sp)
    2de8:	0007a603          	lw	a2,0(a5)
    2dec:	0047a683          	lw	a3,4(a5)
    2df0:	0087a703          	lw	a4,8(a5)
    2df4:	00c7a783          	lw	a5,12(a5)
    2df8:	10c12023          	sw	a2,256(sp)
    2dfc:	10d12223          	sw	a3,260(sp)
    2e00:	10e12423          	sw	a4,264(sp)
    2e04:	10f12623          	sw	a5,268(sp)
    2e08:	fa9fe06f          	j	1db0 <_vfprintf_r+0x4c4>
    2e0c:	00072d83          	lw	s11,0(a4)
    2e10:	00000913          	li	s2,0
    2e14:	00d12a23          	sw	a3,20(sp)
    2e18:	00100793          	li	a5,1
    2e1c:	da0ff06f          	j	23bc <_vfprintf_r+0xad0>
    2e20:	0006ad83          	lw	s11,0(a3)
    2e24:	00e12a23          	sw	a4,20(sp)
    2e28:	41fdd913          	srai	s2,s11,0x1f
    2e2c:	00090793          	mv	a5,s2
    2e30:	e94ff06f          	j	24c4 <_vfprintf_r+0xbd8>
    2e34:	0006ad83          	lw	s11,0(a3)
    2e38:	00000913          	li	s2,0
    2e3c:	00e12a23          	sw	a4,20(sp)
    2e40:	dfcff06f          	j	243c <_vfprintf_r+0xb50>
    2e44:	00068493          	mv	s1,a3
    2e48:	c89044e3          	bgtz	s1,2ad0 <_vfprintf_r+0x11e4>
    2e4c:	cadff06f          	j	2af8 <_vfprintf_r+0x120c>
    2e50:	00148713          	addi	a4,s1,1
    2e54:	00890693          	addi	a3,s2,8
    2e58:	0001e797          	auipc	a5,0x1e
    2e5c:	99878793          	addi	a5,a5,-1640 # 207f0 <zeroes.0>
    2e60:	01bc8cb3          	add	s9,s9,s11
    2e64:	00f92023          	sw	a5,0(s2)
    2e68:	01b92223          	sw	s11,4(s2)
    2e6c:	0f912e23          	sw	s9,252(sp)
    2e70:	0ee12c23          	sw	a4,248(sp)
    2e74:	00700793          	li	a5,7
    2e78:	7ce7d463          	bge	a5,a4,3640 <_vfprintf_r+0x1d54>
    2e7c:	0f410613          	addi	a2,sp,244
    2e80:	000c0593          	mv	a1,s8
    2e84:	000d0513          	mv	a0,s10
    2e88:	6340a0ef          	jal	ra,d4bc <__sprint_r>
    2e8c:	ac0512e3          	bnez	a0,2950 <_vfprintf_r+0x1064>
    2e90:	0f812703          	lw	a4,248(sp)
    2e94:	0fc12c83          	lw	s9,252(sp)
    2e98:	12410893          	addi	a7,sp,292
    2e9c:	00170713          	addi	a4,a4,1
    2ea0:	11c10913          	addi	s2,sp,284
    2ea4:	ac8ff06f          	j	216c <_vfprintf_r+0x880>
    2ea8:	000d8893          	mv	a7,s11
    2eac:	000a8b13          	mv	s6,s5
    2eb0:	da0ff06f          	j	2450 <_vfprintf_r+0xb64>
    2eb4:	0001d797          	auipc	a5,0x1d
    2eb8:	75878793          	addi	a5,a5,1880 # 2060c <_impure_ptr+0x5d4>
    2ebc:	000d8893          	mv	a7,s11
    2ec0:	02f12823          	sw	a5,48(sp)
    2ec4:	020af793          	andi	a5,s5,32
    2ec8:	12078663          	beqz	a5,2ff4 <_vfprintf_r+0x1708>
    2ecc:	01412783          	lw	a5,20(sp)
    2ed0:	00778b93          	addi	s7,a5,7
    2ed4:	ff8bfb93          	andi	s7,s7,-8
    2ed8:	000bad83          	lw	s11,0(s7)
    2edc:	004ba903          	lw	s2,4(s7)
    2ee0:	008b8793          	addi	a5,s7,8
    2ee4:	00f12a23          	sw	a5,20(sp)
    2ee8:	001af793          	andi	a5,s5,1
    2eec:	00078e63          	beqz	a5,2f08 <_vfprintf_r+0x161c>
    2ef0:	012de7b3          	or	a5,s11,s2
    2ef4:	00078a63          	beqz	a5,2f08 <_vfprintf_r+0x161c>
    2ef8:	03000793          	li	a5,48
    2efc:	0cf10c23          	sb	a5,216(sp)
    2f00:	0c910ca3          	sb	s1,217(sp)
    2f04:	002aea93          	ori	s5,s5,2
    2f08:	bffafb13          	andi	s6,s5,-1025
    2f0c:	00200793          	li	a5,2
    2f10:	cacff06f          	j	23bc <_vfprintf_r+0xad0>
    2f14:	00144483          	lbu	s1,1(s0)
    2f18:	200aea93          	ori	s5,s5,512
    2f1c:	00140413          	addi	s0,s0,1
    2f20:	b6dfe06f          	j	1a8c <_vfprintf_r+0x1a0>
    2f24:	0001d797          	auipc	a5,0x1d
    2f28:	6fc78793          	addi	a5,a5,1788 # 20620 <_impure_ptr+0x5e8>
    2f2c:	000d8893          	mv	a7,s11
    2f30:	02f12823          	sw	a5,48(sp)
    2f34:	f91ff06f          	j	2ec4 <_vfprintf_r+0x15d8>
    2f38:	000d8893          	mv	a7,s11
    2f3c:	cdcff06f          	j	2418 <_vfprintf_r+0xb2c>
    2f40:	0f410613          	addi	a2,sp,244
    2f44:	000c0593          	mv	a1,s8
    2f48:	000d0513          	mv	a0,s10
    2f4c:	5700a0ef          	jal	ra,d4bc <__sprint_r>
    2f50:	a00510e3          	bnez	a0,2950 <_vfprintf_r+0x1064>
    2f54:	0fc12783          	lw	a5,252(sp)
    2f58:	11c10893          	addi	a7,sp,284
    2f5c:	ffcff06f          	j	2758 <_vfprintf_r+0xe6c>
    2f60:	00144483          	lbu	s1,1(s0)
    2f64:	020aea93          	ori	s5,s5,32
    2f68:	00140413          	addi	s0,s0,1
    2f6c:	b21fe06f          	j	1a8c <_vfprintf_r+0x1a0>
    2f70:	00600793          	li	a5,6
    2f74:	000c8913          	mv	s2,s9
    2f78:	7397e463          	bltu	a5,s9,36a0 <_vfprintf_r+0x1db4>
    2f7c:	00090b13          	mv	s6,s2
    2f80:	01b12a23          	sw	s11,20(sp)
    2f84:	0001db97          	auipc	s7,0x1d
    2f88:	6b0b8b93          	addi	s7,s7,1712 # 20634 <_impure_ptr+0x5fc>
    2f8c:	b79fe06f          	j	1b04 <_vfprintf_r+0x218>
    2f90:	0f812703          	lw	a4,248(sp)
    2f94:	469a5263          	bge	s4,s1,33f8 <_vfprintf_r+0x1b0c>
    2f98:	00700c93          	li	s9,7
    2f9c:	00c0006f          	j	2fa8 <_vfprintf_r+0x16bc>
    2fa0:	ff048493          	addi	s1,s1,-16
    2fa4:	449a5a63          	bge	s4,s1,33f8 <_vfprintf_r+0x1b0c>
    2fa8:	01078793          	addi	a5,a5,16
    2fac:	00170713          	addi	a4,a4,1
    2fb0:	0001e697          	auipc	a3,0x1e
    2fb4:	84068693          	addi	a3,a3,-1984 # 207f0 <zeroes.0>
    2fb8:	00d8a023          	sw	a3,0(a7)
    2fbc:	0148a223          	sw	s4,4(a7)
    2fc0:	0ef12e23          	sw	a5,252(sp)
    2fc4:	0ee12c23          	sw	a4,248(sp)
    2fc8:	00888893          	addi	a7,a7,8
    2fcc:	fcecdae3          	bge	s9,a4,2fa0 <_vfprintf_r+0x16b4>
    2fd0:	0f410613          	addi	a2,sp,244
    2fd4:	000c0593          	mv	a1,s8
    2fd8:	000d0513          	mv	a0,s10
    2fdc:	4e00a0ef          	jal	ra,d4bc <__sprint_r>
    2fe0:	960518e3          	bnez	a0,2950 <_vfprintf_r+0x1064>
    2fe4:	0fc12783          	lw	a5,252(sp)
    2fe8:	0f812703          	lw	a4,248(sp)
    2fec:	11c10893          	addi	a7,sp,284
    2ff0:	fb1ff06f          	j	2fa0 <_vfprintf_r+0x16b4>
    2ff4:	01412683          	lw	a3,20(sp)
    2ff8:	010af793          	andi	a5,s5,16
    2ffc:	00468713          	addi	a4,a3,4
    3000:	1a078a63          	beqz	a5,31b4 <_vfprintf_r+0x18c8>
    3004:	0006ad83          	lw	s11,0(a3)
    3008:	00000913          	li	s2,0
    300c:	00e12a23          	sw	a4,20(sp)
    3010:	ed9ff06f          	j	2ee8 <_vfprintf_r+0x15fc>
    3014:	0f410613          	addi	a2,sp,244
    3018:	000c0593          	mv	a1,s8
    301c:	000d0513          	mv	a0,s10
    3020:	49c0a0ef          	jal	ra,d4bc <__sprint_r>
    3024:	920516e3          	bnez	a0,2950 <_vfprintf_r+0x1064>
    3028:	0fc12c83          	lw	s9,252(sp)
    302c:	0f812483          	lw	s1,248(sp)
    3030:	11c10913          	addi	s2,sp,284
    3034:	880ff06f          	j	20b4 <_vfprintf_r+0x7c8>
    3038:	0f410613          	addi	a2,sp,244
    303c:	000c0593          	mv	a1,s8
    3040:	000d0513          	mv	a0,s10
    3044:	4780a0ef          	jal	ra,d4bc <__sprint_r>
    3048:	900514e3          	bnez	a0,2950 <_vfprintf_r+0x1064>
    304c:	0fc12c83          	lw	s9,252(sp)
    3050:	0f812483          	lw	s1,248(sp)
    3054:	11c10913          	addi	s2,sp,284
    3058:	888ff06f          	j	20e0 <_vfprintf_r+0x7f4>
    305c:	1c010b93          	addi	s7,sp,448
    3060:	00000793          	li	a5,0
    3064:	00812823          	sw	s0,16(sp)
    3068:	00912c23          	sw	s1,24(sp)
    306c:	000b8413          	mv	s0,s7
    3070:	03312023          	sw	s3,32(sp)
    3074:	000c0b93          	mv	s7,s8
    3078:	000d8493          	mv	s1,s11
    307c:	00090993          	mv	s3,s2
    3080:	03812d83          	lw	s11,56(sp)
    3084:	400b7a93          	andi	s5,s6,1024
    3088:	00088c13          	mv	s8,a7
    308c:	00078913          	mv	s2,a5
    3090:	0240006f          	j	30b4 <_vfprintf_r+0x17c8>
    3094:	00a00613          	li	a2,10
    3098:	00000693          	li	a3,0
    309c:	00048513          	mv	a0,s1
    30a0:	00098593          	mv	a1,s3
    30a4:	0b50d0ef          	jal	ra,10958 <__udivdi3>
    30a8:	58098663          	beqz	s3,3634 <_vfprintf_r+0x1d48>
    30ac:	00050493          	mv	s1,a0
    30b0:	00058993          	mv	s3,a1
    30b4:	00a00613          	li	a2,10
    30b8:	00000693          	li	a3,0
    30bc:	00048513          	mv	a0,s1
    30c0:	00098593          	mv	a1,s3
    30c4:	5350d0ef          	jal	ra,10df8 <__umoddi3>
    30c8:	03050513          	addi	a0,a0,48
    30cc:	fea40fa3          	sb	a0,-1(s0)
    30d0:	00190913          	addi	s2,s2,1
    30d4:	fff40413          	addi	s0,s0,-1
    30d8:	fa0a8ee3          	beqz	s5,3094 <_vfprintf_r+0x17a8>
    30dc:	000dc683          	lbu	a3,0(s11)
    30e0:	fad91ae3          	bne	s2,a3,3094 <_vfprintf_r+0x17a8>
    30e4:	0ff00793          	li	a5,255
    30e8:	faf906e3          	beq	s2,a5,3094 <_vfprintf_r+0x17a8>
    30ec:	50099463          	bnez	s3,35f4 <_vfprintf_r+0x1d08>
    30f0:	00900793          	li	a5,9
    30f4:	5097e063          	bltu	a5,s1,35f4 <_vfprintf_r+0x1d08>
    30f8:	000c0893          	mv	a7,s8
    30fc:	1c010793          	addi	a5,sp,448
    3100:	000b8c13          	mv	s8,s7
    3104:	00040b93          	mv	s7,s0
    3108:	01212e23          	sw	s2,28(sp)
    310c:	01812483          	lw	s1,24(sp)
    3110:	02012983          	lw	s3,32(sp)
    3114:	01012403          	lw	s0,16(sp)
    3118:	03b12c23          	sw	s11,56(sp)
    311c:	41778933          	sub	s2,a5,s7
    3120:	000b0a93          	mv	s5,s6
    3124:	ac4ff06f          	j	23e8 <_vfprintf_r+0xafc>
    3128:	0f812703          	lw	a4,248(sp)
    312c:	0001d617          	auipc	a2,0x1d
    3130:	51060613          	addi	a2,a2,1296 # 2063c <_impure_ptr+0x604>
    3134:	00c8a023          	sw	a2,0(a7)
    3138:	00178793          	addi	a5,a5,1
    313c:	00100613          	li	a2,1
    3140:	00170713          	addi	a4,a4,1
    3144:	00c8a223          	sw	a2,4(a7)
    3148:	0ef12e23          	sw	a5,252(sp)
    314c:	0ee12c23          	sw	a4,248(sp)
    3150:	00700613          	li	a2,7
    3154:	00888893          	addi	a7,a7,8
    3158:	4ee64c63          	blt	a2,a4,3650 <_vfprintf_r+0x1d64>
    315c:	14069a63          	bnez	a3,32b0 <_vfprintf_r+0x19c4>
    3160:	01c12683          	lw	a3,28(sp)
    3164:	001af713          	andi	a4,s5,1
    3168:	00d76733          	or	a4,a4,a3
    316c:	00071463          	bnez	a4,3174 <_vfprintf_r+0x1888>
    3170:	a75fe06f          	j	1be4 <_vfprintf_r+0x2f8>
    3174:	02c12703          	lw	a4,44(sp)
    3178:	02812683          	lw	a3,40(sp)
    317c:	00e8a023          	sw	a4,0(a7)
    3180:	0f812703          	lw	a4,248(sp)
    3184:	00f687b3          	add	a5,a3,a5
    3188:	00d8a223          	sw	a3,4(a7)
    318c:	00170713          	addi	a4,a4,1
    3190:	0ef12e23          	sw	a5,252(sp)
    3194:	0ee12c23          	sw	a4,248(sp)
    3198:	00700693          	li	a3,7
    319c:	5ae6ca63          	blt	a3,a4,3750 <_vfprintf_r+0x1e64>
    31a0:	00888893          	addi	a7,a7,8
    31a4:	1400006f          	j	32e4 <_vfprintf_r+0x19f8>
    31a8:	00040d13          	mv	s10,s0
    31ac:	00048c13          	mv	s8,s1
    31b0:	fa0ff06f          	j	2950 <_vfprintf_r+0x1064>
    31b4:	040af793          	andi	a5,s5,64
    31b8:	1a078e63          	beqz	a5,3374 <_vfprintf_r+0x1a88>
    31bc:	01412783          	lw	a5,20(sp)
    31c0:	00000913          	li	s2,0
    31c4:	00e12a23          	sw	a4,20(sp)
    31c8:	0007dd83          	lhu	s11,0(a5)
    31cc:	d1dff06f          	j	2ee8 <_vfprintf_r+0x15fc>
    31d0:	0f410613          	addi	a2,sp,244
    31d4:	000c0593          	mv	a1,s8
    31d8:	000d0513          	mv	a0,s10
    31dc:	2e00a0ef          	jal	ra,d4bc <__sprint_r>
    31e0:	f6051863          	bnez	a0,2950 <_vfprintf_r+0x1064>
    31e4:	0fc12783          	lw	a5,252(sp)
    31e8:	11c10893          	addi	a7,sp,284
    31ec:	d30ff06f          	j	271c <_vfprintf_r+0xe30>
    31f0:	0001d697          	auipc	a3,0x1d
    31f4:	60068693          	addi	a3,a3,1536 # 207f0 <zeroes.0>
    31f8:	00d8a023          	sw	a3,0(a7)
    31fc:	0098a223          	sw	s1,4(a7)
    3200:	009787b3          	add	a5,a5,s1
    3204:	00170713          	addi	a4,a4,1
    3208:	0ef12e23          	sw	a5,252(sp)
    320c:	0ee12c23          	sw	a4,248(sp)
    3210:	00700693          	li	a3,7
    3214:	00e6c463          	blt	a3,a4,321c <_vfprintf_r+0x1930>
    3218:	9c9fe06f          	j	1be0 <_vfprintf_r+0x2f4>
    321c:	f75fe06f          	j	2190 <_vfprintf_r+0x8a4>
    3220:	10012783          	lw	a5,256(sp)
    3224:	0b010593          	addi	a1,sp,176
    3228:	0c010513          	addi	a0,sp,192
    322c:	0cf12023          	sw	a5,192(sp)
    3230:	10412783          	lw	a5,260(sp)
    3234:	0a012823          	sw	zero,176(sp)
    3238:	0a012a23          	sw	zero,180(sp)
    323c:	0cf12223          	sw	a5,196(sp)
    3240:	10812783          	lw	a5,264(sp)
    3244:	0a012c23          	sw	zero,184(sp)
    3248:	0a012e23          	sw	zero,188(sp)
    324c:	0cf12423          	sw	a5,200(sp)
    3250:	10c12783          	lw	a5,268(sp)
    3254:	0cf12623          	sw	a5,204(sp)
    3258:	0000f0ef          	jal	ra,12258 <__letf2>
    325c:	01012883          	lw	a7,16(sp)
    3260:	3a0542e3          	bltz	a0,3e04 <_vfprintf_r+0x2518>
    3264:	0d714783          	lbu	a5,215(sp)
    3268:	04700713          	li	a4,71
    326c:	0001db97          	auipc	s7,0x1d
    3270:	390b8b93          	addi	s7,s7,912 # 205fc <_impure_ptr+0x5c4>
    3274:	40974063          	blt	a4,s1,3674 <_vfprintf_r+0x1d88>
    3278:	00012823          	sw	zero,16(sp)
    327c:	02012223          	sw	zero,36(sp)
    3280:	02012023          	sw	zero,32(sp)
    3284:	00012c23          	sw	zero,24(sp)
    3288:	f7fafa93          	andi	s5,s5,-129
    328c:	00300b13          	li	s6,3
    3290:	00300913          	li	s2,3
    3294:	00000c93          	li	s9,0
    3298:	86079863          	bnez	a5,2308 <_vfprintf_r+0xa1c>
    329c:	87dfe06f          	j	1b18 <_vfprintf_r+0x22c>
    32a0:	00c12783          	lw	a5,12(sp)
    32a4:	00040b93          	mv	s7,s0
    32a8:	00f72023          	sw	a5,0(a4)
    32ac:	981fe06f          	j	1c2c <_vfprintf_r+0x340>
    32b0:	02c12703          	lw	a4,44(sp)
    32b4:	02812603          	lw	a2,40(sp)
    32b8:	00888893          	addi	a7,a7,8
    32bc:	fee8ac23          	sw	a4,-8(a7)
    32c0:	0f812703          	lw	a4,248(sp)
    32c4:	00f607b3          	add	a5,a2,a5
    32c8:	fec8ae23          	sw	a2,-4(a7)
    32cc:	00170713          	addi	a4,a4,1
    32d0:	0ef12e23          	sw	a5,252(sp)
    32d4:	0ee12c23          	sw	a4,248(sp)
    32d8:	00700613          	li	a2,7
    32dc:	46e64a63          	blt	a2,a4,3750 <_vfprintf_r+0x1e64>
    32e0:	3e06c2e3          	bltz	a3,3ec4 <_vfprintf_r+0x25d8>
    32e4:	01c12683          	lw	a3,28(sp)
    32e8:	00170713          	addi	a4,a4,1
    32ec:	0178a023          	sw	s7,0(a7)
    32f0:	00f687b3          	add	a5,a3,a5
    32f4:	00d8a223          	sw	a3,4(a7)
    32f8:	0ef12e23          	sw	a5,252(sp)
    32fc:	0ee12c23          	sw	a4,248(sp)
    3300:	00700693          	li	a3,7
    3304:	00e6c463          	blt	a3,a4,330c <_vfprintf_r+0x1a20>
    3308:	8d9fe06f          	j	1be0 <_vfprintf_r+0x2f4>
    330c:	e85fe06f          	j	2190 <_vfprintf_r+0x8a4>
    3310:	000b8513          	mv	a0,s7
    3314:	03112e23          	sw	a7,60(sp)
    3318:	d48fe0ef          	jal	ra,1860 <strlen>
    331c:	0d714783          	lbu	a5,215(sp)
    3320:	fff54b13          	not	s6,a0
    3324:	41fb5b13          	srai	s6,s6,0x1f
    3328:	01b12a23          	sw	s11,20(sp)
    332c:	00012823          	sw	zero,16(sp)
    3330:	02012223          	sw	zero,36(sp)
    3334:	02012023          	sw	zero,32(sp)
    3338:	00012c23          	sw	zero,24(sp)
    333c:	03c12883          	lw	a7,60(sp)
    3340:	00050913          	mv	s2,a0
    3344:	01657b33          	and	s6,a0,s6
    3348:	00000c93          	li	s9,0
    334c:	00078463          	beqz	a5,3354 <_vfprintf_r+0x1a68>
    3350:	fb9fe06f          	j	2308 <_vfprintf_r+0xa1c>
    3354:	fc4fe06f          	j	1b18 <_vfprintf_r+0x22c>
    3358:	200af793          	andi	a5,s5,512
    335c:	3c078063          	beqz	a5,371c <_vfprintf_r+0x1e30>
    3360:	01412783          	lw	a5,20(sp)
    3364:	00000913          	li	s2,0
    3368:	00e12a23          	sw	a4,20(sp)
    336c:	0007cd83          	lbu	s11,0(a5)
    3370:	8ccff06f          	j	243c <_vfprintf_r+0xb50>
    3374:	200af793          	andi	a5,s5,512
    3378:	38078863          	beqz	a5,3708 <_vfprintf_r+0x1e1c>
    337c:	01412783          	lw	a5,20(sp)
    3380:	00000913          	li	s2,0
    3384:	00e12a23          	sw	a4,20(sp)
    3388:	0007cd83          	lbu	s11,0(a5)
    338c:	b5dff06f          	j	2ee8 <_vfprintf_r+0x15fc>
    3390:	200b7793          	andi	a5,s6,512
    3394:	34078e63          	beqz	a5,36f0 <_vfprintf_r+0x1e04>
    3398:	01412783          	lw	a5,20(sp)
    339c:	00000913          	li	s2,0
    33a0:	00d12a23          	sw	a3,20(sp)
    33a4:	0007cd83          	lbu	s11,0(a5)
    33a8:	00100793          	li	a5,1
    33ac:	810ff06f          	j	23bc <_vfprintf_r+0xad0>
    33b0:	200af793          	andi	a5,s5,512
    33b4:	32078263          	beqz	a5,36d8 <_vfprintf_r+0x1dec>
    33b8:	01412783          	lw	a5,20(sp)
    33bc:	00e12a23          	sw	a4,20(sp)
    33c0:	00078d83          	lb	s11,0(a5)
    33c4:	41fdd913          	srai	s2,s11,0x1f
    33c8:	00090793          	mv	a5,s2
    33cc:	8f8ff06f          	j	24c4 <_vfprintf_r+0xbd8>
    33d0:	10c12783          	lw	a5,268(sp)
    33d4:	3407ce63          	bltz	a5,3730 <_vfprintf_r+0x1e44>
    33d8:	0d714783          	lbu	a5,215(sp)
    33dc:	04700713          	li	a4,71
    33e0:	0001db97          	auipc	s7,0x1d
    33e4:	224b8b93          	addi	s7,s7,548 # 20604 <_impure_ptr+0x5cc>
    33e8:	e89758e3          	bge	a4,s1,3278 <_vfprintf_r+0x198c>
    33ec:	0001db97          	auipc	s7,0x1d
    33f0:	21cb8b93          	addi	s7,s7,540 # 20608 <_impure_ptr+0x5d0>
    33f4:	e85ff06f          	j	3278 <_vfprintf_r+0x198c>
    33f8:	0001d697          	auipc	a3,0x1d
    33fc:	3f868693          	addi	a3,a3,1016 # 207f0 <zeroes.0>
    3400:	009787b3          	add	a5,a5,s1
    3404:	00170713          	addi	a4,a4,1
    3408:	00d8a023          	sw	a3,0(a7)
    340c:	0098a223          	sw	s1,4(a7)
    3410:	0ef12e23          	sw	a5,252(sp)
    3414:	0ee12c23          	sw	a4,248(sp)
    3418:	00700693          	li	a3,7
    341c:	00888893          	addi	a7,a7,8
    3420:	eee6d863          	bge	a3,a4,2b10 <_vfprintf_r+0x1224>
    3424:	0f410613          	addi	a2,sp,244
    3428:	000c0593          	mv	a1,s8
    342c:	000d0513          	mv	a0,s10
    3430:	08c0a0ef          	jal	ra,d4bc <__sprint_r>
    3434:	d0051e63          	bnez	a0,2950 <_vfprintf_r+0x1064>
    3438:	0fc12783          	lw	a5,252(sp)
    343c:	11c10893          	addi	a7,sp,284
    3440:	ed0ff06f          	j	2b10 <_vfprintf_r+0x1224>
    3444:	01c12703          	lw	a4,28(sp)
    3448:	02012c83          	lw	s9,32(sp)
    344c:	01512c23          	sw	s5,24(sp)
    3450:	02812e23          	sw	s0,60(sp)
    3454:	05312023          	sw	s3,64(sp)
    3458:	03612023          	sw	s6,32(sp)
    345c:	02412983          	lw	s3,36(sp)
    3460:	03712223          	sw	s7,36(sp)
    3464:	00eb8db3          	add	s11,s7,a4
    3468:	03812403          	lw	s0,56(sp)
    346c:	04412a83          	lw	s5,68(sp)
    3470:	04812b03          	lw	s6,72(sp)
    3474:	00700913          	li	s2,7
    3478:	000c0b93          	mv	s7,s8
    347c:	080c8863          	beqz	s9,350c <_vfprintf_r+0x1c20>
    3480:	08099863          	bnez	s3,3510 <_vfprintf_r+0x1c24>
    3484:	fff40413          	addi	s0,s0,-1
    3488:	fffc8c93          	addi	s9,s9,-1
    348c:	0f812703          	lw	a4,248(sp)
    3490:	015787b3          	add	a5,a5,s5
    3494:	0168a023          	sw	s6,0(a7)
    3498:	00170713          	addi	a4,a4,1
    349c:	0158a223          	sw	s5,4(a7)
    34a0:	0ef12e23          	sw	a5,252(sp)
    34a4:	0ee12c23          	sw	a4,248(sp)
    34a8:	00888893          	addi	a7,a7,8
    34ac:	10e94263          	blt	s2,a4,35b0 <_vfprintf_r+0x1cc4>
    34b0:	00044683          	lbu	a3,0(s0)
    34b4:	409d8633          	sub	a2,s11,s1
    34b8:	00068c13          	mv	s8,a3
    34bc:	00d65463          	bge	a2,a3,34c4 <_vfprintf_r+0x1bd8>
    34c0:	00060c13          	mv	s8,a2
    34c4:	03805663          	blez	s8,34f0 <_vfprintf_r+0x1c04>
    34c8:	0f812683          	lw	a3,248(sp)
    34cc:	018787b3          	add	a5,a5,s8
    34d0:	0098a023          	sw	s1,0(a7)
    34d4:	00168693          	addi	a3,a3,1
    34d8:	0188a223          	sw	s8,4(a7)
    34dc:	0ef12e23          	sw	a5,252(sp)
    34e0:	0ed12c23          	sw	a3,248(sp)
    34e4:	0ed94663          	blt	s2,a3,35d0 <_vfprintf_r+0x1ce4>
    34e8:	00044683          	lbu	a3,0(s0)
    34ec:	00888893          	addi	a7,a7,8
    34f0:	fffc4613          	not	a2,s8
    34f4:	41f65613          	srai	a2,a2,0x1f
    34f8:	00cc7733          	and	a4,s8,a2
    34fc:	40e68c33          	sub	s8,a3,a4
    3500:	01804c63          	bgtz	s8,3518 <_vfprintf_r+0x1c2c>
    3504:	00d484b3          	add	s1,s1,a3
    3508:	f60c9ce3          	bnez	s9,3480 <_vfprintf_r+0x1b94>
    350c:	66098c63          	beqz	s3,3b84 <_vfprintf_r+0x2298>
    3510:	fff98993          	addi	s3,s3,-1
    3514:	f79ff06f          	j	348c <_vfprintf_r+0x1ba0>
    3518:	0f812683          	lw	a3,248(sp)
    351c:	018a4863          	blt	s4,s8,352c <_vfprintf_r+0x1c40>
    3520:	05c0006f          	j	357c <_vfprintf_r+0x1c90>
    3524:	ff0c0c13          	addi	s8,s8,-16
    3528:	058a5a63          	bge	s4,s8,357c <_vfprintf_r+0x1c90>
    352c:	01078793          	addi	a5,a5,16
    3530:	00168693          	addi	a3,a3,1
    3534:	0001d717          	auipc	a4,0x1d
    3538:	2bc70713          	addi	a4,a4,700 # 207f0 <zeroes.0>
    353c:	00e8a023          	sw	a4,0(a7)
    3540:	0148a223          	sw	s4,4(a7)
    3544:	0ef12e23          	sw	a5,252(sp)
    3548:	0ed12c23          	sw	a3,248(sp)
    354c:	00888893          	addi	a7,a7,8
    3550:	fcd95ae3          	bge	s2,a3,3524 <_vfprintf_r+0x1c38>
    3554:	0f410613          	addi	a2,sp,244
    3558:	000b8593          	mv	a1,s7
    355c:	000d0513          	mv	a0,s10
    3560:	75d090ef          	jal	ra,d4bc <__sprint_r>
    3564:	6c051e63          	bnez	a0,3c40 <_vfprintf_r+0x2354>
    3568:	ff0c0c13          	addi	s8,s8,-16
    356c:	0fc12783          	lw	a5,252(sp)
    3570:	0f812683          	lw	a3,248(sp)
    3574:	11c10893          	addi	a7,sp,284
    3578:	fb8a4ae3          	blt	s4,s8,352c <_vfprintf_r+0x1c40>
    357c:	018787b3          	add	a5,a5,s8
    3580:	00168693          	addi	a3,a3,1
    3584:	0001d717          	auipc	a4,0x1d
    3588:	26c70713          	addi	a4,a4,620 # 207f0 <zeroes.0>
    358c:	00e8a023          	sw	a4,0(a7)
    3590:	0188a223          	sw	s8,4(a7)
    3594:	0ef12e23          	sw	a5,252(sp)
    3598:	0ed12c23          	sw	a3,248(sp)
    359c:	6cd94463          	blt	s2,a3,3c64 <_vfprintf_r+0x2378>
    35a0:	00044683          	lbu	a3,0(s0)
    35a4:	00888893          	addi	a7,a7,8
    35a8:	00d484b3          	add	s1,s1,a3
    35ac:	f5dff06f          	j	3508 <_vfprintf_r+0x1c1c>
    35b0:	0f410613          	addi	a2,sp,244
    35b4:	000b8593          	mv	a1,s7
    35b8:	000d0513          	mv	a0,s10
    35bc:	701090ef          	jal	ra,d4bc <__sprint_r>
    35c0:	68051063          	bnez	a0,3c40 <_vfprintf_r+0x2354>
    35c4:	0fc12783          	lw	a5,252(sp)
    35c8:	11c10893          	addi	a7,sp,284
    35cc:	ee5ff06f          	j	34b0 <_vfprintf_r+0x1bc4>
    35d0:	0f410613          	addi	a2,sp,244
    35d4:	000b8593          	mv	a1,s7
    35d8:	000d0513          	mv	a0,s10
    35dc:	6e1090ef          	jal	ra,d4bc <__sprint_r>
    35e0:	66051063          	bnez	a0,3c40 <_vfprintf_r+0x2354>
    35e4:	00044683          	lbu	a3,0(s0)
    35e8:	0fc12783          	lw	a5,252(sp)
    35ec:	11c10893          	addi	a7,sp,284
    35f0:	f01ff06f          	j	34f0 <_vfprintf_r+0x1c04>
    35f4:	04412783          	lw	a5,68(sp)
    35f8:	04812583          	lw	a1,72(sp)
    35fc:	00000913          	li	s2,0
    3600:	40f40433          	sub	s0,s0,a5
    3604:	00078613          	mv	a2,a5
    3608:	00040513          	mv	a0,s0
    360c:	2f0070ef          	jal	ra,a8fc <strncpy>
    3610:	001dc583          	lbu	a1,1(s11)
    3614:	00a00613          	li	a2,10
    3618:	00000693          	li	a3,0
    361c:	00b03833          	snez	a6,a1
    3620:	00048513          	mv	a0,s1
    3624:	00098593          	mv	a1,s3
    3628:	010d8db3          	add	s11,s11,a6
    362c:	32c0d0ef          	jal	ra,10958 <__udivdi3>
    3630:	a7dff06f          	j	30ac <_vfprintf_r+0x17c0>
    3634:	00900793          	li	a5,9
    3638:	a697eae3          	bltu	a5,s1,30ac <_vfprintf_r+0x17c0>
    363c:	abdff06f          	j	30f8 <_vfprintf_r+0x180c>
    3640:	00170713          	addi	a4,a4,1
    3644:	00868893          	addi	a7,a3,8
    3648:	00068913          	mv	s2,a3
    364c:	b21fe06f          	j	216c <_vfprintf_r+0x880>
    3650:	0f410613          	addi	a2,sp,244
    3654:	000c0593          	mv	a1,s8
    3658:	000d0513          	mv	a0,s10
    365c:	661090ef          	jal	ra,d4bc <__sprint_r>
    3660:	ae051863          	bnez	a0,2950 <_vfprintf_r+0x1064>
    3664:	0dc12683          	lw	a3,220(sp)
    3668:	0fc12783          	lw	a5,252(sp)
    366c:	11c10893          	addi	a7,sp,284
    3670:	aedff06f          	j	315c <_vfprintf_r+0x1870>
    3674:	0001db97          	auipc	s7,0x1d
    3678:	f8cb8b93          	addi	s7,s7,-116 # 20600 <_impure_ptr+0x5c8>
    367c:	bfdff06f          	j	3278 <_vfprintf_r+0x198c>
    3680:	0f410613          	addi	a2,sp,244
    3684:	000c0593          	mv	a1,s8
    3688:	000d0513          	mv	a0,s10
    368c:	631090ef          	jal	ra,d4bc <__sprint_r>
    3690:	ac051063          	bnez	a0,2950 <_vfprintf_r+0x1064>
    3694:	0fc12783          	lw	a5,252(sp)
    3698:	11c10893          	addi	a7,sp,284
    369c:	c5cff06f          	j	2af8 <_vfprintf_r+0x120c>
    36a0:	00600913          	li	s2,6
    36a4:	8d9ff06f          	j	2f7c <_vfprintf_r+0x1690>
    36a8:	01c12703          	lw	a4,28(sp)
    36ac:	00eb8833          	add	a6,s7,a4
    36b0:	40d70633          	sub	a2,a4,a3
    36b4:	409806b3          	sub	a3,a6,s1
    36b8:	00060913          	mv	s2,a2
    36bc:	cec6dc63          	bge	a3,a2,2bb4 <_vfprintf_r+0x12c8>
    36c0:	00068913          	mv	s2,a3
    36c4:	cf0ff06f          	j	2bb4 <_vfprintf_r+0x12c8>
    36c8:	00c12783          	lw	a5,12(sp)
    36cc:	00040b93          	mv	s7,s0
    36d0:	00f71023          	sh	a5,0(a4)
    36d4:	d58fe06f          	j	1c2c <_vfprintf_r+0x340>
    36d8:	01412783          	lw	a5,20(sp)
    36dc:	00e12a23          	sw	a4,20(sp)
    36e0:	0007ad83          	lw	s11,0(a5)
    36e4:	41fdd913          	srai	s2,s11,0x1f
    36e8:	00090793          	mv	a5,s2
    36ec:	dd9fe06f          	j	24c4 <_vfprintf_r+0xbd8>
    36f0:	01412783          	lw	a5,20(sp)
    36f4:	00000913          	li	s2,0
    36f8:	00d12a23          	sw	a3,20(sp)
    36fc:	0007ad83          	lw	s11,0(a5)
    3700:	00100793          	li	a5,1
    3704:	cb9fe06f          	j	23bc <_vfprintf_r+0xad0>
    3708:	01412783          	lw	a5,20(sp)
    370c:	00000913          	li	s2,0
    3710:	00e12a23          	sw	a4,20(sp)
    3714:	0007ad83          	lw	s11,0(a5)
    3718:	fd0ff06f          	j	2ee8 <_vfprintf_r+0x15fc>
    371c:	01412783          	lw	a5,20(sp)
    3720:	00000913          	li	s2,0
    3724:	00e12a23          	sw	a4,20(sp)
    3728:	0007ad83          	lw	s11,0(a5)
    372c:	d11fe06f          	j	243c <_vfprintf_r+0xb50>
    3730:	02d00793          	li	a5,45
    3734:	0cf10ba3          	sb	a5,215(sp)
    3738:	ca5ff06f          	j	33dc <_vfprintf_r+0x1af0>
    373c:	0f410613          	addi	a2,sp,244
    3740:	000c0593          	mv	a1,s8
    3744:	000d0513          	mv	a0,s10
    3748:	575090ef          	jal	ra,d4bc <__sprint_r>
    374c:	cf4fe06f          	j	1c40 <_vfprintf_r+0x354>
    3750:	0f410613          	addi	a2,sp,244
    3754:	000c0593          	mv	a1,s8
    3758:	000d0513          	mv	a0,s10
    375c:	561090ef          	jal	ra,d4bc <__sprint_r>
    3760:	9e051863          	bnez	a0,2950 <_vfprintf_r+0x1064>
    3764:	0dc12683          	lw	a3,220(sp)
    3768:	0fc12783          	lw	a5,252(sp)
    376c:	0f812703          	lw	a4,248(sp)
    3770:	11c10893          	addi	a7,sp,284
    3774:	b6dff06f          	j	32e0 <_vfprintf_r+0x19f4>
    3778:	03000793          	li	a5,48
    377c:	0cf10c23          	sb	a5,216(sp)
    3780:	05800793          	li	a5,88
    3784:	002ae713          	ori	a4,s5,2
    3788:	0cf10ca3          	sb	a5,217(sp)
    378c:	04e12823          	sw	a4,80(sp)
    3790:	06300793          	li	a5,99
    3794:	00012823          	sw	zero,16(sp)
    3798:	15c10b93          	addi	s7,sp,348
    379c:	0d97cae3          	blt	a5,s9,4070 <_vfprintf_r+0x2784>
    37a0:	10c12e03          	lw	t3,268(sp)
    37a4:	fdf4f793          	andi	a5,s1,-33
    37a8:	02f12e23          	sw	a5,60(sp)
    37ac:	06012423          	sw	zero,104(sp)
    37b0:	10012e83          	lw	t4,256(sp)
    37b4:	10412f03          	lw	t5,260(sp)
    37b8:	10812f83          	lw	t6,264(sp)
    37bc:	102aea93          	ori	s5,s5,258
    37c0:	480e4863          	bltz	t3,3c50 <_vfprintf_r+0x2364>
    37c4:	06100793          	li	a5,97
    37c8:	1af48ae3          	beq	s1,a5,417c <_vfprintf_r+0x2890>
    37cc:	04100793          	li	a5,65
    37d0:	00f48463          	beq	s1,a5,37d8 <_vfprintf_r+0x1eec>
    37d4:	e6cfe06f          	j	1e40 <_vfprintf_r+0x554>
    37d8:	0c010b13          	addi	s6,sp,192
    37dc:	000b0513          	mv	a0,s6
    37e0:	05112a23          	sw	a7,84(sp)
    37e4:	0de12223          	sw	t5,196(sp)
    37e8:	0df12423          	sw	t6,200(sp)
    37ec:	0dd12023          	sw	t4,192(sp)
    37f0:	0dc12623          	sw	t3,204(sp)
    37f4:	6fc110ef          	jal	ra,14ef0 <__trunctfdf2>
    37f8:	0dc10613          	addi	a2,sp,220
    37fc:	55d060ef          	jal	ra,a558 <frexp>
    3800:	00058613          	mv	a2,a1
    3804:	00050593          	mv	a1,a0
    3808:	000b0513          	mv	a0,s6
    380c:	4b0110ef          	jal	ra,14cbc <__extenddftf2>
    3810:	0c012e83          	lw	t4,192(sp)
    3814:	0001d797          	auipc	a5,0x1d
    3818:	fbc78793          	addi	a5,a5,-68 # 207d0 <_impure_ptr+0x798>
    381c:	0007ae03          	lw	t3,0(a5)
    3820:	0bd12023          	sw	t4,160(sp)
    3824:	0c412e83          	lw	t4,196(sp)
    3828:	0047a683          	lw	a3,4(a5)
    382c:	0087a703          	lw	a4,8(a5)
    3830:	0bd12223          	sw	t4,164(sp)
    3834:	0c812e83          	lw	t4,200(sp)
    3838:	00c7a783          	lw	a5,12(a5)
    383c:	0a010613          	addi	a2,sp,160
    3840:	0bd12423          	sw	t4,168(sp)
    3844:	0cc12e83          	lw	t4,204(sp)
    3848:	0b010913          	addi	s2,sp,176
    384c:	00060593          	mv	a1,a2
    3850:	00c12c23          	sw	a2,24(sp)
    3854:	00090513          	mv	a0,s2
    3858:	09010613          	addi	a2,sp,144
    385c:	04c12023          	sw	a2,64(sp)
    3860:	0bd12623          	sw	t4,172(sp)
    3864:	09c12823          	sw	t3,144(sp)
    3868:	08d12a23          	sw	a3,148(sp)
    386c:	08e12c23          	sw	a4,152(sp)
    3870:	08f12e23          	sw	a5,156(sp)
    3874:	3510e0ef          	jal	ra,123c4 <__multf3>
    3878:	0b012683          	lw	a3,176(sp)
    387c:	0b412e03          	lw	t3,180(sp)
    3880:	0b812e83          	lw	t4,184(sp)
    3884:	0bc12f03          	lw	t5,188(sp)
    3888:	00090593          	mv	a1,s2
    388c:	000b0513          	mv	a0,s6
    3890:	0cd12023          	sw	a3,192(sp)
    3894:	04d12623          	sw	a3,76(sp)
    3898:	0dc12223          	sw	t3,196(sp)
    389c:	03c12223          	sw	t3,36(sp)
    38a0:	0dd12423          	sw	t4,200(sp)
    38a4:	03d12023          	sw	t4,32(sp)
    38a8:	0de12623          	sw	t5,204(sp)
    38ac:	01e12e23          	sw	t5,28(sp)
    38b0:	0a012823          	sw	zero,176(sp)
    38b4:	0a012a23          	sw	zero,180(sp)
    38b8:	0a012c23          	sw	zero,184(sp)
    38bc:	0a012e23          	sw	zero,188(sp)
    38c0:	7600e0ef          	jal	ra,12020 <__eqtf2>
    38c4:	01c12f03          	lw	t5,28(sp)
    38c8:	02012e83          	lw	t4,32(sp)
    38cc:	02412e03          	lw	t3,36(sp)
    38d0:	04c12683          	lw	a3,76(sp)
    38d4:	05412883          	lw	a7,84(sp)
    38d8:	00051663          	bnez	a0,38e4 <_vfprintf_r+0x1ff8>
    38dc:	00100793          	li	a5,1
    38e0:	0cf12e23          	sw	a5,220(sp)
    38e4:	0001d797          	auipc	a5,0x1d
    38e8:	d3c78793          	addi	a5,a5,-708 # 20620 <_impure_ptr+0x5e8>
    38ec:	02f12223          	sw	a5,36(sp)
    38f0:	0001d797          	auipc	a5,0x1d
    38f4:	ec078793          	addi	a5,a5,-320 # 207b0 <_impure_ptr+0x778>
    38f8:	0007a703          	lw	a4,0(a5)
    38fc:	07512623          	sw	s5,108(sp)
    3900:	06912a23          	sw	s1,116(sp)
    3904:	04e12c23          	sw	a4,88(sp)
    3908:	0047a703          	lw	a4,4(a5)
    390c:	07312c23          	sw	s3,120(sp)
    3910:	000b8a93          	mv	s5,s7
    3914:	04e12e23          	sw	a4,92(sp)
    3918:	0087a703          	lw	a4,8(a5)
    391c:	00c7a783          	lw	a5,12(a5)
    3920:	09a12223          	sw	s10,132(sp)
    3924:	06e12023          	sw	a4,96(sp)
    3928:	fffc8713          	addi	a4,s9,-1
    392c:	09812423          	sw	s8,136(sp)
    3930:	09712623          	sw	s7,140(sp)
    3934:	01812483          	lw	s1,24(sp)
    3938:	06f12223          	sw	a5,100(sp)
    393c:	06812823          	sw	s0,112(sp)
    3940:	00070993          	mv	s3,a4
    3944:	07912e23          	sw	s9,124(sp)
    3948:	09112023          	sw	a7,128(sp)
    394c:	00068b93          	mv	s7,a3
    3950:	000e0c13          	mv	s8,t3
    3954:	000e8d13          	mv	s10,t4
    3958:	000f0d93          	mv	s11,t5
    395c:	0500006f          	j	39ac <_vfprintf_r+0x20c0>
    3960:	00090593          	mv	a1,s2
    3964:	000b0513          	mv	a0,s6
    3968:	02c12023          	sw	a2,32(sp)
    396c:	01f12e23          	sw	t6,28(sp)
    3970:	00512c23          	sw	t0,24(sp)
    3974:	0c512223          	sw	t0,196(sp)
    3978:	0df12423          	sw	t6,200(sp)
    397c:	0cc12623          	sw	a2,204(sp)
    3980:	0d912023          	sw	s9,192(sp)
    3984:	0a012823          	sw	zero,176(sp)
    3988:	0a012a23          	sw	zero,180(sp)
    398c:	0a012c23          	sw	zero,184(sp)
    3990:	0a012e23          	sw	zero,188(sp)
    3994:	68c0e0ef          	jal	ra,12020 <__eqtf2>
    3998:	fff98993          	addi	s3,s3,-1
    399c:	000c0293          	mv	t0,s8
    39a0:	000d0f93          	mv	t6,s10
    39a4:	000d8613          	mv	a2,s11
    39a8:	0e050863          	beqz	a0,3a98 <_vfprintf_r+0x21ac>
    39ac:	05812783          	lw	a5,88(sp)
    39b0:	00048613          	mv	a2,s1
    39b4:	00090593          	mv	a1,s2
    39b8:	0af12023          	sw	a5,160(sp)
    39bc:	05c12783          	lw	a5,92(sp)
    39c0:	000b0513          	mv	a0,s6
    39c4:	0b712823          	sw	s7,176(sp)
    39c8:	0af12223          	sw	a5,164(sp)
    39cc:	06012783          	lw	a5,96(sp)
    39d0:	0b812a23          	sw	s8,180(sp)
    39d4:	0ba12c23          	sw	s10,184(sp)
    39d8:	0af12423          	sw	a5,168(sp)
    39dc:	06412783          	lw	a5,100(sp)
    39e0:	0bb12e23          	sw	s11,188(sp)
    39e4:	0af12623          	sw	a5,172(sp)
    39e8:	1dd0e0ef          	jal	ra,123c4 <__multf3>
    39ec:	000b0513          	mv	a0,s6
    39f0:	064110ef          	jal	ra,14a54 <__fixtfsi>
    39f4:	00050593          	mv	a1,a0
    39f8:	00050413          	mv	s0,a0
    39fc:	000b0513          	mv	a0,s6
    3a00:	0c012c03          	lw	s8,192(sp)
    3a04:	0c412b83          	lw	s7,196(sp)
    3a08:	0c812d83          	lw	s11,200(sp)
    3a0c:	0cc12d03          	lw	s10,204(sp)
    3a10:	140110ef          	jal	ra,14b50 <__floatsitf>
    3a14:	0c012683          	lw	a3,192(sp)
    3a18:	04012603          	lw	a2,64(sp)
    3a1c:	00048593          	mv	a1,s1
    3a20:	08d12823          	sw	a3,144(sp)
    3a24:	0c412683          	lw	a3,196(sp)
    3a28:	00090513          	mv	a0,s2
    3a2c:	0b812023          	sw	s8,160(sp)
    3a30:	08d12a23          	sw	a3,148(sp)
    3a34:	0c812683          	lw	a3,200(sp)
    3a38:	0b712223          	sw	s7,164(sp)
    3a3c:	0bb12423          	sw	s11,168(sp)
    3a40:	08d12c23          	sw	a3,152(sp)
    3a44:	0cc12683          	lw	a3,204(sp)
    3a48:	0ba12623          	sw	s10,172(sp)
    3a4c:	08d12e23          	sw	a3,156(sp)
    3a50:	25d0f0ef          	jal	ra,134ac <__subtf3>
    3a54:	02412783          	lw	a5,36(sp)
    3a58:	0b012c83          	lw	s9,176(sp)
    3a5c:	0b412283          	lw	t0,180(sp)
    3a60:	008786b3          	add	a3,a5,s0
    3a64:	0006c683          	lbu	a3,0(a3)
    3a68:	0b812f83          	lw	t6,184(sp)
    3a6c:	0bc12603          	lw	a2,188(sp)
    3a70:	05512a23          	sw	s5,84(sp)
    3a74:	00da8023          	sb	a3,0(s5)
    3a78:	05312623          	sw	s3,76(sp)
    3a7c:	fff00793          	li	a5,-1
    3a80:	001a8a93          	addi	s5,s5,1
    3a84:	000c8b93          	mv	s7,s9
    3a88:	00028c13          	mv	s8,t0
    3a8c:	000f8d13          	mv	s10,t6
    3a90:	00060d93          	mv	s11,a2
    3a94:	ecf996e3          	bne	s3,a5,3960 <_vfprintf_r+0x2074>
    3a98:	0001d717          	auipc	a4,0x1d
    3a9c:	d2870713          	addi	a4,a4,-728 # 207c0 <_impure_ptr+0x788>
    3aa0:	00072e83          	lw	t4,0(a4)
    3aa4:	00472e03          	lw	t3,4(a4)
    3aa8:	00872683          	lw	a3,8(a4)
    3aac:	08012883          	lw	a7,128(sp)
    3ab0:	00c72703          	lw	a4,12(a4)
    3ab4:	000c8393          	mv	t2,s9
    3ab8:	01112e23          	sw	a7,28(sp)
    3abc:	00812c23          	sw	s0,24(sp)
    3ac0:	000a8d93          	mv	s11,s5
    3ac4:	07012403          	lw	s0,112(sp)
    3ac8:	06c12a83          	lw	s5,108(sp)
    3acc:	0c712023          	sw	t2,192(sp)
    3ad0:	06712823          	sw	t2,112(sp)
    3ad4:	0c512223          	sw	t0,196(sp)
    3ad8:	06512623          	sw	t0,108(sp)
    3adc:	0df12423          	sw	t6,200(sp)
    3ae0:	07f12223          	sw	t6,100(sp)
    3ae4:	0cc12623          	sw	a2,204(sp)
    3ae8:	06c12023          	sw	a2,96(sp)
    3aec:	0bd12823          	sw	t4,176(sp)
    3af0:	05d12e23          	sw	t4,92(sp)
    3af4:	0bc12a23          	sw	t3,180(sp)
    3af8:	05c12c23          	sw	t3,88(sp)
    3afc:	0ad12c23          	sw	a3,184(sp)
    3b00:	04d12023          	sw	a3,64(sp)
    3b04:	0ae12e23          	sw	a4,188(sp)
    3b08:	02e12023          	sw	a4,32(sp)
    3b0c:	00090593          	mv	a1,s2
    3b10:	000b0513          	mv	a0,s6
    3b14:	07412483          	lw	s1,116(sp)
    3b18:	07812983          	lw	s3,120(sp)
    3b1c:	08412d03          	lw	s10,132(sp)
    3b20:	08812c03          	lw	s8,136(sp)
    3b24:	08c12b83          	lw	s7,140(sp)
    3b28:	07c12c83          	lw	s9,124(sp)
    3b2c:	5c40e0ef          	jal	ra,120f0 <__getf2>
    3b30:	01c12883          	lw	a7,28(sp)
    3b34:	46a04a63          	bgtz	a0,3fa8 <_vfprintf_r+0x26bc>
    3b38:	00090593          	mv	a1,s2
    3b3c:	000b0513          	mv	a0,s6
    3b40:	4e00e0ef          	jal	ra,12020 <__eqtf2>
    3b44:	01c12883          	lw	a7,28(sp)
    3b48:	00051863          	bnez	a0,3b58 <_vfprintf_r+0x226c>
    3b4c:	01812783          	lw	a5,24(sp)
    3b50:	0017fb13          	andi	s6,a5,1
    3b54:	440b1a63          	bnez	s6,3fa8 <_vfprintf_r+0x26bc>
    3b58:	04c12783          	lw	a5,76(sp)
    3b5c:	03000693          	li	a3,48
    3b60:	00178713          	addi	a4,a5,1
    3b64:	00ed8733          	add	a4,s11,a4
    3b68:	0007c863          	bltz	a5,3b78 <_vfprintf_r+0x228c>
    3b6c:	001d8d93          	addi	s11,s11,1
    3b70:	fedd8fa3          	sb	a3,-1(s11)
    3b74:	ffb71ce3          	bne	a4,s11,3b6c <_vfprintf_r+0x2280>
    3b78:	417d87b3          	sub	a5,s11,s7
    3b7c:	00f12e23          	sw	a5,28(sp)
    3b80:	b68fe06f          	j	1ee8 <_vfprintf_r+0x5fc>
    3b84:	01c12703          	lw	a4,28(sp)
    3b88:	000b8c13          	mv	s8,s7
    3b8c:	02412b83          	lw	s7,36(sp)
    3b90:	02812c23          	sw	s0,56(sp)
    3b94:	01812a83          	lw	s5,24(sp)
    3b98:	00eb8733          	add	a4,s7,a4
    3b9c:	03c12403          	lw	s0,60(sp)
    3ba0:	04012983          	lw	s3,64(sp)
    3ba4:	02012b03          	lw	s6,32(sp)
    3ba8:	00976463          	bltu	a4,s1,3bb0 <_vfprintf_r+0x22c4>
    3bac:	f75fe06f          	j	2b20 <_vfprintf_r+0x1234>
    3bb0:	00070493          	mv	s1,a4
    3bb4:	f6dfe06f          	j	2b20 <_vfprintf_r+0x1234>
    3bb8:	01812703          	lw	a4,24(sp)
    3bbc:	ffd00793          	li	a5,-3
    3bc0:	00f74463          	blt	a4,a5,3bc8 <_vfprintf_r+0x22dc>
    3bc4:	00ecda63          	bge	s9,a4,3bd8 <_vfprintf_r+0x22ec>
    3bc8:	ffe48493          	addi	s1,s1,-2
    3bcc:	fdf4f793          	andi	a5,s1,-33
    3bd0:	02f12e23          	sw	a5,60(sp)
    3bd4:	b3cfe06f          	j	1f10 <_vfprintf_r+0x624>
    3bd8:	01812703          	lw	a4,24(sp)
    3bdc:	01c12783          	lw	a5,28(sp)
    3be0:	28f74663          	blt	a4,a5,3e6c <_vfprintf_r+0x2580>
    3be4:	05012783          	lw	a5,80(sp)
    3be8:	00070913          	mv	s2,a4
    3bec:	0017f793          	andi	a5,a5,1
    3bf0:	00078663          	beqz	a5,3bfc <_vfprintf_r+0x2310>
    3bf4:	02812783          	lw	a5,40(sp)
    3bf8:	00f70933          	add	s2,a4,a5
    3bfc:	05012783          	lw	a5,80(sp)
    3c00:	4007f793          	andi	a5,a5,1024
    3c04:	00078663          	beqz	a5,3c10 <_vfprintf_r+0x2324>
    3c08:	01812783          	lw	a5,24(sp)
    3c0c:	4af04663          	bgtz	a5,40b8 <_vfprintf_r+0x27cc>
    3c10:	fff94b13          	not	s6,s2
    3c14:	41fb5b13          	srai	s6,s6,0x1f
    3c18:	01697b33          	and	s6,s2,s6
    3c1c:	06700493          	li	s1,103
    3c20:	02012223          	sw	zero,36(sp)
    3c24:	02012023          	sw	zero,32(sp)
    3c28:	c04fe06f          	j	202c <_vfprintf_r+0x740>
    3c2c:	0d714783          	lbu	a5,215(sp)
    3c30:	00000c93          	li	s9,0
    3c34:	00078463          	beqz	a5,3c3c <_vfprintf_r+0x2350>
    3c38:	ed0fe06f          	j	2308 <_vfprintf_r+0xa1c>
    3c3c:	eddfd06f          	j	1b18 <_vfprintf_r+0x22c>
    3c40:	000b8c13          	mv	s8,s7
    3c44:	d0dfe06f          	j	2950 <_vfprintf_r+0x1064>
    3c48:	00012823          	sw	zero,16(sp)
    3c4c:	00078a93          	mv	s5,a5
    3c50:	800007b7          	lui	a5,0x80000
    3c54:	01c7ce33          	xor	t3,a5,t3
    3c58:	02d00793          	li	a5,45
    3c5c:	06f12423          	sw	a5,104(sp)
    3c60:	b65ff06f          	j	37c4 <_vfprintf_r+0x1ed8>
    3c64:	0f410613          	addi	a2,sp,244
    3c68:	000b8593          	mv	a1,s7
    3c6c:	000d0513          	mv	a0,s10
    3c70:	04d090ef          	jal	ra,d4bc <__sprint_r>
    3c74:	fc0516e3          	bnez	a0,3c40 <_vfprintf_r+0x2354>
    3c78:	00044683          	lbu	a3,0(s0)
    3c7c:	0fc12783          	lw	a5,252(sp)
    3c80:	11c10893          	addi	a7,sp,284
    3c84:	00d484b3          	add	s1,s1,a3
    3c88:	881ff06f          	j	3508 <_vfprintf_r+0x1c1c>
    3c8c:	0c010b13          	addi	s6,sp,192
    3c90:	0e010793          	addi	a5,sp,224
    3c94:	0dc10713          	addi	a4,sp,220
    3c98:	0ec10813          	addi	a6,sp,236
    3c9c:	000c8693          	mv	a3,s9
    3ca0:	00300613          	li	a2,3
    3ca4:	000b0593          	mv	a1,s6
    3ca8:	000d0513          	mv	a0,s10
    3cac:	05112023          	sw	a7,64(sp)
    3cb0:	0dd12023          	sw	t4,192(sp)
    3cb4:	03d12223          	sw	t4,36(sp)
    3cb8:	0de12223          	sw	t5,196(sp)
    3cbc:	03e12023          	sw	t5,32(sp)
    3cc0:	0df12423          	sw	t6,200(sp)
    3cc4:	01f12e23          	sw	t6,28(sp)
    3cc8:	0dc12623          	sw	t3,204(sp)
    3ccc:	01c12c23          	sw	t3,24(sp)
    3cd0:	478030ef          	jal	ra,7148 <_ldtoa_r>
    3cd4:	00054703          	lbu	a4,0(a0)
    3cd8:	03000793          	li	a5,48
    3cdc:	01812e03          	lw	t3,24(sp)
    3ce0:	01c12f83          	lw	t6,28(sp)
    3ce4:	02012f03          	lw	t5,32(sp)
    3ce8:	02412e83          	lw	t4,36(sp)
    3cec:	04012883          	lw	a7,64(sp)
    3cf0:	00050b93          	mv	s7,a0
    3cf4:	0b010913          	addi	s2,sp,176
    3cf8:	06f70c63          	beq	a4,a5,3d70 <_vfprintf_r+0x2484>
    3cfc:	0dc12783          	lw	a5,220(sp)
    3d00:	019787b3          	add	a5,a5,s9
    3d04:	00fb8db3          	add	s11,s7,a5
    3d08:	00090593          	mv	a1,s2
    3d0c:	000b0513          	mv	a0,s6
    3d10:	01112c23          	sw	a7,24(sp)
    3d14:	0dd12023          	sw	t4,192(sp)
    3d18:	0de12223          	sw	t5,196(sp)
    3d1c:	0df12423          	sw	t6,200(sp)
    3d20:	0dc12623          	sw	t3,204(sp)
    3d24:	0a012823          	sw	zero,176(sp)
    3d28:	0a012a23          	sw	zero,180(sp)
    3d2c:	0a012c23          	sw	zero,184(sp)
    3d30:	0a012e23          	sw	zero,188(sp)
    3d34:	2ec0e0ef          	jal	ra,12020 <__eqtf2>
    3d38:	01812883          	lw	a7,24(sp)
    3d3c:	000d8793          	mv	a5,s11
    3d40:	00051463          	bnez	a0,3d48 <_vfprintf_r+0x245c>
    3d44:	99cfe06f          	j	1ee0 <_vfprintf_r+0x5f4>
    3d48:	0ec12783          	lw	a5,236(sp)
    3d4c:	01b7e463          	bltu	a5,s11,3d54 <_vfprintf_r+0x2468>
    3d50:	990fe06f          	j	1ee0 <_vfprintf_r+0x5f4>
    3d54:	03000693          	li	a3,48
    3d58:	00178713          	addi	a4,a5,1 # 80000001 <_stack+0x7ffc0001>
    3d5c:	0ee12623          	sw	a4,236(sp)
    3d60:	00d78023          	sb	a3,0(a5)
    3d64:	0ec12783          	lw	a5,236(sp)
    3d68:	ffb7e8e3          	bltu	a5,s11,3d58 <_vfprintf_r+0x246c>
    3d6c:	974fe06f          	j	1ee0 <_vfprintf_r+0x5f4>
    3d70:	0b010913          	addi	s2,sp,176
    3d74:	00090593          	mv	a1,s2
    3d78:	000b0513          	mv	a0,s6
    3d7c:	05112023          	sw	a7,64(sp)
    3d80:	0dd12023          	sw	t4,192(sp)
    3d84:	03d12223          	sw	t4,36(sp)
    3d88:	0de12223          	sw	t5,196(sp)
    3d8c:	03e12023          	sw	t5,32(sp)
    3d90:	0df12423          	sw	t6,200(sp)
    3d94:	01f12e23          	sw	t6,28(sp)
    3d98:	0dc12623          	sw	t3,204(sp)
    3d9c:	01c12c23          	sw	t3,24(sp)
    3da0:	0a012823          	sw	zero,176(sp)
    3da4:	0a012a23          	sw	zero,180(sp)
    3da8:	0a012c23          	sw	zero,184(sp)
    3dac:	0a012e23          	sw	zero,188(sp)
    3db0:	2700e0ef          	jal	ra,12020 <__eqtf2>
    3db4:	01812e03          	lw	t3,24(sp)
    3db8:	01c12f83          	lw	t6,28(sp)
    3dbc:	02012f03          	lw	t5,32(sp)
    3dc0:	02412e83          	lw	t4,36(sp)
    3dc4:	04012883          	lw	a7,64(sp)
    3dc8:	f2050ae3          	beqz	a0,3cfc <_vfprintf_r+0x2410>
    3dcc:	00100793          	li	a5,1
    3dd0:	419787b3          	sub	a5,a5,s9
    3dd4:	0cf12e23          	sw	a5,220(sp)
    3dd8:	f29ff06f          	j	3d00 <_vfprintf_r+0x2414>
    3ddc:	0f410613          	addi	a2,sp,244
    3de0:	000c0593          	mv	a1,s8
    3de4:	000d0513          	mv	a0,s10
    3de8:	6d4090ef          	jal	ra,d4bc <__sprint_r>
    3dec:	00050463          	beqz	a0,3df4 <_vfprintf_r+0x2508>
    3df0:	b61fe06f          	j	2950 <_vfprintf_r+0x1064>
    3df4:	0dc12683          	lw	a3,220(sp)
    3df8:	0fc12783          	lw	a5,252(sp)
    3dfc:	11c10893          	addi	a7,sp,284
    3e00:	d69fe06f          	j	2b68 <_vfprintf_r+0x127c>
    3e04:	02d00793          	li	a5,45
    3e08:	0cf10ba3          	sb	a5,215(sp)
    3e0c:	c5cff06f          	j	3268 <_vfprintf_r+0x197c>
    3e10:	0d714783          	lbu	a5,215(sp)
    3e14:	01b12a23          	sw	s11,20(sp)
    3e18:	02012223          	sw	zero,36(sp)
    3e1c:	02012023          	sw	zero,32(sp)
    3e20:	00012c23          	sw	zero,24(sp)
    3e24:	000c8b13          	mv	s6,s9
    3e28:	000c8913          	mv	s2,s9
    3e2c:	00000c93          	li	s9,0
    3e30:	00078463          	beqz	a5,3e38 <_vfprintf_r+0x254c>
    3e34:	cd4fe06f          	j	2308 <_vfprintf_r+0xa1c>
    3e38:	ce1fd06f          	j	1b18 <_vfprintf_r+0x22c>
    3e3c:	0f410613          	addi	a2,sp,244
    3e40:	000c0593          	mv	a1,s8
    3e44:	000d0513          	mv	a0,s10
    3e48:	674090ef          	jal	ra,d4bc <__sprint_r>
    3e4c:	00050463          	beqz	a0,3e54 <_vfprintf_r+0x2568>
    3e50:	b01fe06f          	j	2950 <_vfprintf_r+0x1064>
    3e54:	0dc12483          	lw	s1,220(sp)
    3e58:	01c12703          	lw	a4,28(sp)
    3e5c:	0fc12783          	lw	a5,252(sp)
    3e60:	11c10893          	addi	a7,sp,284
    3e64:	40970633          	sub	a2,a4,s1
    3e68:	d4dfe06f          	j	2bb4 <_vfprintf_r+0x12c8>
    3e6c:	01c12783          	lw	a5,28(sp)
    3e70:	02812703          	lw	a4,40(sp)
    3e74:	06700493          	li	s1,103
    3e78:	00e78933          	add	s2,a5,a4
    3e7c:	01812783          	lw	a5,24(sp)
    3e80:	40f05c63          	blez	a5,4298 <_vfprintf_r+0x29ac>
    3e84:	05012783          	lw	a5,80(sp)
    3e88:	4007f793          	andi	a5,a5,1024
    3e8c:	22079863          	bnez	a5,40bc <_vfprintf_r+0x27d0>
    3e90:	fff94b13          	not	s6,s2
    3e94:	41fb5b13          	srai	s6,s6,0x1f
    3e98:	01697b33          	and	s6,s2,s6
    3e9c:	d85ff06f          	j	3c20 <_vfprintf_r+0x2334>
    3ea0:	05012783          	lw	a5,80(sp)
    3ea4:	01812703          	lw	a4,24(sp)
    3ea8:	0017f793          	andi	a5,a5,1
    3eac:	0197e7b3          	or	a5,a5,s9
    3eb0:	40e05a63          	blez	a4,42c4 <_vfprintf_r+0x29d8>
    3eb4:	28079263          	bnez	a5,4138 <_vfprintf_r+0x284c>
    3eb8:	01812903          	lw	s2,24(sp)
    3ebc:	06600493          	li	s1,102
    3ec0:	fc5ff06f          	j	3e84 <_vfprintf_r+0x2598>
    3ec4:	ff000613          	li	a2,-16
    3ec8:	40d004b3          	neg	s1,a3
    3ecc:	12c6de63          	bge	a3,a2,4008 <_vfprintf_r+0x271c>
    3ed0:	00700913          	li	s2,7
    3ed4:	00c0006f          	j	3ee0 <_vfprintf_r+0x25f4>
    3ed8:	ff048493          	addi	s1,s1,-16
    3edc:	129a5663          	bge	s4,s1,4008 <_vfprintf_r+0x271c>
    3ee0:	01078793          	addi	a5,a5,16
    3ee4:	00170713          	addi	a4,a4,1
    3ee8:	0001d697          	auipc	a3,0x1d
    3eec:	90868693          	addi	a3,a3,-1784 # 207f0 <zeroes.0>
    3ef0:	00d8a023          	sw	a3,0(a7)
    3ef4:	0148a223          	sw	s4,4(a7)
    3ef8:	0ef12e23          	sw	a5,252(sp)
    3efc:	0ee12c23          	sw	a4,248(sp)
    3f00:	00888893          	addi	a7,a7,8
    3f04:	fce95ae3          	bge	s2,a4,3ed8 <_vfprintf_r+0x25ec>
    3f08:	0f410613          	addi	a2,sp,244
    3f0c:	000c0593          	mv	a1,s8
    3f10:	000d0513          	mv	a0,s10
    3f14:	5a8090ef          	jal	ra,d4bc <__sprint_r>
    3f18:	00050463          	beqz	a0,3f20 <_vfprintf_r+0x2634>
    3f1c:	a35fe06f          	j	2950 <_vfprintf_r+0x1064>
    3f20:	0fc12783          	lw	a5,252(sp)
    3f24:	0f812703          	lw	a4,248(sp)
    3f28:	11c10893          	addi	a7,sp,284
    3f2c:	fadff06f          	j	3ed8 <_vfprintf_r+0x25ec>
    3f30:	fff00793          	li	a5,-1
    3f34:	00f12623          	sw	a5,12(sp)
    3f38:	d19fd06f          	j	1c50 <_vfprintf_r+0x364>
    3f3c:	001c8913          	addi	s2,s9,1
    3f40:	0c010b13          	addi	s6,sp,192
    3f44:	0ec10813          	addi	a6,sp,236
    3f48:	0e010793          	addi	a5,sp,224
    3f4c:	0dc10713          	addi	a4,sp,220
    3f50:	00090693          	mv	a3,s2
    3f54:	00200613          	li	a2,2
    3f58:	000b0593          	mv	a1,s6
    3f5c:	000d0513          	mv	a0,s10
    3f60:	0dd12023          	sw	t4,192(sp)
    3f64:	03d12223          	sw	t4,36(sp)
    3f68:	0de12223          	sw	t5,196(sp)
    3f6c:	03e12023          	sw	t5,32(sp)
    3f70:	0df12423          	sw	t6,200(sp)
    3f74:	01f12e23          	sw	t6,28(sp)
    3f78:	0dc12623          	sw	t3,204(sp)
    3f7c:	01c12c23          	sw	t3,24(sp)
    3f80:	1c8030ef          	jal	ra,7148 <_ldtoa_r>
    3f84:	01812e03          	lw	t3,24(sp)
    3f88:	01c12f83          	lw	t6,28(sp)
    3f8c:	02012f03          	lw	t5,32(sp)
    3f90:	02412e83          	lw	t4,36(sp)
    3f94:	04012883          	lw	a7,64(sp)
    3f98:	00050b93          	mv	s7,a0
    3f9c:	012b8db3          	add	s11,s7,s2
    3fa0:	0b010913          	addi	s2,sp,176
    3fa4:	d65ff06f          	j	3d08 <_vfprintf_r+0x241c>
    3fa8:	05412783          	lw	a5,84(sp)
    3fac:	000d8713          	mv	a4,s11
    3fb0:	0ef12623          	sw	a5,236(sp)
    3fb4:	02412783          	lw	a5,36(sp)
    3fb8:	fffdc683          	lbu	a3,-1(s11)
    3fbc:	00f7c603          	lbu	a2,15(a5)
    3fc0:	02c69063          	bne	a3,a2,3fe0 <_vfprintf_r+0x26f4>
    3fc4:	03000593          	li	a1,48
    3fc8:	feb70fa3          	sb	a1,-1(a4)
    3fcc:	0ec12703          	lw	a4,236(sp)
    3fd0:	fff70793          	addi	a5,a4,-1
    3fd4:	0ef12623          	sw	a5,236(sp)
    3fd8:	fff74683          	lbu	a3,-1(a4)
    3fdc:	fed606e3          	beq	a2,a3,3fc8 <_vfprintf_r+0x26dc>
    3fe0:	00168613          	addi	a2,a3,1
    3fe4:	03900593          	li	a1,57
    3fe8:	0ff67613          	zext.b	a2,a2
    3fec:	00b68663          	beq	a3,a1,3ff8 <_vfprintf_r+0x270c>
    3ff0:	fec70fa3          	sb	a2,-1(a4)
    3ff4:	b85ff06f          	j	3b78 <_vfprintf_r+0x228c>
    3ff8:	02412783          	lw	a5,36(sp)
    3ffc:	00a7c603          	lbu	a2,10(a5)
    4000:	fec70fa3          	sb	a2,-1(a4)
    4004:	b75ff06f          	j	3b78 <_vfprintf_r+0x228c>
    4008:	0001c697          	auipc	a3,0x1c
    400c:	7e868693          	addi	a3,a3,2024 # 207f0 <zeroes.0>
    4010:	009787b3          	add	a5,a5,s1
    4014:	00170713          	addi	a4,a4,1
    4018:	00d8a023          	sw	a3,0(a7)
    401c:	0098a223          	sw	s1,4(a7)
    4020:	0ef12e23          	sw	a5,252(sp)
    4024:	0ee12c23          	sw	a4,248(sp)
    4028:	00700693          	li	a3,7
    402c:	96e6da63          	bge	a3,a4,31a0 <_vfprintf_r+0x18b4>
    4030:	0f410613          	addi	a2,sp,244
    4034:	000c0593          	mv	a1,s8
    4038:	000d0513          	mv	a0,s10
    403c:	480090ef          	jal	ra,d4bc <__sprint_r>
    4040:	00050463          	beqz	a0,4048 <_vfprintf_r+0x275c>
    4044:	90dfe06f          	j	2950 <_vfprintf_r+0x1064>
    4048:	0fc12783          	lw	a5,252(sp)
    404c:	0f812703          	lw	a4,248(sp)
    4050:	11c10893          	addi	a7,sp,284
    4054:	a90ff06f          	j	32e4 <_vfprintf_r+0x19f8>
    4058:	03000793          	li	a5,48
    405c:	0cf10c23          	sb	a5,216(sp)
    4060:	07800793          	li	a5,120
    4064:	f20ff06f          	j	3784 <_vfprintf_r+0x1e98>
    4068:	000a8b13          	mv	s6,s5
    406c:	c98fe06f          	j	2504 <_vfprintf_r+0xc18>
    4070:	001c8593          	addi	a1,s9,1
    4074:	000d0513          	mv	a0,s10
    4078:	01112823          	sw	a7,16(sp)
    407c:	b71fc0ef          	jal	ra,bec <_malloc_r>
    4080:	01012883          	lw	a7,16(sp)
    4084:	00050b93          	mv	s7,a0
    4088:	2a050263          	beqz	a0,432c <_vfprintf_r+0x2a40>
    408c:	00a12823          	sw	a0,16(sp)
    4090:	f10ff06f          	j	37a0 <_vfprintf_r+0x1eb4>
    4094:	019b8db3          	add	s11,s7,s9
    4098:	0b010913          	addi	s2,sp,176
    409c:	c6dff06f          	j	3d08 <_vfprintf_r+0x241c>
    40a0:	00600c93          	li	s9,6
    40a4:	d71fd06f          	j	1e14 <_vfprintf_r+0x528>
    40a8:	000c8463          	beqz	s9,40b0 <_vfprintf_r+0x27c4>
    40ac:	d69fd06f          	j	1e14 <_vfprintf_r+0x528>
    40b0:	00100c93          	li	s9,1
    40b4:	d61fd06f          	j	1e14 <_vfprintf_r+0x528>
    40b8:	06700493          	li	s1,103
    40bc:	03812603          	lw	a2,56(sp)
    40c0:	0ff00713          	li	a4,255
    40c4:	00064783          	lbu	a5,0(a2)
    40c8:	28e78063          	beq	a5,a4,4348 <_vfprintf_r+0x2a5c>
    40cc:	01812683          	lw	a3,24(sp)
    40d0:	00000513          	li	a0,0
    40d4:	00000593          	li	a1,0
    40d8:	00d7de63          	bge	a5,a3,40f4 <_vfprintf_r+0x2808>
    40dc:	40f686b3          	sub	a3,a3,a5
    40e0:	00164783          	lbu	a5,1(a2)
    40e4:	04078463          	beqz	a5,412c <_vfprintf_r+0x2840>
    40e8:	00158593          	addi	a1,a1,1
    40ec:	00160613          	addi	a2,a2,1
    40f0:	fee794e3          	bne	a5,a4,40d8 <_vfprintf_r+0x27ec>
    40f4:	00d12c23          	sw	a3,24(sp)
    40f8:	02c12c23          	sw	a2,56(sp)
    40fc:	02b12023          	sw	a1,32(sp)
    4100:	02a12223          	sw	a0,36(sp)
    4104:	02412703          	lw	a4,36(sp)
    4108:	02012783          	lw	a5,32(sp)
    410c:	00e787b3          	add	a5,a5,a4
    4110:	04412703          	lw	a4,68(sp)
    4114:	02e787b3          	mul	a5,a5,a4
    4118:	01278933          	add	s2,a5,s2
    411c:	fff94b13          	not	s6,s2
    4120:	41fb5b13          	srai	s6,s6,0x1f
    4124:	01697b33          	and	s6,s2,s6
    4128:	f05fd06f          	j	202c <_vfprintf_r+0x740>
    412c:	00064783          	lbu	a5,0(a2)
    4130:	00150513          	addi	a0,a0,1
    4134:	fbdff06f          	j	40f0 <_vfprintf_r+0x2804>
    4138:	02812783          	lw	a5,40(sp)
    413c:	06600493          	li	s1,102
    4140:	00f707b3          	add	a5,a4,a5
    4144:	01978933          	add	s2,a5,s9
    4148:	d3dff06f          	j	3e84 <_vfprintf_r+0x2598>
    414c:	0e610713          	addi	a4,sp,230
    4150:	00069863          	bnez	a3,4160 <_vfprintf_r+0x2874>
    4154:	03000713          	li	a4,48
    4158:	0ee10323          	sb	a4,230(sp)
    415c:	0e710713          	addi	a4,sp,231
    4160:	1c010693          	addi	a3,sp,448
    4164:	03078793          	addi	a5,a5,48
    4168:	40d706b3          	sub	a3,a4,a3
    416c:	00f70023          	sb	a5,0(a4)
    4170:	0dd68793          	addi	a5,a3,221
    4174:	02f12a23          	sw	a5,52(sp)
    4178:	e71fd06f          	j	1fe8 <_vfprintf_r+0x6fc>
    417c:	0c010b13          	addi	s6,sp,192
    4180:	000b0513          	mv	a0,s6
    4184:	05112a23          	sw	a7,84(sp)
    4188:	0de12223          	sw	t5,196(sp)
    418c:	0df12423          	sw	t6,200(sp)
    4190:	0dd12023          	sw	t4,192(sp)
    4194:	0dc12623          	sw	t3,204(sp)
    4198:	559100ef          	jal	ra,14ef0 <__trunctfdf2>
    419c:	0dc10613          	addi	a2,sp,220
    41a0:	3b8060ef          	jal	ra,a558 <frexp>
    41a4:	00058613          	mv	a2,a1
    41a8:	00050593          	mv	a1,a0
    41ac:	000b0513          	mv	a0,s6
    41b0:	30d100ef          	jal	ra,14cbc <__extenddftf2>
    41b4:	0c012e83          	lw	t4,192(sp)
    41b8:	0001c797          	auipc	a5,0x1c
    41bc:	61878793          	addi	a5,a5,1560 # 207d0 <_impure_ptr+0x798>
    41c0:	0007ae03          	lw	t3,0(a5)
    41c4:	0bd12023          	sw	t4,160(sp)
    41c8:	0c412e83          	lw	t4,196(sp)
    41cc:	0047a683          	lw	a3,4(a5)
    41d0:	0087a703          	lw	a4,8(a5)
    41d4:	0bd12223          	sw	t4,164(sp)
    41d8:	0c812e83          	lw	t4,200(sp)
    41dc:	00c7a783          	lw	a5,12(a5)
    41e0:	0a010613          	addi	a2,sp,160
    41e4:	0bd12423          	sw	t4,168(sp)
    41e8:	0cc12e83          	lw	t4,204(sp)
    41ec:	0b010913          	addi	s2,sp,176
    41f0:	00060593          	mv	a1,a2
    41f4:	00c12c23          	sw	a2,24(sp)
    41f8:	00090513          	mv	a0,s2
    41fc:	09010613          	addi	a2,sp,144
    4200:	04c12023          	sw	a2,64(sp)
    4204:	0bd12623          	sw	t4,172(sp)
    4208:	09c12823          	sw	t3,144(sp)
    420c:	08d12a23          	sw	a3,148(sp)
    4210:	08e12c23          	sw	a4,152(sp)
    4214:	08f12e23          	sw	a5,156(sp)
    4218:	1ac0e0ef          	jal	ra,123c4 <__multf3>
    421c:	0b012683          	lw	a3,176(sp)
    4220:	0b412e03          	lw	t3,180(sp)
    4224:	0b812e83          	lw	t4,184(sp)
    4228:	0bc12f03          	lw	t5,188(sp)
    422c:	00090593          	mv	a1,s2
    4230:	000b0513          	mv	a0,s6
    4234:	0cd12023          	sw	a3,192(sp)
    4238:	04d12623          	sw	a3,76(sp)
    423c:	0dc12223          	sw	t3,196(sp)
    4240:	03c12223          	sw	t3,36(sp)
    4244:	0dd12423          	sw	t4,200(sp)
    4248:	03d12023          	sw	t4,32(sp)
    424c:	0de12623          	sw	t5,204(sp)
    4250:	01e12e23          	sw	t5,28(sp)
    4254:	0a012823          	sw	zero,176(sp)
    4258:	0a012a23          	sw	zero,180(sp)
    425c:	0a012c23          	sw	zero,184(sp)
    4260:	0a012e23          	sw	zero,188(sp)
    4264:	5bd0d0ef          	jal	ra,12020 <__eqtf2>
    4268:	01c12f03          	lw	t5,28(sp)
    426c:	02012e83          	lw	t4,32(sp)
    4270:	02412e03          	lw	t3,36(sp)
    4274:	04c12683          	lw	a3,76(sp)
    4278:	05412883          	lw	a7,84(sp)
    427c:	00051663          	bnez	a0,4288 <_vfprintf_r+0x299c>
    4280:	00100793          	li	a5,1
    4284:	0cf12e23          	sw	a5,220(sp)
    4288:	0001c797          	auipc	a5,0x1c
    428c:	38478793          	addi	a5,a5,900 # 2060c <_impure_ptr+0x5d4>
    4290:	02f12223          	sw	a5,36(sp)
    4294:	e5cff06f          	j	38f0 <_vfprintf_r+0x2004>
    4298:	40f90cb3          	sub	s9,s2,a5
    429c:	001c8913          	addi	s2,s9,1
    42a0:	fff94b13          	not	s6,s2
    42a4:	41fb5b13          	srai	s6,s6,0x1f
    42a8:	01697b33          	and	s6,s2,s6
    42ac:	975ff06f          	j	3c20 <_vfprintf_r+0x2334>
    42b0:	05012783          	lw	a5,80(sp)
    42b4:	0017f793          	andi	a5,a5,1
    42b8:	00079463          	bnez	a5,42c0 <_vfprintf_r+0x29d4>
    42bc:	d4dfd06f          	j	2008 <_vfprintf_r+0x71c>
    42c0:	d41fd06f          	j	2000 <_vfprintf_r+0x714>
    42c4:	00079a63          	bnez	a5,42d8 <_vfprintf_r+0x29ec>
    42c8:	00100b13          	li	s6,1
    42cc:	06600493          	li	s1,102
    42d0:	00100913          	li	s2,1
    42d4:	94dff06f          	j	3c20 <_vfprintf_r+0x2334>
    42d8:	02812783          	lw	a5,40(sp)
    42dc:	06600493          	li	s1,102
    42e0:	00178793          	addi	a5,a5,1
    42e4:	01978933          	add	s2,a5,s9
    42e8:	fff94b13          	not	s6,s2
    42ec:	41fb5b13          	srai	s6,s6,0x1f
    42f0:	01697b33          	and	s6,s2,s6
    42f4:	92dff06f          	j	3c20 <_vfprintf_r+0x2334>
    42f8:	00088693          	mv	a3,a7
    42fc:	b5dfe06f          	j	2e58 <_vfprintf_r+0x156c>
    4300:	01412783          	lw	a5,20(sp)
    4304:	0007ac83          	lw	s9,0(a5)
    4308:	00478793          	addi	a5,a5,4
    430c:	000cd463          	bgez	s9,4314 <_vfprintf_r+0x2a28>
    4310:	fff00c93          	li	s9,-1
    4314:	00144483          	lbu	s1,1(s0)
    4318:	00f12a23          	sw	a5,20(sp)
    431c:	00068413          	mv	s0,a3
    4320:	f6cfd06f          	j	1a8c <_vfprintf_r+0x1a0>
    4324:	000c8913          	mv	s2,s9
    4328:	c75ff06f          	j	3f9c <_vfprintf_r+0x26b0>
    432c:	00cc5783          	lhu	a5,12(s8)
    4330:	0407e793          	ori	a5,a5,64
    4334:	00fc1623          	sh	a5,12(s8)
    4338:	909fd06f          	j	1c40 <_vfprintf_r+0x354>
    433c:	00200793          	li	a5,2
    4340:	02f12a23          	sw	a5,52(sp)
    4344:	ca5fd06f          	j	1fe8 <_vfprintf_r+0x6fc>
    4348:	02012223          	sw	zero,36(sp)
    434c:	02012023          	sw	zero,32(sp)
    4350:	db5ff06f          	j	4104 <_vfprintf_r+0x2818>

00004354 <vfprintf>:
    4354:	00060693          	mv	a3,a2
    4358:	00058613          	mv	a2,a1
    435c:	00050593          	mv	a1,a0
    4360:	0001c517          	auipc	a0,0x1c
    4364:	cd852503          	lw	a0,-808(a0) # 20038 <_impure_ptr>
    4368:	d84fd06f          	j	18ec <_vfprintf_r>

0000436c <__sbprintf>:
    436c:	00c5d783          	lhu	a5,12(a1)
    4370:	0645ae03          	lw	t3,100(a1)
    4374:	00e5d303          	lhu	t1,14(a1)
    4378:	01c5a883          	lw	a7,28(a1)
    437c:	0245a803          	lw	a6,36(a1)
    4380:	b8010113          	addi	sp,sp,-1152
    4384:	ffd7f793          	andi	a5,a5,-3
    4388:	40000713          	li	a4,1024
    438c:	46812c23          	sw	s0,1144(sp)
    4390:	00f11a23          	sh	a5,20(sp)
    4394:	00058413          	mv	s0,a1
    4398:	07010793          	addi	a5,sp,112
    439c:	00810593          	addi	a1,sp,8
    43a0:	46912a23          	sw	s1,1140(sp)
    43a4:	47212823          	sw	s2,1136(sp)
    43a8:	46112e23          	sw	ra,1148(sp)
    43ac:	00050913          	mv	s2,a0
    43b0:	07c12623          	sw	t3,108(sp)
    43b4:	00611b23          	sh	t1,22(sp)
    43b8:	03112223          	sw	a7,36(sp)
    43bc:	03012623          	sw	a6,44(sp)
    43c0:	00f12423          	sw	a5,8(sp)
    43c4:	00f12c23          	sw	a5,24(sp)
    43c8:	00e12823          	sw	a4,16(sp)
    43cc:	00e12e23          	sw	a4,28(sp)
    43d0:	02012023          	sw	zero,32(sp)
    43d4:	d18fd0ef          	jal	ra,18ec <_vfprintf_r>
    43d8:	00050493          	mv	s1,a0
    43dc:	02055c63          	bgez	a0,4414 <__sbprintf+0xa8>
    43e0:	01415783          	lhu	a5,20(sp)
    43e4:	0407f793          	andi	a5,a5,64
    43e8:	00078863          	beqz	a5,43f8 <__sbprintf+0x8c>
    43ec:	00c45783          	lhu	a5,12(s0)
    43f0:	0407e793          	ori	a5,a5,64
    43f4:	00f41623          	sh	a5,12(s0)
    43f8:	47c12083          	lw	ra,1148(sp)
    43fc:	47812403          	lw	s0,1144(sp)
    4400:	47012903          	lw	s2,1136(sp)
    4404:	00048513          	mv	a0,s1
    4408:	47412483          	lw	s1,1140(sp)
    440c:	48010113          	addi	sp,sp,1152
    4410:	00008067          	ret
    4414:	00810593          	addi	a1,sp,8
    4418:	00090513          	mv	a0,s2
    441c:	57c000ef          	jal	ra,4998 <_fflush_r>
    4420:	fc0500e3          	beqz	a0,43e0 <__sbprintf+0x74>
    4424:	fff00493          	li	s1,-1
    4428:	fb9ff06f          	j	43e0 <__sbprintf+0x74>

0000442c <__swbuf_r>:
    442c:	fe010113          	addi	sp,sp,-32
    4430:	00812c23          	sw	s0,24(sp)
    4434:	00912a23          	sw	s1,20(sp)
    4438:	01212823          	sw	s2,16(sp)
    443c:	00112e23          	sw	ra,28(sp)
    4440:	01312623          	sw	s3,12(sp)
    4444:	00050913          	mv	s2,a0
    4448:	00058493          	mv	s1,a1
    444c:	00060413          	mv	s0,a2
    4450:	00050663          	beqz	a0,445c <__swbuf_r+0x30>
    4454:	03852783          	lw	a5,56(a0)
    4458:	14078a63          	beqz	a5,45ac <__swbuf_r+0x180>
    445c:	00c41703          	lh	a4,12(s0)
    4460:	01842683          	lw	a3,24(s0)
    4464:	00877793          	andi	a5,a4,8
    4468:	00d42423          	sw	a3,8(s0)
    446c:	01071693          	slli	a3,a4,0x10
    4470:	0106d693          	srli	a3,a3,0x10
    4474:	08078463          	beqz	a5,44fc <__swbuf_r+0xd0>
    4478:	01042783          	lw	a5,16(s0)
    447c:	08078063          	beqz	a5,44fc <__swbuf_r+0xd0>
    4480:	00002637          	lui	a2,0x2
    4484:	00c6f6b3          	and	a3,a3,a2
    4488:	0ff4f993          	zext.b	s3,s1
    448c:	0ff4f493          	zext.b	s1,s1
    4490:	0a068063          	beqz	a3,4530 <__swbuf_r+0x104>
    4494:	00042703          	lw	a4,0(s0)
    4498:	01442683          	lw	a3,20(s0)
    449c:	40f707b3          	sub	a5,a4,a5
    44a0:	0ad7de63          	bge	a5,a3,455c <__swbuf_r+0x130>
    44a4:	00842683          	lw	a3,8(s0)
    44a8:	00170613          	addi	a2,a4,1
    44ac:	00c42023          	sw	a2,0(s0)
    44b0:	fff68693          	addi	a3,a3,-1
    44b4:	00d42423          	sw	a3,8(s0)
    44b8:	01370023          	sb	s3,0(a4)
    44bc:	01442703          	lw	a4,20(s0)
    44c0:	00178793          	addi	a5,a5,1
    44c4:	0cf70863          	beq	a4,a5,4594 <__swbuf_r+0x168>
    44c8:	00c45783          	lhu	a5,12(s0)
    44cc:	0017f793          	andi	a5,a5,1
    44d0:	00078663          	beqz	a5,44dc <__swbuf_r+0xb0>
    44d4:	00a00793          	li	a5,10
    44d8:	0af48e63          	beq	s1,a5,4594 <__swbuf_r+0x168>
    44dc:	01c12083          	lw	ra,28(sp)
    44e0:	01812403          	lw	s0,24(sp)
    44e4:	01012903          	lw	s2,16(sp)
    44e8:	00c12983          	lw	s3,12(sp)
    44ec:	00048513          	mv	a0,s1
    44f0:	01412483          	lw	s1,20(sp)
    44f4:	02010113          	addi	sp,sp,32
    44f8:	00008067          	ret
    44fc:	00040593          	mv	a1,s0
    4500:	00090513          	mv	a0,s2
    4504:	0c4000ef          	jal	ra,45c8 <__swsetup_r>
    4508:	08051e63          	bnez	a0,45a4 <__swbuf_r+0x178>
    450c:	00c41703          	lh	a4,12(s0)
    4510:	00002637          	lui	a2,0x2
    4514:	0ff4f993          	zext.b	s3,s1
    4518:	01071693          	slli	a3,a4,0x10
    451c:	0106d693          	srli	a3,a3,0x10
    4520:	00c6f6b3          	and	a3,a3,a2
    4524:	01042783          	lw	a5,16(s0)
    4528:	0ff4f493          	zext.b	s1,s1
    452c:	f60694e3          	bnez	a3,4494 <__swbuf_r+0x68>
    4530:	06442683          	lw	a3,100(s0)
    4534:	00c76733          	or	a4,a4,a2
    4538:	ffffe637          	lui	a2,0xffffe
    453c:	fff60613          	addi	a2,a2,-1 # ffffdfff <_stack+0xfffbdfff>
    4540:	00c6f6b3          	and	a3,a3,a2
    4544:	00e41623          	sh	a4,12(s0)
    4548:	00042703          	lw	a4,0(s0)
    454c:	06d42223          	sw	a3,100(s0)
    4550:	01442683          	lw	a3,20(s0)
    4554:	40f707b3          	sub	a5,a4,a5
    4558:	f4d7c6e3          	blt	a5,a3,44a4 <__swbuf_r+0x78>
    455c:	00040593          	mv	a1,s0
    4560:	00090513          	mv	a0,s2
    4564:	434000ef          	jal	ra,4998 <_fflush_r>
    4568:	02051e63          	bnez	a0,45a4 <__swbuf_r+0x178>
    456c:	00042703          	lw	a4,0(s0)
    4570:	00842683          	lw	a3,8(s0)
    4574:	00100793          	li	a5,1
    4578:	00170613          	addi	a2,a4,1
    457c:	fff68693          	addi	a3,a3,-1
    4580:	00c42023          	sw	a2,0(s0)
    4584:	00d42423          	sw	a3,8(s0)
    4588:	01370023          	sb	s3,0(a4)
    458c:	01442703          	lw	a4,20(s0)
    4590:	f2f71ce3          	bne	a4,a5,44c8 <__swbuf_r+0x9c>
    4594:	00040593          	mv	a1,s0
    4598:	00090513          	mv	a0,s2
    459c:	3fc000ef          	jal	ra,4998 <_fflush_r>
    45a0:	f2050ee3          	beqz	a0,44dc <__swbuf_r+0xb0>
    45a4:	fff00493          	li	s1,-1
    45a8:	f35ff06f          	j	44dc <__swbuf_r+0xb0>
    45ac:	029000ef          	jal	ra,4dd4 <__sinit>
    45b0:	eadff06f          	j	445c <__swbuf_r+0x30>

000045b4 <__swbuf>:
    45b4:	00058613          	mv	a2,a1
    45b8:	00050593          	mv	a1,a0
    45bc:	0001c517          	auipc	a0,0x1c
    45c0:	a7c52503          	lw	a0,-1412(a0) # 20038 <_impure_ptr>
    45c4:	e69ff06f          	j	442c <__swbuf_r>

000045c8 <__swsetup_r>:
    45c8:	ff010113          	addi	sp,sp,-16
    45cc:	00812423          	sw	s0,8(sp)
    45d0:	00912223          	sw	s1,4(sp)
    45d4:	00112623          	sw	ra,12(sp)
    45d8:	0001c797          	auipc	a5,0x1c
    45dc:	a607a783          	lw	a5,-1440(a5) # 20038 <_impure_ptr>
    45e0:	00050493          	mv	s1,a0
    45e4:	00058413          	mv	s0,a1
    45e8:	00078663          	beqz	a5,45f4 <__swsetup_r+0x2c>
    45ec:	0387a703          	lw	a4,56(a5)
    45f0:	08070463          	beqz	a4,4678 <__swsetup_r+0xb0>
    45f4:	00c41703          	lh	a4,12(s0)
    45f8:	01071793          	slli	a5,a4,0x10
    45fc:	00877693          	andi	a3,a4,8
    4600:	0107d793          	srli	a5,a5,0x10
    4604:	08068863          	beqz	a3,4694 <__swsetup_r+0xcc>
    4608:	01042683          	lw	a3,16(s0)
    460c:	0a068863          	beqz	a3,46bc <__swsetup_r+0xf4>
    4610:	0017f613          	andi	a2,a5,1
    4614:	02060863          	beqz	a2,4644 <__swsetup_r+0x7c>
    4618:	01442603          	lw	a2,20(s0)
    461c:	00042423          	sw	zero,8(s0)
    4620:	00000513          	li	a0,0
    4624:	40c00633          	neg	a2,a2
    4628:	00c42c23          	sw	a2,24(s0)
    462c:	02068a63          	beqz	a3,4660 <__swsetup_r+0x98>
    4630:	00c12083          	lw	ra,12(sp)
    4634:	00812403          	lw	s0,8(sp)
    4638:	00412483          	lw	s1,4(sp)
    463c:	01010113          	addi	sp,sp,16
    4640:	00008067          	ret
    4644:	0027f613          	andi	a2,a5,2
    4648:	00000593          	li	a1,0
    464c:	00061463          	bnez	a2,4654 <__swsetup_r+0x8c>
    4650:	01442583          	lw	a1,20(s0)
    4654:	00b42423          	sw	a1,8(s0)
    4658:	00000513          	li	a0,0
    465c:	fc069ae3          	bnez	a3,4630 <__swsetup_r+0x68>
    4660:	0807f793          	andi	a5,a5,128
    4664:	fc0786e3          	beqz	a5,4630 <__swsetup_r+0x68>
    4668:	04076713          	ori	a4,a4,64
    466c:	00e41623          	sh	a4,12(s0)
    4670:	fff00513          	li	a0,-1
    4674:	fbdff06f          	j	4630 <__swsetup_r+0x68>
    4678:	00078513          	mv	a0,a5
    467c:	758000ef          	jal	ra,4dd4 <__sinit>
    4680:	00c41703          	lh	a4,12(s0)
    4684:	01071793          	slli	a5,a4,0x10
    4688:	00877693          	andi	a3,a4,8
    468c:	0107d793          	srli	a5,a5,0x10
    4690:	f6069ce3          	bnez	a3,4608 <__swsetup_r+0x40>
    4694:	0107f693          	andi	a3,a5,16
    4698:	08068263          	beqz	a3,471c <__swsetup_r+0x154>
    469c:	0047f793          	andi	a5,a5,4
    46a0:	04079463          	bnez	a5,46e8 <__swsetup_r+0x120>
    46a4:	01042683          	lw	a3,16(s0)
    46a8:	00876713          	ori	a4,a4,8
    46ac:	01071793          	slli	a5,a4,0x10
    46b0:	00e41623          	sh	a4,12(s0)
    46b4:	0107d793          	srli	a5,a5,0x10
    46b8:	f4069ce3          	bnez	a3,4610 <__swsetup_r+0x48>
    46bc:	2807f613          	andi	a2,a5,640
    46c0:	20000593          	li	a1,512
    46c4:	f4b606e3          	beq	a2,a1,4610 <__swsetup_r+0x48>
    46c8:	00040593          	mv	a1,s0
    46cc:	00048513          	mv	a0,s1
    46d0:	695030ef          	jal	ra,8564 <__smakebuf_r>
    46d4:	00c41703          	lh	a4,12(s0)
    46d8:	01042683          	lw	a3,16(s0)
    46dc:	01071793          	slli	a5,a4,0x10
    46e0:	0107d793          	srli	a5,a5,0x10
    46e4:	f2dff06f          	j	4610 <__swsetup_r+0x48>
    46e8:	03042583          	lw	a1,48(s0)
    46ec:	00058e63          	beqz	a1,4708 <__swsetup_r+0x140>
    46f0:	04040793          	addi	a5,s0,64
    46f4:	00f58863          	beq	a1,a5,4704 <__swsetup_r+0x13c>
    46f8:	00048513          	mv	a0,s1
    46fc:	061000ef          	jal	ra,4f5c <_free_r>
    4700:	00c41703          	lh	a4,12(s0)
    4704:	02042823          	sw	zero,48(s0)
    4708:	01042683          	lw	a3,16(s0)
    470c:	fdb77713          	andi	a4,a4,-37
    4710:	00042223          	sw	zero,4(s0)
    4714:	00d42023          	sw	a3,0(s0)
    4718:	f91ff06f          	j	46a8 <__swsetup_r+0xe0>
    471c:	00900793          	li	a5,9
    4720:	00f4a023          	sw	a5,0(s1)
    4724:	04076713          	ori	a4,a4,64
    4728:	00e41623          	sh	a4,12(s0)
    472c:	fff00513          	li	a0,-1
    4730:	f01ff06f          	j	4630 <__swsetup_r+0x68>

00004734 <__sflush_r>:
    4734:	00c59783          	lh	a5,12(a1)
    4738:	fe010113          	addi	sp,sp,-32
    473c:	00812c23          	sw	s0,24(sp)
    4740:	01312623          	sw	s3,12(sp)
    4744:	00112e23          	sw	ra,28(sp)
    4748:	00912a23          	sw	s1,20(sp)
    474c:	01212823          	sw	s2,16(sp)
    4750:	0087f693          	andi	a3,a5,8
    4754:	00058413          	mv	s0,a1
    4758:	00050993          	mv	s3,a0
    475c:	10069c63          	bnez	a3,4874 <__sflush_r+0x140>
    4760:	00001737          	lui	a4,0x1
    4764:	80070713          	addi	a4,a4,-2048 # 800 <main+0x5a8>
    4768:	0045a683          	lw	a3,4(a1)
    476c:	00e7e7b3          	or	a5,a5,a4
    4770:	00f59623          	sh	a5,12(a1)
    4774:	18d05663          	blez	a3,4900 <__sflush_r+0x1cc>
    4778:	02842703          	lw	a4,40(s0)
    477c:	0c070c63          	beqz	a4,4854 <__sflush_r+0x120>
    4780:	01079793          	slli	a5,a5,0x10
    4784:	0107d793          	srli	a5,a5,0x10
    4788:	000016b7          	lui	a3,0x1
    478c:	0009a483          	lw	s1,0(s3)
    4790:	00d7f6b3          	and	a3,a5,a3
    4794:	0009a023          	sw	zero,0(s3)
    4798:	01c42583          	lw	a1,28(s0)
    479c:	16069863          	bnez	a3,490c <__sflush_r+0x1d8>
    47a0:	00100693          	li	a3,1
    47a4:	00000613          	li	a2,0
    47a8:	00098513          	mv	a0,s3
    47ac:	000700e7          	jalr	a4
    47b0:	fff00793          	li	a5,-1
    47b4:	18f50e63          	beq	a0,a5,4950 <__sflush_r+0x21c>
    47b8:	00c45783          	lhu	a5,12(s0)
    47bc:	02842703          	lw	a4,40(s0)
    47c0:	01c42583          	lw	a1,28(s0)
    47c4:	0047f793          	andi	a5,a5,4
    47c8:	00078e63          	beqz	a5,47e4 <__sflush_r+0xb0>
    47cc:	00442683          	lw	a3,4(s0)
    47d0:	03042783          	lw	a5,48(s0)
    47d4:	40d50533          	sub	a0,a0,a3
    47d8:	00078663          	beqz	a5,47e4 <__sflush_r+0xb0>
    47dc:	03c42783          	lw	a5,60(s0)
    47e0:	40f50533          	sub	a0,a0,a5
    47e4:	00050613          	mv	a2,a0
    47e8:	00000693          	li	a3,0
    47ec:	00098513          	mv	a0,s3
    47f0:	000700e7          	jalr	a4
    47f4:	fff00793          	li	a5,-1
    47f8:	10f51e63          	bne	a0,a5,4914 <__sflush_r+0x1e0>
    47fc:	0009a703          	lw	a4,0(s3)
    4800:	00c41783          	lh	a5,12(s0)
    4804:	16070a63          	beqz	a4,4978 <__sflush_r+0x244>
    4808:	01d00693          	li	a3,29
    480c:	00d70663          	beq	a4,a3,4818 <__sflush_r+0xe4>
    4810:	01600693          	li	a3,22
    4814:	0cd71463          	bne	a4,a3,48dc <__sflush_r+0x1a8>
    4818:	01042683          	lw	a3,16(s0)
    481c:	fffff737          	lui	a4,0xfffff
    4820:	7ff70713          	addi	a4,a4,2047 # fffff7ff <_stack+0xfffbf7ff>
    4824:	00e7f7b3          	and	a5,a5,a4
    4828:	00f41623          	sh	a5,12(s0)
    482c:	00042223          	sw	zero,4(s0)
    4830:	00d42023          	sw	a3,0(s0)
    4834:	03042583          	lw	a1,48(s0)
    4838:	0099a023          	sw	s1,0(s3)
    483c:	00058c63          	beqz	a1,4854 <__sflush_r+0x120>
    4840:	04040793          	addi	a5,s0,64
    4844:	00f58663          	beq	a1,a5,4850 <__sflush_r+0x11c>
    4848:	00098513          	mv	a0,s3
    484c:	710000ef          	jal	ra,4f5c <_free_r>
    4850:	02042823          	sw	zero,48(s0)
    4854:	00000513          	li	a0,0
    4858:	01c12083          	lw	ra,28(sp)
    485c:	01812403          	lw	s0,24(sp)
    4860:	01412483          	lw	s1,20(sp)
    4864:	01012903          	lw	s2,16(sp)
    4868:	00c12983          	lw	s3,12(sp)
    486c:	02010113          	addi	sp,sp,32
    4870:	00008067          	ret
    4874:	0105a903          	lw	s2,16(a1)
    4878:	fc090ee3          	beqz	s2,4854 <__sflush_r+0x120>
    487c:	0005a483          	lw	s1,0(a1)
    4880:	01079713          	slli	a4,a5,0x10
    4884:	01075713          	srli	a4,a4,0x10
    4888:	00377713          	andi	a4,a4,3
    488c:	0125a023          	sw	s2,0(a1)
    4890:	412484b3          	sub	s1,s1,s2
    4894:	00000793          	li	a5,0
    4898:	00071463          	bnez	a4,48a0 <__sflush_r+0x16c>
    489c:	0145a783          	lw	a5,20(a1)
    48a0:	00f42423          	sw	a5,8(s0)
    48a4:	00904863          	bgtz	s1,48b4 <__sflush_r+0x180>
    48a8:	fadff06f          	j	4854 <__sflush_r+0x120>
    48ac:	00a90933          	add	s2,s2,a0
    48b0:	fa9052e3          	blez	s1,4854 <__sflush_r+0x120>
    48b4:	02442783          	lw	a5,36(s0)
    48b8:	01c42583          	lw	a1,28(s0)
    48bc:	00048693          	mv	a3,s1
    48c0:	00090613          	mv	a2,s2
    48c4:	00098513          	mv	a0,s3
    48c8:	000780e7          	jalr	a5
    48cc:	40a484b3          	sub	s1,s1,a0
    48d0:	fca04ee3          	bgtz	a0,48ac <__sflush_r+0x178>
    48d4:	00c45783          	lhu	a5,12(s0)
    48d8:	fff00513          	li	a0,-1
    48dc:	0407e793          	ori	a5,a5,64
    48e0:	01c12083          	lw	ra,28(sp)
    48e4:	00f41623          	sh	a5,12(s0)
    48e8:	01812403          	lw	s0,24(sp)
    48ec:	01412483          	lw	s1,20(sp)
    48f0:	01012903          	lw	s2,16(sp)
    48f4:	00c12983          	lw	s3,12(sp)
    48f8:	02010113          	addi	sp,sp,32
    48fc:	00008067          	ret
    4900:	03c5a703          	lw	a4,60(a1)
    4904:	e6e04ae3          	bgtz	a4,4778 <__sflush_r+0x44>
    4908:	f4dff06f          	j	4854 <__sflush_r+0x120>
    490c:	05042503          	lw	a0,80(s0)
    4910:	eb5ff06f          	j	47c4 <__sflush_r+0x90>
    4914:	00c45783          	lhu	a5,12(s0)
    4918:	fffff737          	lui	a4,0xfffff
    491c:	7ff70713          	addi	a4,a4,2047 # fffff7ff <_stack+0xfffbf7ff>
    4920:	00e7f7b3          	and	a5,a5,a4
    4924:	01042683          	lw	a3,16(s0)
    4928:	01079793          	slli	a5,a5,0x10
    492c:	4107d793          	srai	a5,a5,0x10
    4930:	00c7d713          	srli	a4,a5,0xc
    4934:	00f41623          	sh	a5,12(s0)
    4938:	00042223          	sw	zero,4(s0)
    493c:	00d42023          	sw	a3,0(s0)
    4940:	00177793          	andi	a5,a4,1
    4944:	ee0788e3          	beqz	a5,4834 <__sflush_r+0x100>
    4948:	04a42823          	sw	a0,80(s0)
    494c:	ee9ff06f          	j	4834 <__sflush_r+0x100>
    4950:	0009a783          	lw	a5,0(s3)
    4954:	e60782e3          	beqz	a5,47b8 <__sflush_r+0x84>
    4958:	01d00713          	li	a4,29
    495c:	02e78863          	beq	a5,a4,498c <__sflush_r+0x258>
    4960:	01600713          	li	a4,22
    4964:	02e78463          	beq	a5,a4,498c <__sflush_r+0x258>
    4968:	00c45783          	lhu	a5,12(s0)
    496c:	0407e793          	ori	a5,a5,64
    4970:	00f41623          	sh	a5,12(s0)
    4974:	ee5ff06f          	j	4858 <__sflush_r+0x124>
    4978:	fffff737          	lui	a4,0xfffff
    497c:	7ff70713          	addi	a4,a4,2047 # fffff7ff <_stack+0xfffbf7ff>
    4980:	01042683          	lw	a3,16(s0)
    4984:	00e7f7b3          	and	a5,a5,a4
    4988:	fa9ff06f          	j	4930 <__sflush_r+0x1fc>
    498c:	0099a023          	sw	s1,0(s3)
    4990:	00000513          	li	a0,0
    4994:	ec5ff06f          	j	4858 <__sflush_r+0x124>

00004998 <_fflush_r>:
    4998:	fe010113          	addi	sp,sp,-32
    499c:	00812c23          	sw	s0,24(sp)
    49a0:	00112e23          	sw	ra,28(sp)
    49a4:	00050413          	mv	s0,a0
    49a8:	00050663          	beqz	a0,49b4 <_fflush_r+0x1c>
    49ac:	03852783          	lw	a5,56(a0)
    49b0:	02078063          	beqz	a5,49d0 <_fflush_r+0x38>
    49b4:	00c59783          	lh	a5,12(a1)
    49b8:	02079663          	bnez	a5,49e4 <_fflush_r+0x4c>
    49bc:	01c12083          	lw	ra,28(sp)
    49c0:	01812403          	lw	s0,24(sp)
    49c4:	00000513          	li	a0,0
    49c8:	02010113          	addi	sp,sp,32
    49cc:	00008067          	ret
    49d0:	00b12623          	sw	a1,12(sp)
    49d4:	400000ef          	jal	ra,4dd4 <__sinit>
    49d8:	00c12583          	lw	a1,12(sp)
    49dc:	00c59783          	lh	a5,12(a1)
    49e0:	fc078ee3          	beqz	a5,49bc <_fflush_r+0x24>
    49e4:	00040513          	mv	a0,s0
    49e8:	01812403          	lw	s0,24(sp)
    49ec:	01c12083          	lw	ra,28(sp)
    49f0:	02010113          	addi	sp,sp,32
    49f4:	d41ff06f          	j	4734 <__sflush_r>

000049f8 <fflush>:
    49f8:	06050863          	beqz	a0,4a68 <fflush+0x70>
    49fc:	fe010113          	addi	sp,sp,-32
    4a00:	00812c23          	sw	s0,24(sp)
    4a04:	00112e23          	sw	ra,28(sp)
    4a08:	00050413          	mv	s0,a0
    4a0c:	0001b517          	auipc	a0,0x1b
    4a10:	62c52503          	lw	a0,1580(a0) # 20038 <_impure_ptr>
    4a14:	00050663          	beqz	a0,4a20 <fflush+0x28>
    4a18:	03852783          	lw	a5,56(a0)
    4a1c:	02078a63          	beqz	a5,4a50 <fflush+0x58>
    4a20:	00c41783          	lh	a5,12(s0)
    4a24:	00079c63          	bnez	a5,4a3c <fflush+0x44>
    4a28:	01c12083          	lw	ra,28(sp)
    4a2c:	01812403          	lw	s0,24(sp)
    4a30:	00000513          	li	a0,0
    4a34:	02010113          	addi	sp,sp,32
    4a38:	00008067          	ret
    4a3c:	00040593          	mv	a1,s0
    4a40:	01812403          	lw	s0,24(sp)
    4a44:	01c12083          	lw	ra,28(sp)
    4a48:	02010113          	addi	sp,sp,32
    4a4c:	ce9ff06f          	j	4734 <__sflush_r>
    4a50:	00a12623          	sw	a0,12(sp)
    4a54:	380000ef          	jal	ra,4dd4 <__sinit>
    4a58:	00c41783          	lh	a5,12(s0)
    4a5c:	00c12503          	lw	a0,12(sp)
    4a60:	fc0784e3          	beqz	a5,4a28 <fflush+0x30>
    4a64:	fd9ff06f          	j	4a3c <fflush+0x44>
    4a68:	00000597          	auipc	a1,0x0
    4a6c:	f3058593          	addi	a1,a1,-208 # 4998 <_fflush_r>
    4a70:	0001b517          	auipc	a0,0x1b
    4a74:	5a052503          	lw	a0,1440(a0) # 20010 <_global_impure_ptr>
    4a78:	5350006f          	j	57ac <_fwalk_reent>

00004a7c <__fp_lock>:
    4a7c:	00000513          	li	a0,0
    4a80:	00008067          	ret

00004a84 <_cleanup_r>:
    4a84:	0000a597          	auipc	a1,0xa
    4a88:	0dc58593          	addi	a1,a1,220 # eb60 <_fclose_r>
    4a8c:	5210006f          	j	57ac <_fwalk_reent>

00004a90 <__fp_unlock>:
    4a90:	00000513          	li	a0,0
    4a94:	00008067          	ret

00004a98 <__sinit.part.0>:
    4a98:	fe010113          	addi	sp,sp,-32
    4a9c:	00112e23          	sw	ra,28(sp)
    4aa0:	00812c23          	sw	s0,24(sp)
    4aa4:	00912a23          	sw	s1,20(sp)
    4aa8:	01212823          	sw	s2,16(sp)
    4aac:	01312623          	sw	s3,12(sp)
    4ab0:	01412423          	sw	s4,8(sp)
    4ab4:	01512223          	sw	s5,4(sp)
    4ab8:	01612023          	sw	s6,0(sp)
    4abc:	00452403          	lw	s0,4(a0)
    4ac0:	00000717          	auipc	a4,0x0
    4ac4:	fc470713          	addi	a4,a4,-60 # 4a84 <_cleanup_r>
    4ac8:	02e52e23          	sw	a4,60(a0)
    4acc:	2ec50793          	addi	a5,a0,748
    4ad0:	00300713          	li	a4,3
    4ad4:	2ee52223          	sw	a4,740(a0)
    4ad8:	2ef52423          	sw	a5,744(a0)
    4adc:	2e052023          	sw	zero,736(a0)
    4ae0:	00400793          	li	a5,4
    4ae4:	00050913          	mv	s2,a0
    4ae8:	00f42623          	sw	a5,12(s0)
    4aec:	00800613          	li	a2,8
    4af0:	00000593          	li	a1,0
    4af4:	06042223          	sw	zero,100(s0)
    4af8:	00042023          	sw	zero,0(s0)
    4afc:	00042223          	sw	zero,4(s0)
    4b00:	00042423          	sw	zero,8(s0)
    4b04:	00042823          	sw	zero,16(s0)
    4b08:	00042a23          	sw	zero,20(s0)
    4b0c:	00042c23          	sw	zero,24(s0)
    4b10:	05c40513          	addi	a0,s0,92
    4b14:	034040ef          	jal	ra,8b48 <memset>
    4b18:	00892483          	lw	s1,8(s2)
    4b1c:	00006b17          	auipc	s6,0x6
    4b20:	bd4b0b13          	addi	s6,s6,-1068 # a6f0 <__sread>
    4b24:	00006a97          	auipc	s5,0x6
    4b28:	c30a8a93          	addi	s5,s5,-976 # a754 <__swrite>
    4b2c:	00006a17          	auipc	s4,0x6
    4b30:	cb0a0a13          	addi	s4,s4,-848 # a7dc <__sseek>
    4b34:	00006997          	auipc	s3,0x6
    4b38:	d1098993          	addi	s3,s3,-752 # a844 <__sclose>
    4b3c:	000107b7          	lui	a5,0x10
    4b40:	03642023          	sw	s6,32(s0)
    4b44:	03542223          	sw	s5,36(s0)
    4b48:	03442423          	sw	s4,40(s0)
    4b4c:	03342623          	sw	s3,44(s0)
    4b50:	00842e23          	sw	s0,28(s0)
    4b54:	00978793          	addi	a5,a5,9 # 10009 <_svfiprintf_r+0xe29>
    4b58:	00f4a623          	sw	a5,12(s1)
    4b5c:	00800613          	li	a2,8
    4b60:	00000593          	li	a1,0
    4b64:	0604a223          	sw	zero,100(s1)
    4b68:	0004a023          	sw	zero,0(s1)
    4b6c:	0004a223          	sw	zero,4(s1)
    4b70:	0004a423          	sw	zero,8(s1)
    4b74:	0004a823          	sw	zero,16(s1)
    4b78:	0004aa23          	sw	zero,20(s1)
    4b7c:	0004ac23          	sw	zero,24(s1)
    4b80:	05c48513          	addi	a0,s1,92
    4b84:	7c5030ef          	jal	ra,8b48 <memset>
    4b88:	00c92403          	lw	s0,12(s2)
    4b8c:	000207b7          	lui	a5,0x20
    4b90:	0364a023          	sw	s6,32(s1)
    4b94:	0354a223          	sw	s5,36(s1)
    4b98:	0344a423          	sw	s4,40(s1)
    4b9c:	0334a623          	sw	s3,44(s1)
    4ba0:	0094ae23          	sw	s1,28(s1)
    4ba4:	01278793          	addi	a5,a5,18 # 20012 <_global_impure_ptr+0x2>
    4ba8:	00f42623          	sw	a5,12(s0)
    4bac:	06042223          	sw	zero,100(s0)
    4bb0:	00042023          	sw	zero,0(s0)
    4bb4:	00042223          	sw	zero,4(s0)
    4bb8:	00042423          	sw	zero,8(s0)
    4bbc:	00042823          	sw	zero,16(s0)
    4bc0:	00042a23          	sw	zero,20(s0)
    4bc4:	00042c23          	sw	zero,24(s0)
    4bc8:	05c40513          	addi	a0,s0,92
    4bcc:	00800613          	li	a2,8
    4bd0:	00000593          	li	a1,0
    4bd4:	775030ef          	jal	ra,8b48 <memset>
    4bd8:	01c12083          	lw	ra,28(sp)
    4bdc:	03642023          	sw	s6,32(s0)
    4be0:	03542223          	sw	s5,36(s0)
    4be4:	03442423          	sw	s4,40(s0)
    4be8:	03342623          	sw	s3,44(s0)
    4bec:	00842e23          	sw	s0,28(s0)
    4bf0:	01812403          	lw	s0,24(sp)
    4bf4:	00100793          	li	a5,1
    4bf8:	02f92c23          	sw	a5,56(s2)
    4bfc:	01412483          	lw	s1,20(sp)
    4c00:	01012903          	lw	s2,16(sp)
    4c04:	00c12983          	lw	s3,12(sp)
    4c08:	00812a03          	lw	s4,8(sp)
    4c0c:	00412a83          	lw	s5,4(sp)
    4c10:	00012b03          	lw	s6,0(sp)
    4c14:	02010113          	addi	sp,sp,32
    4c18:	00008067          	ret

00004c1c <__sfmoreglue>:
    4c1c:	ff010113          	addi	sp,sp,-16
    4c20:	00912223          	sw	s1,4(sp)
    4c24:	06800613          	li	a2,104
    4c28:	fff58493          	addi	s1,a1,-1
    4c2c:	02c484b3          	mul	s1,s1,a2
    4c30:	01212023          	sw	s2,0(sp)
    4c34:	00058913          	mv	s2,a1
    4c38:	00812423          	sw	s0,8(sp)
    4c3c:	00112623          	sw	ra,12(sp)
    4c40:	07448593          	addi	a1,s1,116
    4c44:	fa9fb0ef          	jal	ra,bec <_malloc_r>
    4c48:	00050413          	mv	s0,a0
    4c4c:	02050063          	beqz	a0,4c6c <__sfmoreglue+0x50>
    4c50:	00c50513          	addi	a0,a0,12
    4c54:	00042023          	sw	zero,0(s0)
    4c58:	01242223          	sw	s2,4(s0)
    4c5c:	00a42423          	sw	a0,8(s0)
    4c60:	06848613          	addi	a2,s1,104
    4c64:	00000593          	li	a1,0
    4c68:	6e1030ef          	jal	ra,8b48 <memset>
    4c6c:	00c12083          	lw	ra,12(sp)
    4c70:	00040513          	mv	a0,s0
    4c74:	00812403          	lw	s0,8(sp)
    4c78:	00412483          	lw	s1,4(sp)
    4c7c:	00012903          	lw	s2,0(sp)
    4c80:	01010113          	addi	sp,sp,16
    4c84:	00008067          	ret

00004c88 <__sfp>:
    4c88:	fe010113          	addi	sp,sp,-32
    4c8c:	01212823          	sw	s2,16(sp)
    4c90:	0001b917          	auipc	s2,0x1b
    4c94:	38092903          	lw	s2,896(s2) # 20010 <_global_impure_ptr>
    4c98:	03892783          	lw	a5,56(s2)
    4c9c:	01312623          	sw	s3,12(sp)
    4ca0:	00112e23          	sw	ra,28(sp)
    4ca4:	00812c23          	sw	s0,24(sp)
    4ca8:	00912a23          	sw	s1,20(sp)
    4cac:	01412423          	sw	s4,8(sp)
    4cb0:	00050993          	mv	s3,a0
    4cb4:	0a078a63          	beqz	a5,4d68 <__sfp+0xe0>
    4cb8:	2e090913          	addi	s2,s2,736
    4cbc:	fff00493          	li	s1,-1
    4cc0:	00400a13          	li	s4,4
    4cc4:	00492783          	lw	a5,4(s2)
    4cc8:	00892403          	lw	s0,8(s2)
    4ccc:	fff78793          	addi	a5,a5,-1
    4cd0:	0007d863          	bgez	a5,4ce0 <__sfp+0x58>
    4cd4:	0840006f          	j	4d58 <__sfp+0xd0>
    4cd8:	06840413          	addi	s0,s0,104
    4cdc:	06978e63          	beq	a5,s1,4d58 <__sfp+0xd0>
    4ce0:	00c41703          	lh	a4,12(s0)
    4ce4:	fff78793          	addi	a5,a5,-1
    4ce8:	fe0718e3          	bnez	a4,4cd8 <__sfp+0x50>
    4cec:	ffff07b7          	lui	a5,0xffff0
    4cf0:	00178793          	addi	a5,a5,1 # ffff0001 <_stack+0xfffb0001>
    4cf4:	06042223          	sw	zero,100(s0)
    4cf8:	00042023          	sw	zero,0(s0)
    4cfc:	00042223          	sw	zero,4(s0)
    4d00:	00042423          	sw	zero,8(s0)
    4d04:	00f42623          	sw	a5,12(s0)
    4d08:	00042823          	sw	zero,16(s0)
    4d0c:	00042a23          	sw	zero,20(s0)
    4d10:	00042c23          	sw	zero,24(s0)
    4d14:	00800613          	li	a2,8
    4d18:	00000593          	li	a1,0
    4d1c:	05c40513          	addi	a0,s0,92
    4d20:	629030ef          	jal	ra,8b48 <memset>
    4d24:	02042823          	sw	zero,48(s0)
    4d28:	02042a23          	sw	zero,52(s0)
    4d2c:	04042223          	sw	zero,68(s0)
    4d30:	04042423          	sw	zero,72(s0)
    4d34:	01c12083          	lw	ra,28(sp)
    4d38:	00040513          	mv	a0,s0
    4d3c:	01812403          	lw	s0,24(sp)
    4d40:	01412483          	lw	s1,20(sp)
    4d44:	01012903          	lw	s2,16(sp)
    4d48:	00c12983          	lw	s3,12(sp)
    4d4c:	00812a03          	lw	s4,8(sp)
    4d50:	02010113          	addi	sp,sp,32
    4d54:	00008067          	ret
    4d58:	00092403          	lw	s0,0(s2)
    4d5c:	00040c63          	beqz	s0,4d74 <__sfp+0xec>
    4d60:	00040913          	mv	s2,s0
    4d64:	f61ff06f          	j	4cc4 <__sfp+0x3c>
    4d68:	00090513          	mv	a0,s2
    4d6c:	d2dff0ef          	jal	ra,4a98 <__sinit.part.0>
    4d70:	f49ff06f          	j	4cb8 <__sfp+0x30>
    4d74:	1ac00593          	li	a1,428
    4d78:	00098513          	mv	a0,s3
    4d7c:	e71fb0ef          	jal	ra,bec <_malloc_r>
    4d80:	00050413          	mv	s0,a0
    4d84:	02050663          	beqz	a0,4db0 <__sfp+0x128>
    4d88:	00c50513          	addi	a0,a0,12
    4d8c:	00042023          	sw	zero,0(s0)
    4d90:	01442223          	sw	s4,4(s0)
    4d94:	00a42423          	sw	a0,8(s0)
    4d98:	1a000613          	li	a2,416
    4d9c:	00000593          	li	a1,0
    4da0:	5a9030ef          	jal	ra,8b48 <memset>
    4da4:	00892023          	sw	s0,0(s2)
    4da8:	00040913          	mv	s2,s0
    4dac:	f19ff06f          	j	4cc4 <__sfp+0x3c>
    4db0:	00092023          	sw	zero,0(s2)
    4db4:	00c00793          	li	a5,12
    4db8:	00f9a023          	sw	a5,0(s3)
    4dbc:	f79ff06f          	j	4d34 <__sfp+0xac>

00004dc0 <_cleanup>:
    4dc0:	0000a597          	auipc	a1,0xa
    4dc4:	da058593          	addi	a1,a1,-608 # eb60 <_fclose_r>
    4dc8:	0001b517          	auipc	a0,0x1b
    4dcc:	24852503          	lw	a0,584(a0) # 20010 <_global_impure_ptr>
    4dd0:	1dd0006f          	j	57ac <_fwalk_reent>

00004dd4 <__sinit>:
    4dd4:	03852783          	lw	a5,56(a0)
    4dd8:	00078463          	beqz	a5,4de0 <__sinit+0xc>
    4ddc:	00008067          	ret
    4de0:	cb9ff06f          	j	4a98 <__sinit.part.0>

00004de4 <__sfp_lock_acquire>:
    4de4:	00008067          	ret

00004de8 <__sfp_lock_release>:
    4de8:	00008067          	ret

00004dec <__sinit_lock_acquire>:
    4dec:	00008067          	ret

00004df0 <__sinit_lock_release>:
    4df0:	00008067          	ret

00004df4 <__fp_lock_all>:
    4df4:	00000597          	auipc	a1,0x0
    4df8:	c8858593          	addi	a1,a1,-888 # 4a7c <__fp_lock>
    4dfc:	0001b517          	auipc	a0,0x1b
    4e00:	23c52503          	lw	a0,572(a0) # 20038 <_impure_ptr>
    4e04:	1050006f          	j	5708 <_fwalk>

00004e08 <__fp_unlock_all>:
    4e08:	00000597          	auipc	a1,0x0
    4e0c:	c8858593          	addi	a1,a1,-888 # 4a90 <__fp_unlock>
    4e10:	0001b517          	auipc	a0,0x1b
    4e14:	22852503          	lw	a0,552(a0) # 20038 <_impure_ptr>
    4e18:	0f10006f          	j	5708 <_fwalk>

00004e1c <_malloc_trim_r>:
    4e1c:	fe010113          	addi	sp,sp,-32
    4e20:	00812c23          	sw	s0,24(sp)
    4e24:	00912a23          	sw	s1,20(sp)
    4e28:	01212823          	sw	s2,16(sp)
    4e2c:	01312623          	sw	s3,12(sp)
    4e30:	01412423          	sw	s4,8(sp)
    4e34:	00058993          	mv	s3,a1
    4e38:	00112e23          	sw	ra,28(sp)
    4e3c:	0001ca17          	auipc	s4,0x1c
    4e40:	628a0a13          	addi	s4,s4,1576 # 21464 <__malloc_av_>
    4e44:	00050913          	mv	s2,a0
    4e48:	d70fc0ef          	jal	ra,13b8 <__malloc_lock>
    4e4c:	008a2703          	lw	a4,8(s4)
    4e50:	000017b7          	lui	a5,0x1
    4e54:	fef78413          	addi	s0,a5,-17 # fef <_malloc_r+0x403>
    4e58:	00472483          	lw	s1,4(a4)
    4e5c:	41340433          	sub	s0,s0,s3
    4e60:	ffc4f493          	andi	s1,s1,-4
    4e64:	00940433          	add	s0,s0,s1
    4e68:	00c45413          	srli	s0,s0,0xc
    4e6c:	fff40413          	addi	s0,s0,-1
    4e70:	00c41413          	slli	s0,s0,0xc
    4e74:	00f44e63          	blt	s0,a5,4e90 <_malloc_trim_r+0x74>
    4e78:	00000593          	li	a1,0
    4e7c:	00090513          	mv	a0,s2
    4e80:	80dfc0ef          	jal	ra,168c <_sbrk_r>
    4e84:	008a2783          	lw	a5,8(s4)
    4e88:	009787b3          	add	a5,a5,s1
    4e8c:	02f50863          	beq	a0,a5,4ebc <_malloc_trim_r+0xa0>
    4e90:	00090513          	mv	a0,s2
    4e94:	d28fc0ef          	jal	ra,13bc <__malloc_unlock>
    4e98:	01c12083          	lw	ra,28(sp)
    4e9c:	01812403          	lw	s0,24(sp)
    4ea0:	01412483          	lw	s1,20(sp)
    4ea4:	01012903          	lw	s2,16(sp)
    4ea8:	00c12983          	lw	s3,12(sp)
    4eac:	00812a03          	lw	s4,8(sp)
    4eb0:	00000513          	li	a0,0
    4eb4:	02010113          	addi	sp,sp,32
    4eb8:	00008067          	ret
    4ebc:	408005b3          	neg	a1,s0
    4ec0:	00090513          	mv	a0,s2
    4ec4:	fc8fc0ef          	jal	ra,168c <_sbrk_r>
    4ec8:	fff00793          	li	a5,-1
    4ecc:	04f50a63          	beq	a0,a5,4f20 <_malloc_trim_r+0x104>
    4ed0:	0001f717          	auipc	a4,0x1f
    4ed4:	75c70713          	addi	a4,a4,1884 # 2462c <__malloc_current_mallinfo>
    4ed8:	00072783          	lw	a5,0(a4)
    4edc:	008a2683          	lw	a3,8(s4)
    4ee0:	408484b3          	sub	s1,s1,s0
    4ee4:	0014e493          	ori	s1,s1,1
    4ee8:	40878433          	sub	s0,a5,s0
    4eec:	00090513          	mv	a0,s2
    4ef0:	0096a223          	sw	s1,4(a3) # 1004 <_malloc_r+0x418>
    4ef4:	00872023          	sw	s0,0(a4)
    4ef8:	cc4fc0ef          	jal	ra,13bc <__malloc_unlock>
    4efc:	01c12083          	lw	ra,28(sp)
    4f00:	01812403          	lw	s0,24(sp)
    4f04:	01412483          	lw	s1,20(sp)
    4f08:	01012903          	lw	s2,16(sp)
    4f0c:	00c12983          	lw	s3,12(sp)
    4f10:	00812a03          	lw	s4,8(sp)
    4f14:	00100513          	li	a0,1
    4f18:	02010113          	addi	sp,sp,32
    4f1c:	00008067          	ret
    4f20:	00000593          	li	a1,0
    4f24:	00090513          	mv	a0,s2
    4f28:	f64fc0ef          	jal	ra,168c <_sbrk_r>
    4f2c:	008a2703          	lw	a4,8(s4)
    4f30:	00f00693          	li	a3,15
    4f34:	40e507b3          	sub	a5,a0,a4
    4f38:	f4f6dce3          	bge	a3,a5,4e90 <_malloc_trim_r+0x74>
    4f3c:	0001b697          	auipc	a3,0x1b
    4f40:	0f46a683          	lw	a3,244(a3) # 20030 <__malloc_sbrk_base>
    4f44:	40d50533          	sub	a0,a0,a3
    4f48:	0017e793          	ori	a5,a5,1
    4f4c:	0001f697          	auipc	a3,0x1f
    4f50:	6ea6a023          	sw	a0,1760(a3) # 2462c <__malloc_current_mallinfo>
    4f54:	00f72223          	sw	a5,4(a4)
    4f58:	f39ff06f          	j	4e90 <_malloc_trim_r+0x74>

00004f5c <_free_r>:
    4f5c:	12058a63          	beqz	a1,5090 <_free_r+0x134>
    4f60:	ff010113          	addi	sp,sp,-16
    4f64:	00812423          	sw	s0,8(sp)
    4f68:	00912223          	sw	s1,4(sp)
    4f6c:	00058413          	mv	s0,a1
    4f70:	00050493          	mv	s1,a0
    4f74:	00112623          	sw	ra,12(sp)
    4f78:	c40fc0ef          	jal	ra,13b8 <__malloc_lock>
    4f7c:	ffc42583          	lw	a1,-4(s0)
    4f80:	ff840713          	addi	a4,s0,-8
    4f84:	0001c817          	auipc	a6,0x1c
    4f88:	4e080813          	addi	a6,a6,1248 # 21464 <__malloc_av_>
    4f8c:	ffe5f793          	andi	a5,a1,-2
    4f90:	00f70633          	add	a2,a4,a5
    4f94:	00462683          	lw	a3,4(a2)
    4f98:	00882503          	lw	a0,8(a6)
    4f9c:	ffc6f693          	andi	a3,a3,-4
    4fa0:	1ac50a63          	beq	a0,a2,5154 <_free_r+0x1f8>
    4fa4:	00d62223          	sw	a3,4(a2)
    4fa8:	0015f593          	andi	a1,a1,1
    4fac:	00d60533          	add	a0,a2,a3
    4fb0:	0a059063          	bnez	a1,5050 <_free_r+0xf4>
    4fb4:	ff842303          	lw	t1,-8(s0)
    4fb8:	00452583          	lw	a1,4(a0)
    4fbc:	0001c897          	auipc	a7,0x1c
    4fc0:	4b088893          	addi	a7,a7,1200 # 2146c <__malloc_av_+0x8>
    4fc4:	40670733          	sub	a4,a4,t1
    4fc8:	00872503          	lw	a0,8(a4)
    4fcc:	006787b3          	add	a5,a5,t1
    4fd0:	0015f593          	andi	a1,a1,1
    4fd4:	15150063          	beq	a0,a7,5114 <_free_r+0x1b8>
    4fd8:	00c72303          	lw	t1,12(a4)
    4fdc:	00652623          	sw	t1,12(a0)
    4fe0:	00a32423          	sw	a0,8(t1)
    4fe4:	1e058463          	beqz	a1,51cc <_free_r+0x270>
    4fe8:	0017e693          	ori	a3,a5,1
    4fec:	00d72223          	sw	a3,4(a4)
    4ff0:	00f62023          	sw	a5,0(a2)
    4ff4:	1ff00693          	li	a3,511
    4ff8:	0af6e863          	bltu	a3,a5,50a8 <_free_r+0x14c>
    4ffc:	ff87f693          	andi	a3,a5,-8
    5000:	00868693          	addi	a3,a3,8
    5004:	00482583          	lw	a1,4(a6)
    5008:	00d806b3          	add	a3,a6,a3
    500c:	0006a603          	lw	a2,0(a3)
    5010:	0057d513          	srli	a0,a5,0x5
    5014:	00100793          	li	a5,1
    5018:	00a797b3          	sll	a5,a5,a0
    501c:	00b7e7b3          	or	a5,a5,a1
    5020:	ff868593          	addi	a1,a3,-8
    5024:	00b72623          	sw	a1,12(a4)
    5028:	00c72423          	sw	a2,8(a4)
    502c:	00f82223          	sw	a5,4(a6)
    5030:	00e6a023          	sw	a4,0(a3)
    5034:	00e62623          	sw	a4,12(a2)
    5038:	00812403          	lw	s0,8(sp)
    503c:	00c12083          	lw	ra,12(sp)
    5040:	00048513          	mv	a0,s1
    5044:	00412483          	lw	s1,4(sp)
    5048:	01010113          	addi	sp,sp,16
    504c:	b70fc06f          	j	13bc <__malloc_unlock>
    5050:	00452583          	lw	a1,4(a0)
    5054:	0015f593          	andi	a1,a1,1
    5058:	02059e63          	bnez	a1,5094 <_free_r+0x138>
    505c:	00d787b3          	add	a5,a5,a3
    5060:	0001c897          	auipc	a7,0x1c
    5064:	40c88893          	addi	a7,a7,1036 # 2146c <__malloc_av_+0x8>
    5068:	00862683          	lw	a3,8(a2)
    506c:	0017e513          	ori	a0,a5,1
    5070:	00f705b3          	add	a1,a4,a5
    5074:	17168863          	beq	a3,a7,51e4 <_free_r+0x288>
    5078:	00c62603          	lw	a2,12(a2)
    507c:	00c6a623          	sw	a2,12(a3)
    5080:	00d62423          	sw	a3,8(a2)
    5084:	00a72223          	sw	a0,4(a4)
    5088:	00f5a023          	sw	a5,0(a1)
    508c:	f69ff06f          	j	4ff4 <_free_r+0x98>
    5090:	00008067          	ret
    5094:	0017e693          	ori	a3,a5,1
    5098:	fed42e23          	sw	a3,-4(s0)
    509c:	00f62023          	sw	a5,0(a2)
    50a0:	1ff00693          	li	a3,511
    50a4:	f4f6fce3          	bgeu	a3,a5,4ffc <_free_r+0xa0>
    50a8:	0097d693          	srli	a3,a5,0x9
    50ac:	00400613          	li	a2,4
    50b0:	0ed66c63          	bltu	a2,a3,51a8 <_free_r+0x24c>
    50b4:	0067d693          	srli	a3,a5,0x6
    50b8:	03968593          	addi	a1,a3,57
    50bc:	03868613          	addi	a2,a3,56
    50c0:	00359593          	slli	a1,a1,0x3
    50c4:	00b805b3          	add	a1,a6,a1
    50c8:	0005a683          	lw	a3,0(a1)
    50cc:	ff858593          	addi	a1,a1,-8
    50d0:	12d58863          	beq	a1,a3,5200 <_free_r+0x2a4>
    50d4:	0046a603          	lw	a2,4(a3)
    50d8:	ffc67613          	andi	a2,a2,-4
    50dc:	00c7f663          	bgeu	a5,a2,50e8 <_free_r+0x18c>
    50e0:	0086a683          	lw	a3,8(a3)
    50e4:	fed598e3          	bne	a1,a3,50d4 <_free_r+0x178>
    50e8:	00c6a583          	lw	a1,12(a3)
    50ec:	00b72623          	sw	a1,12(a4)
    50f0:	00d72423          	sw	a3,8(a4)
    50f4:	00812403          	lw	s0,8(sp)
    50f8:	00c12083          	lw	ra,12(sp)
    50fc:	00e5a423          	sw	a4,8(a1)
    5100:	00048513          	mv	a0,s1
    5104:	00412483          	lw	s1,4(sp)
    5108:	00e6a623          	sw	a4,12(a3)
    510c:	01010113          	addi	sp,sp,16
    5110:	aacfc06f          	j	13bc <__malloc_unlock>
    5114:	14059663          	bnez	a1,5260 <_free_r+0x304>
    5118:	00c62583          	lw	a1,12(a2)
    511c:	00862603          	lw	a2,8(a2)
    5120:	00f687b3          	add	a5,a3,a5
    5124:	00812403          	lw	s0,8(sp)
    5128:	00b62623          	sw	a1,12(a2)
    512c:	00c5a423          	sw	a2,8(a1)
    5130:	0017e693          	ori	a3,a5,1
    5134:	00c12083          	lw	ra,12(sp)
    5138:	00d72223          	sw	a3,4(a4)
    513c:	00048513          	mv	a0,s1
    5140:	00f70733          	add	a4,a4,a5
    5144:	00412483          	lw	s1,4(sp)
    5148:	00f72023          	sw	a5,0(a4)
    514c:	01010113          	addi	sp,sp,16
    5150:	a6cfc06f          	j	13bc <__malloc_unlock>
    5154:	0015f593          	andi	a1,a1,1
    5158:	00d787b3          	add	a5,a5,a3
    515c:	02059063          	bnez	a1,517c <_free_r+0x220>
    5160:	ff842583          	lw	a1,-8(s0)
    5164:	40b70733          	sub	a4,a4,a1
    5168:	00c72683          	lw	a3,12(a4)
    516c:	00872603          	lw	a2,8(a4)
    5170:	00b787b3          	add	a5,a5,a1
    5174:	00d62623          	sw	a3,12(a2)
    5178:	00c6a423          	sw	a2,8(a3)
    517c:	0017e693          	ori	a3,a5,1
    5180:	00d72223          	sw	a3,4(a4)
    5184:	00e82423          	sw	a4,8(a6)
    5188:	0001b717          	auipc	a4,0x1b
    518c:	eac72703          	lw	a4,-340(a4) # 20034 <__malloc_trim_threshold>
    5190:	eae7e4e3          	bltu	a5,a4,5038 <_free_r+0xdc>
    5194:	0001d597          	auipc	a1,0x1d
    5198:	cb05a583          	lw	a1,-848(a1) # 21e44 <__malloc_top_pad>
    519c:	00048513          	mv	a0,s1
    51a0:	c7dff0ef          	jal	ra,4e1c <_malloc_trim_r>
    51a4:	e95ff06f          	j	5038 <_free_r+0xdc>
    51a8:	01400613          	li	a2,20
    51ac:	02d67463          	bgeu	a2,a3,51d4 <_free_r+0x278>
    51b0:	05400613          	li	a2,84
    51b4:	06d66463          	bltu	a2,a3,521c <_free_r+0x2c0>
    51b8:	00c7d693          	srli	a3,a5,0xc
    51bc:	06f68593          	addi	a1,a3,111
    51c0:	06e68613          	addi	a2,a3,110
    51c4:	00359593          	slli	a1,a1,0x3
    51c8:	efdff06f          	j	50c4 <_free_r+0x168>
    51cc:	00d787b3          	add	a5,a5,a3
    51d0:	e99ff06f          	j	5068 <_free_r+0x10c>
    51d4:	05c68593          	addi	a1,a3,92
    51d8:	05b68613          	addi	a2,a3,91
    51dc:	00359593          	slli	a1,a1,0x3
    51e0:	ee5ff06f          	j	50c4 <_free_r+0x168>
    51e4:	00e82a23          	sw	a4,20(a6)
    51e8:	00e82823          	sw	a4,16(a6)
    51ec:	01172623          	sw	a7,12(a4)
    51f0:	01172423          	sw	a7,8(a4)
    51f4:	00a72223          	sw	a0,4(a4)
    51f8:	00f5a023          	sw	a5,0(a1)
    51fc:	e3dff06f          	j	5038 <_free_r+0xdc>
    5200:	00482503          	lw	a0,4(a6)
    5204:	40265613          	srai	a2,a2,0x2
    5208:	00100793          	li	a5,1
    520c:	00c79633          	sll	a2,a5,a2
    5210:	00a66633          	or	a2,a2,a0
    5214:	00c82223          	sw	a2,4(a6)
    5218:	ed5ff06f          	j	50ec <_free_r+0x190>
    521c:	15400613          	li	a2,340
    5220:	00d66c63          	bltu	a2,a3,5238 <_free_r+0x2dc>
    5224:	00f7d693          	srli	a3,a5,0xf
    5228:	07868593          	addi	a1,a3,120
    522c:	07768613          	addi	a2,a3,119
    5230:	00359593          	slli	a1,a1,0x3
    5234:	e91ff06f          	j	50c4 <_free_r+0x168>
    5238:	55400613          	li	a2,1364
    523c:	00d66c63          	bltu	a2,a3,5254 <_free_r+0x2f8>
    5240:	0127d693          	srli	a3,a5,0x12
    5244:	07d68593          	addi	a1,a3,125
    5248:	07c68613          	addi	a2,a3,124
    524c:	00359593          	slli	a1,a1,0x3
    5250:	e75ff06f          	j	50c4 <_free_r+0x168>
    5254:	3f800593          	li	a1,1016
    5258:	07e00613          	li	a2,126
    525c:	e69ff06f          	j	50c4 <_free_r+0x168>
    5260:	0017e693          	ori	a3,a5,1
    5264:	00d72223          	sw	a3,4(a4)
    5268:	00f62023          	sw	a5,0(a2)
    526c:	dcdff06f          	j	5038 <_free_r+0xdc>

00005270 <__sfvwrite_r>:
    5270:	00862783          	lw	a5,8(a2)
    5274:	30078863          	beqz	a5,5584 <__sfvwrite_r+0x314>
    5278:	00c5d783          	lhu	a5,12(a1)
    527c:	fd010113          	addi	sp,sp,-48
    5280:	02812423          	sw	s0,40(sp)
    5284:	01412c23          	sw	s4,24(sp)
    5288:	01512a23          	sw	s5,20(sp)
    528c:	02112623          	sw	ra,44(sp)
    5290:	02912223          	sw	s1,36(sp)
    5294:	03212023          	sw	s2,32(sp)
    5298:	01312e23          	sw	s3,28(sp)
    529c:	01612823          	sw	s6,16(sp)
    52a0:	01712623          	sw	s7,12(sp)
    52a4:	01812423          	sw	s8,8(sp)
    52a8:	01912223          	sw	s9,4(sp)
    52ac:	01a12023          	sw	s10,0(sp)
    52b0:	0087f713          	andi	a4,a5,8
    52b4:	00060a13          	mv	s4,a2
    52b8:	00050a93          	mv	s5,a0
    52bc:	00058413          	mv	s0,a1
    52c0:	08070663          	beqz	a4,534c <__sfvwrite_r+0xdc>
    52c4:	0105a703          	lw	a4,16(a1)
    52c8:	08070263          	beqz	a4,534c <__sfvwrite_r+0xdc>
    52cc:	0027f713          	andi	a4,a5,2
    52d0:	000a2483          	lw	s1,0(s4)
    52d4:	08070c63          	beqz	a4,536c <__sfvwrite_r+0xfc>
    52d8:	02442783          	lw	a5,36(s0)
    52dc:	01c42583          	lw	a1,28(s0)
    52e0:	80000b37          	lui	s6,0x80000
    52e4:	00000993          	li	s3,0
    52e8:	00000913          	li	s2,0
    52ec:	c00b4b13          	xori	s6,s6,-1024
    52f0:	00098613          	mv	a2,s3
    52f4:	000a8513          	mv	a0,s5
    52f8:	04090263          	beqz	s2,533c <__sfvwrite_r+0xcc>
    52fc:	00090693          	mv	a3,s2
    5300:	012b7463          	bgeu	s6,s2,5308 <__sfvwrite_r+0x98>
    5304:	000b0693          	mv	a3,s6
    5308:	000780e7          	jalr	a5
    530c:	26a05263          	blez	a0,5570 <__sfvwrite_r+0x300>
    5310:	008a2783          	lw	a5,8(s4)
    5314:	00a989b3          	add	s3,s3,a0
    5318:	40a90933          	sub	s2,s2,a0
    531c:	40a78533          	sub	a0,a5,a0
    5320:	00aa2423          	sw	a0,8(s4)
    5324:	20050063          	beqz	a0,5524 <__sfvwrite_r+0x2b4>
    5328:	02442783          	lw	a5,36(s0)
    532c:	01c42583          	lw	a1,28(s0)
    5330:	00098613          	mv	a2,s3
    5334:	000a8513          	mv	a0,s5
    5338:	fc0912e3          	bnez	s2,52fc <__sfvwrite_r+0x8c>
    533c:	0004a983          	lw	s3,0(s1)
    5340:	0044a903          	lw	s2,4(s1)
    5344:	00848493          	addi	s1,s1,8
    5348:	fa9ff06f          	j	52f0 <__sfvwrite_r+0x80>
    534c:	00040593          	mv	a1,s0
    5350:	000a8513          	mv	a0,s5
    5354:	a74ff0ef          	jal	ra,45c8 <__swsetup_r>
    5358:	3a051463          	bnez	a0,5700 <__sfvwrite_r+0x490>
    535c:	00c45783          	lhu	a5,12(s0)
    5360:	000a2483          	lw	s1,0(s4)
    5364:	0027f713          	andi	a4,a5,2
    5368:	f60718e3          	bnez	a4,52d8 <__sfvwrite_r+0x68>
    536c:	0017f713          	andi	a4,a5,1
    5370:	12071663          	bnez	a4,549c <__sfvwrite_r+0x22c>
    5374:	00842c83          	lw	s9,8(s0)
    5378:	00042503          	lw	a0,0(s0)
    537c:	80000b37          	lui	s6,0x80000
    5380:	ffeb4b93          	xori	s7,s6,-2
    5384:	00000c13          	li	s8,0
    5388:	00000913          	li	s2,0
    538c:	fffb4b13          	not	s6,s6
    5390:	0e090e63          	beqz	s2,548c <__sfvwrite_r+0x21c>
    5394:	2007f713          	andi	a4,a5,512
    5398:	24070863          	beqz	a4,55e8 <__sfvwrite_r+0x378>
    539c:	000c8d13          	mv	s10,s9
    53a0:	2d996e63          	bltu	s2,s9,567c <__sfvwrite_r+0x40c>
    53a4:	4807f713          	andi	a4,a5,1152
    53a8:	08070a63          	beqz	a4,543c <__sfvwrite_r+0x1cc>
    53ac:	01442983          	lw	s3,20(s0)
    53b0:	01042583          	lw	a1,16(s0)
    53b4:	00190713          	addi	a4,s2,1
    53b8:	00199693          	slli	a3,s3,0x1
    53bc:	013686b3          	add	a3,a3,s3
    53c0:	01f6d993          	srli	s3,a3,0x1f
    53c4:	40b50d33          	sub	s10,a0,a1
    53c8:	00d989b3          	add	s3,s3,a3
    53cc:	4019d993          	srai	s3,s3,0x1
    53d0:	01a70733          	add	a4,a4,s10
    53d4:	00098613          	mv	a2,s3
    53d8:	00e9f663          	bgeu	s3,a4,53e4 <__sfvwrite_r+0x174>
    53dc:	00070993          	mv	s3,a4
    53e0:	00070613          	mv	a2,a4
    53e4:	4007f793          	andi	a5,a5,1024
    53e8:	2c078663          	beqz	a5,56b4 <__sfvwrite_r+0x444>
    53ec:	00060593          	mv	a1,a2
    53f0:	000a8513          	mv	a0,s5
    53f4:	ff8fb0ef          	jal	ra,bec <_malloc_r>
    53f8:	00050c93          	mv	s9,a0
    53fc:	2e050a63          	beqz	a0,56f0 <__sfvwrite_r+0x480>
    5400:	01042583          	lw	a1,16(s0)
    5404:	000d0613          	mv	a2,s10
    5408:	4f8030ef          	jal	ra,8900 <memcpy>
    540c:	00c45783          	lhu	a5,12(s0)
    5410:	b7f7f793          	andi	a5,a5,-1153
    5414:	0807e793          	ori	a5,a5,128
    5418:	00f41623          	sh	a5,12(s0)
    541c:	01ac8533          	add	a0,s9,s10
    5420:	41a987b3          	sub	a5,s3,s10
    5424:	01942823          	sw	s9,16(s0)
    5428:	00a42023          	sw	a0,0(s0)
    542c:	01342a23          	sw	s3,20(s0)
    5430:	00090c93          	mv	s9,s2
    5434:	00f42423          	sw	a5,8(s0)
    5438:	00090d13          	mv	s10,s2
    543c:	000d0613          	mv	a2,s10
    5440:	000c0593          	mv	a1,s8
    5444:	5e4030ef          	jal	ra,8a28 <memmove>
    5448:	00842703          	lw	a4,8(s0)
    544c:	00042783          	lw	a5,0(s0)
    5450:	00090993          	mv	s3,s2
    5454:	41970cb3          	sub	s9,a4,s9
    5458:	01a787b3          	add	a5,a5,s10
    545c:	01942423          	sw	s9,8(s0)
    5460:	00f42023          	sw	a5,0(s0)
    5464:	00000913          	li	s2,0
    5468:	008a2603          	lw	a2,8(s4)
    546c:	013c0c33          	add	s8,s8,s3
    5470:	413609b3          	sub	s3,a2,s3
    5474:	013a2423          	sw	s3,8(s4)
    5478:	0a098663          	beqz	s3,5524 <__sfvwrite_r+0x2b4>
    547c:	00842c83          	lw	s9,8(s0)
    5480:	00042503          	lw	a0,0(s0)
    5484:	00c45783          	lhu	a5,12(s0)
    5488:	f00916e3          	bnez	s2,5394 <__sfvwrite_r+0x124>
    548c:	0004ac03          	lw	s8,0(s1)
    5490:	0044a903          	lw	s2,4(s1)
    5494:	00848493          	addi	s1,s1,8
    5498:	ef9ff06f          	j	5390 <__sfvwrite_r+0x120>
    549c:	00000b13          	li	s6,0
    54a0:	00000513          	li	a0,0
    54a4:	00000c13          	li	s8,0
    54a8:	00000993          	li	s3,0
    54ac:	0e098063          	beqz	s3,558c <__sfvwrite_r+0x31c>
    54b0:	0e050663          	beqz	a0,559c <__sfvwrite_r+0x32c>
    54b4:	000b0793          	mv	a5,s6
    54b8:	00098b93          	mv	s7,s3
    54bc:	0137f463          	bgeu	a5,s3,54c4 <__sfvwrite_r+0x254>
    54c0:	00078b93          	mv	s7,a5
    54c4:	00042503          	lw	a0,0(s0)
    54c8:	01042783          	lw	a5,16(s0)
    54cc:	01442683          	lw	a3,20(s0)
    54d0:	00a7f863          	bgeu	a5,a0,54e0 <__sfvwrite_r+0x270>
    54d4:	00842903          	lw	s2,8(s0)
    54d8:	01268933          	add	s2,a3,s2
    54dc:	0f794063          	blt	s2,s7,55bc <__sfvwrite_r+0x34c>
    54e0:	1adbc463          	blt	s7,a3,5688 <__sfvwrite_r+0x418>
    54e4:	02442783          	lw	a5,36(s0)
    54e8:	01c42583          	lw	a1,28(s0)
    54ec:	000c0613          	mv	a2,s8
    54f0:	000a8513          	mv	a0,s5
    54f4:	000780e7          	jalr	a5
    54f8:	00050913          	mv	s2,a0
    54fc:	06a05a63          	blez	a0,5570 <__sfvwrite_r+0x300>
    5500:	412b0b33          	sub	s6,s6,s2
    5504:	00100513          	li	a0,1
    5508:	040b0c63          	beqz	s6,5560 <__sfvwrite_r+0x2f0>
    550c:	008a2603          	lw	a2,8(s4)
    5510:	012c0c33          	add	s8,s8,s2
    5514:	412989b3          	sub	s3,s3,s2
    5518:	41260933          	sub	s2,a2,s2
    551c:	012a2423          	sw	s2,8(s4)
    5520:	f80916e3          	bnez	s2,54ac <__sfvwrite_r+0x23c>
    5524:	00000513          	li	a0,0
    5528:	02c12083          	lw	ra,44(sp)
